Zilog eZ80 Macro Assembler Version 4.1 (10060805)11-Jul-11     16:26:24     page:   1


PC     Object              I  Line    Source 
                           A     1    
                           A     2    ; Complete ez80 opcode list to test disassemble
                           A     3    
                           A     4    ; Note: Commented out opcodes will not assemble
                           A     5    ; even though they are listed as valid in the d
                           A     6    
010000                     A     7    			org 010000h
                           A     8    
                           A     9    .assume ADL = 1
                           A    10    
                           A    11    		
                           A    12    ;----------------------------------------------
                           A    13    
                           A    14    
010000 8E                  A    15    			adc a,(hl)
010001 528E                A    16    			adc.s a,(hl)
010003 5B8E                A    17    			adc.l a,(hl)
                           A    18    			
010005 DD8D                A    19    			adc a,ixl
010007 DD8C                A    20    			adc a,ixh
010009 FD8D                A    21    			adc a,iyl
01000B FD8C                A    22    			adc a,iyh
                           A    23    			
01000D DD8E55              A    24    			adc a,(ix+55h)
010010 52DD8E55            A    25    			adc.s a,(ix+55h)
010014 5BDD8E55            A    26    			adc.l a,(ix+55h)
                           A    27    			
010018 FD8E55              A    28    			adc a,(iy+55h)
01001B 52FD8E55            A    29    			adc.s a,(iy+55h)
01001F 5BFD8E55            A    30    			adc.l a,(iy+55h)
                           A    31    			
010023 CEAA                A    32    			adc a,0aah
                           A    33    			
010025 8F                  A    34    			adc a,a
010026 88                  A    35    			adc a,b
010027 89                  A    36    			adc a,c
010028 8A                  A    37    			adc a,d
010029 8B                  A    38    			adc a,e
01002A 8C                  A    39    			adc a,h
01002B 8D                  A    40    			adc a,l
                           A    41    			
01002C ED4A                A    42    			adc hl,bc
01002E ED5A                A    43    			adc hl,de
010030 ED6A                A    44    			adc hl,hl
010032 52ED4A              A    45    			adc.s hl,bc
010035 52ED5A              A    46    			adc.s hl,de
010038 52ED6A              A    47    			adc.s hl,hl
01003B 5BED4A              A    48    			adc.l hl,bc
01003E 5BED5A              A    49    			adc.l hl,de
010041 5BED6A              A    50    			adc.l hl,hl
                           A    51    			
010044 ED7A                A    52    			adc hl,sp
Zilog eZ80 Macro Assembler Version 4.1 (10060805)11-Jul-11     16:26:24     page:   2


PC     Object              I  Line    Source E:\MY_OWN~1\Coding\ez80p\Code\PROSEB~1\Phil\tests\opcodes\source\opcodes.asm
010046 52ED7A              A    53    			adc.s hl,sp
010049 5BED7A              A    54    			adc.l hl,sp
                           A    55    			
01004C 86                  A    56    			add a,(hl)
01004D 5286                A    57    			add.s a,(hl)
01004F 5B86                A    58    			add.l a,(hl)
                           A    59    			
010051 DD85                A    60    			add a,ixl
010053 DD84                A    61    			add a,ixh
010055 FD85                A    62    			add a,iyl
010057 FD84                A    63    			add a,iyh
                           A    64    			
010059 DD8655              A    65    			add a,(ix+55h)
01005C 52DD8655            A    66    			add.s a,(ix+55h)
010060 5BDD8655            A    67    			add.l a,(ix+55h)
                           A    68    			
010064 FD8655              A    69    			add a,(iy+55h)
010067 52FD8655            A    70    			add.s a,(iy+55h)
01006B 5BFD8655            A    71    			add.l a,(iy+55h)
                           A    72    			
01006F C6AA                A    73    			add a,0aah
                           A    74    			
010071 87                  A    75    			add a,a
010072 80                  A    76    			add a,b
010073 81                  A    77    			add a,c
010074 82                  A    78    			add a,d
010075 83                  A    79    			add a,e
010076 84                  A    80    			add a,h
010077 85                  A    81    			add a,l
                           A    82    			
010078 09                  A    83    			add hl,bc
010079 19                  A    84    			add hl,de
01007A 29                  A    85    			add hl,hl
01007B 5209                A    86    			add.s hl,bc
01007D 5219                A    87    			add.s hl,de
01007F 5229                A    88    			add.s hl,hl
010081 5B09                A    89    			add.l hl,bc
010083 5B19                A    90    			add.l hl,de
010085 5B29                A    91    			add.l hl,hl
                           A    92    			
010087 39                  A    93    			add hl,sp
010088 5239                A    94    			add.s hl,sp
01008A 5B39                A    95    			add.l hl,sp
                           A    96    			
01008C DD09                A    97    			add ix,bc
01008E DD19                A    98    			add ix,de
010090 DD29                A    99    			add ix,ix
010092 52DD09              A   100    			add.s ix,bc
010095 52DD19              A   101    			add.s ix,de
010098 52DD29              A   102    			add.s ix,ix
01009B 5BDD09              A   103    			add.l ix,bc
01009E 5BDD19              A   104    			add.l ix,de
Zilog eZ80 Macro Assembler Version 4.1 (10060805)11-Jul-11     16:26:24     page:   3


PC     Object              I  Line    Source E:\MY_OWN~1\Coding\ez80p\Code\PROSEB~1\Phil\tests\opcodes\source\opcodes.asm
0100A1 5BDD29              A   105    			add.l ix,ix
                           A   106    			
0100A4 FD09                A   107    			add iy,bc
0100A6 FD19                A   108    			add iy,de
0100A8 FD29                A   109    			add iy,iy
0100AA 52FD09              A   110    			add.s iy,bc
0100AD 52FD19              A   111    			add.s iy,de
0100B0 52FD29              A   112    			add.s iy,iy
0100B3 5BFD09              A   113    			add.l iy,bc
0100B6 5BFD19              A   114    			add.l iy,de
0100B9 5BFD29              A   115    			add.l iy,iy
                           A   116    			
0100BC DD39                A   117    			add ix,sp
0100BE 52DD39              A   118    			add.s ix,sp
0100C1 5BDD39              A   119    			add.l ix,sp
                           A   120    			
0100C4 FD39                A   121    			add iy,sp
0100C6 52FD39              A   122    			add.s iy,sp
0100C9 5BFD39              A   123    			add.l iy,sp
                           A   124    			
0100CC A6                  A   125    			and a,(hl)
0100CD 52A6                A   126    			and.s a,(hl)
0100CF 5BA6                A   127    			and.l a,(hl)
                           A   128    			
0100D1 DDA5                A   129    			and a,ixl
0100D3 DDA4                A   130    			and a,ixh
0100D5 FDA5                A   131    			and a,iyl
0100D7 FDA4                A   132    			and a,iyh
                           A   133    			
0100D9 DDA655              A   134    			and a,(ix+55h)
0100DC 52DDA655            A   135    			and.s a,(ix+55h)
0100E0 5BDDA655            A   136    			and.l a,(ix+55h)
                           A   137    			
0100E4 FDA655              A   138    			and a,(iy+55h)
0100E7 52FDA655            A   139    			and.s a,(iy+55h)
0100EB 5BFDA655            A   140    			and.l a,(iy+55h)
                           A   141    			
0100EF E6AA                A   142    			and a,0aah
                           A   143    			
0100F1 A7                  A   144    			and a,a
0100F2 A0                  A   145    			and a,b
0100F3 A1                  A   146    			and a,c
0100F4 A2                  A   147    			and a,d
0100F5 A3                  A   148    			and a,e
0100F6 A4                  A   149    			and a,h
0100F7 A5                  A   150    			and a,l
                           A   151    			
0100F8 CB46                A   152    			bit 0,(hl)
0100FA 52CB46              A   153    			bit.s 0,(hl)
0100FD 5BCB46              A   154    			bit.l 0,(hl)
010100 CB4E                A   155    			bit 1,(hl)
010102 52CB4E              A   156    			bit.s 1,(hl)
Zilog eZ80 Macro Assembler Version 4.1 (10060805)11-Jul-11     16:26:24     page:   4


PC     Object              I  Line    Source E:\MY_OWN~1\Coding\ez80p\Code\PROSEB~1\Phil\tests\opcodes\source\opcodes.asm
010105 5BCB4E              A   157    			bit.l 1,(hl)
010108 CB56                A   158    			bit 2,(hl)
01010A 52CB56              A   159    			bit.s 2,(hl)
01010D 5BCB56              A   160    			bit.l 2,(hl)
010110 CB5E                A   161    			bit 3,(hl)
010112 52CB5E              A   162    			bit.s 3,(hl)
010115 5BCB5E              A   163    			bit.l 3,(hl)
010118 CB66                A   164    			bit 4,(hl)
01011A 52CB66              A   165    			bit.s 4,(hl)
01011D 5BCB66              A   166    			bit.l 4,(hl)
010120 CB6E                A   167    			bit 5,(hl)
010122 52CB6E              A   168    			bit.s 5,(hl)
010125 5BCB6E              A   169    			bit.l 5,(hl)
010128 CB76                A   170    			bit 6,(hl)
01012A 52CB76              A   171    			bit.s 6,(hl)
01012D 5BCB76              A   172    			bit.l 6,(hl)
010130 CB7E                A   173    			bit 7,(hl)
010132 52CB7E              A   174    			bit.s 7,(hl)
010135 5BCB7E              A   175    			bit.l 7,(hl)
                           A   176    			
010138 DDCB5546            A   177    			bit 0,(ix+55h)
01013C 52DDCB55 46         A   178    			bit.s 0,(ix+55h)
010141 5BDDCB55 46         A   179    			bit.l 0,(ix+55h)
010146 DDCB554E            A   180    			bit 1,(ix+55h)
01014A 52DDCB55 4E         A   181    			bit.s 1,(ix+55h)
01014F 5BDDCB55 4E         A   182    			bit.l 1,(ix+55h)
010154 DDCB5556            A   183    			bit 2,(ix+55h)
010158 52DDCB55 56         A   184    			bit.s 2,(ix+55h)
01015D 5BDDCB55 56         A   185    			bit.l 2,(ix+55h)
010162 DDCB555E            A   186    			bit 3,(ix+55h)
010166 52DDCB55 5E         A   187    			bit.s 3,(ix+55h)
01016B 5BDDCB55 5E         A   188    			bit.l 3,(ix+55h)
010170 DDCB5566            A   189    			bit 4,(ix+55h)
010174 52DDCB55 66         A   190    			bit.s 4,(ix+55h)
010179 5BDDCB55 66         A   191    			bit.l 4,(ix+55h)
01017E DDCB556E            A   192    			bit 5,(ix+55h)
010182 52DDCB55 6E         A   193    			bit.s 5,(ix+55h)
010187 5BDDCB55 6E         A   194    			bit.l 5,(ix+55h)
01018C DDCB5576            A   195    			bit 6,(ix+55h)
010190 52DDCB55 76         A   196    			bit.s 6,(ix+55h)
010195 5BDDCB55 76         A   197    			bit.l 6,(ix+55h)
01019A DDCB557E            A   198    			bit 7,(ix+55h)
01019E 52DDCB55 7E         A   199    			bit.s 7,(ix+55h)
0101A3 5BDDCB55 7E         A   200    			bit.l 7,(ix+55h)
                           A   201    			
0101A8 FDCB5546            A   202    			bit 0,(iy+55h)
0101AC 52FDCB55 46         A   203    			bit.s 0,(iy+55h)
0101B1 5BFDCB55 46         A   204    			bit.l 0,(iy+55h)
0101B6 FDCB554E            A   205    			bit 1,(iy+55h)
0101BA 52FDCB55 4E         A   206    			bit.s 1,(iy+55h)
0101BF 5BFDCB55 4E         A   207    			bit.l 1,(iy+55h)
0101C4 FDCB5556            A   208    			bit 2,(iy+55h)
Zilog eZ80 Macro Assembler Version 4.1 (10060805)11-Jul-11     16:26:24     page:   5


PC     Object              I  Line    Source E:\MY_OWN~1\Coding\ez80p\Code\PROSEB~1\Phil\tests\opcodes\source\opcodes.asm
0101C8 52FDCB55 56         A   209    			bit.s 2,(iy+55h)
0101CD 5BFDCB55 56         A   210    			bit.l 2,(iy+55h)
0101D2 FDCB555E            A   211    			bit 3,(iy+55h)
0101D6 52FDCB55 5E         A   212    			bit.s 3,(iy+55h)
0101DB 5BFDCB55 5E         A   213    			bit.l 3,(iy+55h)
0101E0 FDCB5566            A   214    			bit 4,(iy+55h)
0101E4 52FDCB55 66         A   215    			bit.s 4,(iy+55h)
0101E9 5BFDCB55 66         A   216    			bit.l 4,(iy+55h)
0101EE FDCB556E            A   217    			bit 5,(iy+55h)
0101F2 52FDCB55 6E         A   218    			bit.s 5,(iy+55h)
0101F7 5BFDCB55 6E         A   219    			bit.l 5,(iy+55h)
0101FC FDCB5576            A   220    			bit 6,(iy+55h)
010200 52FDCB55 76         A   221    			bit.s 6,(iy+55h)
010205 5BFDCB55 76         A   222    			bit.l 6,(iy+55h)
01020A FDCB557E            A   223    			bit 7,(iy+55h)
01020E 52FDCB55 7E         A   224    			bit.s 7,(iy+55h)
010213 5BFDCB55 7E         A   225    			bit.l 7,(iy+55h)
                           A   226    			
010218 CB47                A   227    			bit 0,a
01021A CB4F                A   228    			bit 1,a
01021C CB57                A   229    			bit 2,a
01021E CB5F                A   230    			bit 3,a
010220 CB67                A   231    			bit 4,a
010222 CB6F                A   232    			bit 5,a
010224 CB77                A   233    			bit 6,a
010226 CB7F                A   234    			bit 7,a
                           A   235    			
010228 CB40                A   236    			bit 0,b
01022A CB48                A   237    			bit 1,b
01022C CB50                A   238    			bit 2,b
01022E CB58                A   239    			bit 3,b
010230 CB60                A   240    			bit 4,b
010232 CB68                A   241    			bit 5,b
010234 CB70                A   242    			bit 6,b
010236 CB78                A   243    			bit 7,b
                           A   244    			
010238 CB41                A   245    			bit 0,c
01023A CB49                A   246    			bit 1,c
01023C CB51                A   247    			bit 2,c
01023E CB59                A   248    			bit 3,c
010240 CB61                A   249    			bit 4,c
010242 CB69                A   250    			bit 5,c
010244 CB71                A   251    			bit 6,c
010246 CB79                A   252    			bit 7,c
                           A   253    			
010248 CB42                A   254    			bit 0,d
01024A CB4A                A   255    			bit 1,d
01024C CB52                A   256    			bit 2,d
01024E CB5A                A   257    			bit 3,d
010250 CB62                A   258    			bit 4,d
010252 CB6A                A   259    			bit 5,d
010254 CB72                A   260    			bit 6,d
Zilog eZ80 Macro Assembler Version 4.1 (10060805)11-Jul-11     16:26:24     page:   6


PC     Object              I  Line    Source E:\MY_OWN~1\Coding\ez80p\Code\PROSEB~1\Phil\tests\opcodes\source\opcodes.asm
010256 CB7A                A   261    			bit 7,d
                           A   262    			
010258 CB43                A   263    			bit 0,e
01025A CB4B                A   264    			bit 1,e
01025C CB53                A   265    			bit 2,e
01025E CB5B                A   266    			bit 3,e
010260 CB63                A   267    			bit 4,e
010262 CB6B                A   268    			bit 5,e
010264 CB73                A   269    			bit 6,e
010266 CB7B                A   270    			bit 7,e
                           A   271    			
010268 CB44                A   272    			bit 0,h
01026A CB4C                A   273    			bit 1,h
01026C CB54                A   274    			bit 2,h
01026E CB5C                A   275    			bit 3,h
010270 CB64                A   276    			bit 4,h
010272 CB6C                A   277    			bit 5,h
010274 CB74                A   278    			bit 6,h
010276 CB7C                A   279    			bit 7,h
                           A   280    			
010278 CB45                A   281    			bit 0,l
01027A CB4D                A   282    			bit 1,l
01027C CB55                A   283    			bit 2,l
01027E CB5D                A   284    			bit 3,l
010280 CB65                A   285    			bit 4,l
010282 CB6D                A   286    			bit 5,l
010284 CB75                A   287    			bit 6,l
010286 CB7D                A   288    			bit 7,l
                           A   289    			
010288 C4563412            A   290    			call nz,123456h
01028C CC563412            A   291    			call z,123456h
010290 D4563412            A   292    			call nc,123456h
010294 DC563412            A   293    			call c,123456h
010298 E4563412            A   294    			call po,123456h
01029C EC563412            A   295    			call pe,123456h
0102A0 F4563412            A   296    			call p,123456h
0102A4 FC563412            A   297    			call m,123456h
                           A   298    			
0102A8 49C43412            A   299    			call.is nz,1234h
0102AC 49CC3412            A   300    			call.is z,1234h
0102B0 49D43412            A   301    			call.is nc,1234h
0102B4 49DC3412            A   302    			call.is c,1234h
0102B8 49E43412            A   303    			call.is po,1234h
0102BC 49EC3412            A   304    			call.is pe,1234h
0102C0 49F43412            A   305    			call.is p,1234h
0102C4 49FC3412            A   306    			call.is m,1234h
                           A   307    			
0102C8 5BC45634 12         A   308    			call.il nz,123456h
0102CD 5BCC5634 12         A   309    			call.il z,123456h
0102D2 5BD45634 12         A   310    			call.il nc,123456h
0102D7 5BDC5634 12         A   311    			call.il c,123456h
0102DC 5BE45634 12         A   312    			call.il po,123456h
Zilog eZ80 Macro Assembler Version 4.1 (10060805)11-Jul-11     16:26:24     page:   7


PC     Object              I  Line    Source E:\MY_OWN~1\Coding\ez80p\Code\PROSEB~1\Phil\tests\opcodes\source\opcodes.asm
0102E1 5BEC5634 12         A   313    			call.il pe,123456h
0102E6 5BF45634 12         A   314    			call.il p,123456h
0102EB 5BFC5634 12         A   315    			call.il m,123456h
                           A   316    			
0102F0 CD563412            A   317    			call 123456h
0102F4 49CD3412            A   318    			call.is 1234h
0102F8 5BCD5634 12         A   319    			call.il 123456h
                           A   320    			
0102FD 3F                  A   321    			ccf
                           A   322    			
0102FE BE                  A   323    			cp a,(hl)
0102FF DDBD                A   324    			cp a,ixl
010301 DDBC                A   325    			cp a,ixh
010303 FDBD                A   326    			cp a,iyl
010305 FDBC                A   327    			cp a,iyh
                           A   328    			
010307 DDBE55              A   329    			cp a,(ix+55h)
01030A 52DDBE55            A   330    			cp.s a,(ix+55h)
01030E 5BDDBE55            A   331    			cp.l a,(ix+55h)
                           A   332    			
010312 FDBE55              A   333    			cp a,(iy+55h)
010315 52FDBE55            A   334    			cp.s a,(iy+55h)
010319 5BFDBE55            A   335    			cp.l a,(iy+55h)
                           A   336    			
01031D FEAA                A   337    			cp a,0aah
01031F BF                  A   338    			cp a,a
010320 B8                  A   339    			cp a,b
010321 B9                  A   340    			cp a,c
010322 BA                  A   341    			cp a,d
010323 BB                  A   342    			cp a,e
010324 BC                  A   343    			cp a,h
010325 BD                  A   344    			cp a,l
                           A   345    			
010326 EDA9                A   346    			cpd
010328 EDB9                A   347    			cpdr
01032A EDA1                A   348    			cpi
01032C EDB1                A   349    			cpir
01032E 52EDA9              A   350    			cpd.s
010331 52EDB9              A   351    			cpdr.s
010334 52EDA1              A   352    			cpi.s
010337 52EDB1              A   353    			cpir.s
01033A 5BEDA9              A   354    			cpd.l
01033D 5BEDB9              A   355    			cpdr.l
010340 5BEDA1              A   356    			cpi.l
010343 5BEDB1              A   357    			cpir.l
                           A   358    			
010346 2F                  A   359    			cpl
                           A   360    						
010347 27                  A   361    			daa
                           A   362    			
010348 35                  A   363    			dec (hl)
010349 5235                A   364    			dec.s (hl)
Zilog eZ80 Macro Assembler Version 4.1 (10060805)11-Jul-11     16:26:24     page:   8


PC     Object              I  Line    Source E:\MY_OWN~1\Coding\ez80p\Code\PROSEB~1\Phil\tests\opcodes\source\opcodes.asm
01034B 5B35                A   365    			dec.l (hl)
                           A   366    			
01034D DD2D                A   367    			dec ixl
01034F DD25                A   368    			dec ixh
010351 FD2D                A   369    			dec iyl
010353 FD25                A   370    			dec iyh
                           A   371    			
010355 DD2B                A   372    			dec ix
010357 52DD2B              A   373    			dec.s ix
01035A 5BDD2B              A   374    			dec.l ix
                           A   375    			
01035D FD2B                A   376    			dec iy
01035F 52FD2B              A   377    			dec.s iy
010362 5BFD2B              A   378    			dec.l iy
                           A   379    			
010365 DD3555              A   380    			dec (ix+55h)
010368 52DD3555            A   381    			dec.s (ix+55h)
01036C 5BDD3555            A   382    			dec.l (ix+55h)
                           A   383    			
010370 FD3555              A   384    			dec (iy+55h)
010373 52FD3555            A   385    			dec.s (iy+55h)
010377 5BFD3555            A   386    			dec.l (iy+55h)
                           A   387    			
01037B 3D                  A   388    			dec a
01037C 05                  A   389    			dec b
01037D 0D                  A   390    			dec c
01037E 15                  A   391    			dec d
01037F 1D                  A   392    			dec e
010380 25                  A   393    			dec h
010381 2D                  A   394    			dec l
                           A   395    			
010382 0B                  A   396    			dec bc
010383 520B                A   397    			dec.s bc
010385 5B0B                A   398    			dec.l bc
                           A   399    			
010387 1B                  A   400    			dec de
010388 521B                A   401    			dec.s de
01038A 5B1B                A   402    			dec.l de
                           A   403    			
01038C 2B                  A   404    			dec hl
01038D 522B                A   405    			dec.s hl
01038F 5B2B                A   406    			dec.l hl
                           A   407    			
010391 3B                  A   408    			dec sp
010392 523B                A   409    			dec.s sp
010394 5B3B                A   410    			dec.l sp
                           A   411    			
010396 F3                  A   412    lp1			di
                           A   413    
010397 10 FD               A   414    			djnz lp1
                           A   415    			
010399 FB                  A   416    			ei
Zilog eZ80 Macro Assembler Version 4.1 (10060805)11-Jul-11     16:26:24     page:   9


PC     Object              I  Line    Source E:\MY_OWN~1\Coding\ez80p\Code\PROSEB~1\Phil\tests\opcodes\source\opcodes.asm
                           A   417    			
01039A 08                  A   418    			ex af,af'
01039B EB                  A   419    			ex de,hl
01039C E3                  A   420    			ex (sp),hl
01039D 52E3                A   421    			ex.s (sp),hl
01039F 5BE3                A   422    			ex.l (sp),hl
                           A   423    			
0103A1 DDE3                A   424    			ex (sp),ix
0103A3 52DDE3              A   425    			ex.s (sp),ix
0103A6 5BDDE3              A   426    			ex.l (sp),ix
0103A9 FDE3                A   427    			ex (sp),iy
0103AB 52FDE3              A   428    			ex.s (sp),iy
0103AE 5BFDE3              A   429    			ex.l (sp),iy
                           A   430    			
0103B1 D9                  A   431    			exx
                           A   432    			
0103B2 76                  A   433    			halt
                           A   434    			
0103B3 ED46                A   435    			im 0
                           A   436    			
0103B5 ED56                A   437    			im 1
                           A   438    			
0103B7 ED5E                A   439    			im 2
                           A   440    			
0103B9 DB55                A   441    			in a,(55h)
                           A   442    			
0103BB ED78                A   443    			in a,(bc)
0103BD ED40                A   444    			in b,(bc)
0103BF ED48                A   445    			in c,(bc)
0103C1 ED50                A   446    			in d,(bc)
0103C3 ED58                A   447    			in e,(bc)
0103C5 ED60                A   448    			in h,(bc)
0103C7 ED68                A   449    			in l,(bc)
                           A   450    			
0103C9 ED3855              A   451    			in0 a,(55h)
0103CC ED0055              A   452    			in0 b,(55h)
0103CF ED0855              A   453    			in0 c,(55h)
0103D2 ED1055              A   454    			in0 d,(55h)
0103D5 ED1855              A   455    			in0 e,(55h)
0103D8 ED2055              A   456    			in0 h,(55h)
0103DB ED2855              A   457    			in0 l,(55h)
                           A   458    			
0103DE 34                  A   459    			inc (hl)
0103DF 5234                A   460    			inc.s (hl)
0103E1 5B34                A   461    			inc.l (hl)
                           A   462    			
0103E3 DD2C                A   463    			inc ixl
0103E5 DD24                A   464    			inc ixh
0103E7 FD2C                A   465    			inc iyl
0103E9 FD24                A   466    			inc iyh
                           A   467    			
0103EB DD23                A   468    			inc ix
Zilog eZ80 Macro Assembler Version 4.1 (10060805)11-Jul-11     16:26:24     page:  10


PC     Object              I  Line    Source E:\MY_OWN~1\Coding\ez80p\Code\PROSEB~1\Phil\tests\opcodes\source\opcodes.asm
0103ED 52DD23              A   469    			inc.s ix
0103F0 5BDD23              A   470    			inc.l ix
                           A   471    			
0103F3 FD23                A   472    			inc iy
0103F5 52FD23              A   473    			inc.s iy
0103F8 5BFD23              A   474    			inc.l iy
                           A   475    			
0103FB DD3455              A   476    			inc (ix+55h)
0103FE 52DD3455            A   477    			inc.s (ix+55h)
010402 5BDD3455            A   478    			inc.l (ix+55h)
                           A   479    			
010406 FD3455              A   480    			inc (iy+55h)
010409 52FD3455            A   481    			inc.s (iy+55h)
01040D 5BFD3455            A   482    			inc.l (iy+55h)
                           A   483    			
010411 3C                  A   484    			inc a
010412 04                  A   485    			inc b
010413 0C                  A   486    			inc c
010414 14                  A   487    			inc d
010415 1C                  A   488    			inc e
010416 24                  A   489    			inc h
010417 2C                  A   490    			inc l
                           A   491    			
010418 03                  A   492    			inc bc
010419 5203                A   493    			inc.s bc
01041B 5B03                A   494    			inc.l bc
                           A   495    			
01041D 13                  A   496    			inc de
01041E 5213                A   497    			inc.s de
010420 5B13                A   498    			inc.l de
                           A   499    			
010422 23                  A   500    			inc hl
010423 5223                A   501    			inc.s hl
010425 5B23                A   502    			inc.l hl
                           A   503    			
010427 33                  A   504    			inc sp
010428 5233                A   505    			inc.s sp
01042A 5B33                A   506    			inc.l sp
                           A   507    			
                           A   508    			
01042C EDAA                A   509    			ind
01042E ED8C                A   510    			ind2
010430 ED9C                A   511    			ind2r
010432 ED8A                A   512    			indm
010434 ED9A                A   513    			indmr
010436 EDBA                A   514    			indr
010438 EDCA                A   515    			indrx
01043A EDA2                A   516    			ini
01043C ED84                A   517    			ini2
01043E ED94                A   518    			ini2r
010440 ED82                A   519    			inim
010442 ED92                A   520    			inimr
Zilog eZ80 Macro Assembler Version 4.1 (10060805)11-Jul-11     16:26:24     page:  11


PC     Object              I  Line    Source E:\MY_OWN~1\Coding\ez80p\Code\PROSEB~1\Phil\tests\opcodes\source\opcodes.asm
010444 EDB2                A   521    			inir
010446 EDC2                A   522    			inirx
                           A   523    
010448 52EDAA              A   524    			ind.s
01044B 52ED8C              A   525    			ind2.s
01044E 52ED9C              A   526    			ind2r.s
010451 52ED8A              A   527    			indm.s
010454 52ED9A              A   528    			indmr.s
010457 52EDBA              A   529    			indr.s
01045A 52EDCA              A   530    			indrx.s
01045D 52EDA2              A   531    			ini.s
010460 52ED84              A   532    			ini2.s
010463 52ED94              A   533    			ini2r.s
010466 52ED82              A   534    			inim.s
010469 52ED92              A   535    			inimr.s
01046C 52EDB2              A   536    			inir.s
01046F 52EDC2              A   537    			inirx.s
                           A   538    
010472 5BEDAA              A   539    			ind.l
010475 5BED8C              A   540    			ind2.l
010478 5BED9C              A   541    			ind2r.l
01047B 5BED8A              A   542    			indm.l
01047E 5BED9A              A   543    			indmr.l
010481 5BEDBA              A   544    			indr.l
010484 5BEDCA              A   545    			indrx.l
010487 5BEDA2              A   546    			ini.l
01048A 5BED84              A   547    			ini2.l
01048D 5BED94              A   548    			ini2r.l
010490 5BED82              A   549    			inim.l
010493 5BED92              A   550    			inimr.l
010496 5BEDB2              A   551    			inir.l
010499 5BEDC2              A   552    			inirx.l
                           A   553    
01049C C2563412            A   554    			jp nz,123456h
0104A0 CA563412            A   555    			jp z,123456h
0104A4 D2563412            A   556    			jp nc,123456h
0104A8 DA563412            A   557    			jp c,123456h
0104AC E2563412            A   558    			jp po,123456h
0104B0 EA563412            A   559    			jp pe,123456h
0104B4 F2563412            A   560    			jp p,123456h
0104B8 FA563412            A   561    			jp m,123456h
                           A   562    
0104BC 40C23412            A   563    			jp.sis nz,1234h
0104C0 40CA3412            A   564    			jp.sis z,1234h
0104C4 40D23412            A   565    			jp.sis nc,1234h
0104C8 40DA3412            A   566    			jp.sis c,1234h
0104CC 40E23412            A   567    			jp.sis po,1234h
0104D0 40EA3412            A   568    			jp.sis pe,1234h
0104D4 40F23412            A   569    			jp.sis p,1234h
0104D8 40FA3412            A   570    			jp.sis m,1234h
                           A   571    
0104DC 5BC25634 12         A   572    			jp.lil nz,123456h
Zilog eZ80 Macro Assembler Version 4.1 (10060805)11-Jul-11     16:26:24     page:  12


PC     Object              I  Line    Source E:\MY_OWN~1\Coding\ez80p\Code\PROSEB~1\Phil\tests\opcodes\source\opcodes.asm
0104E1 5BCA5634 12         A   573    			jp.lil z,123456h
0104E6 5BD25634 12         A   574    			jp.lil nc,123456h
0104EB 5BDA5634 12         A   575    			jp.lil c,123456h
0104F0 5BE25634 12         A   576    			jp.lil po,123456h
0104F5 5BEA5634 12         A   577    			jp.lil pe,123456h
0104FA 5BF25634 12         A   578    			jp.lil p,123456h
0104FF 5BFA5634 12         A   579    			jp.lil m,123456h
                           A   580    
010504 C3563412            A   581    			jp 123456h
010508 40C33412            A   582    			jp.sis 1234h
01050C 5BC35634 12         A   583    			jp.lil 123456h
                           A   584    			
010511 E9                  A   585    			jp (hl)
010512 52E9                A   586    			jp.s (hl)
010514 5BE9                A   587    			jp.l (hl)
                           A   588    			
010516 DDE9                A   589    			jp (ix)
010518 52DDE9              A   590    			jp.s (ix)
01051B 5BDDE9              A   591    			jp.l (ix)
                           A   592    			
01051E FDE9                A   593    			jp (iy)
010520 52FDE9              A   594    			jp.s (iy)
010523 5BFDE9              A   595    			jp.l (iy)
                           A   596    			
010526 18 FE               A   597    here		jr here
010528 28 FC               A   598    			jr z,here
01052A 20 FA               A   599    			jr nz,here
01052C 38 F8               A   600    			jr c,here
01052E 30 F6               A   601    			jr nc,here
                           A   602    			
010530 ED57                A   603    			ld a,i
                           A   604    			
010532 DD7E55              A   605    			ld a,(ix+55h)
010535 52DD7E55            A   606    			ld.s a,(ix+55h)
010539 5BDD7E55            A   607    			ld.l a,(ix+55h)
                           A   608    			
01053D FD7E55              A   609    			ld a,(iy+55h)
010540 52FD7E55            A   610    			ld.s a,(iy+55h)
010544 5BFD7E55            A   611    			ld.l a,(iy+55h)
                           A   612    			
010548 ED6E                A   613    			ld a,mb
                           A   614    			
01054A 3A563412            A   615    			ld a,(123456h)
01054E 403A3412            A   616    			ld.sis a,(1234h)
010552 5B3A5634 12         A   617    			ld.lil a,(123456h)
                           A   618    			
010557 ED5F                A   619    			ld a,r
                           A   620    			
010559 0A                  A   621    			ld a,(bc)
01055A 520A                A   622    			ld.s a,(bc)
01055C 5B0A                A   623    			ld.l a,(bc)
01055E 1A                  A   624    			ld a,(de)
Zilog eZ80 Macro Assembler Version 4.1 (10060805)11-Jul-11     16:26:24     page:  13


PC     Object              I  Line    Source E:\MY_OWN~1\Coding\ez80p\Code\PROSEB~1\Phil\tests\opcodes\source\opcodes.asm
01055F 521A                A   625    			ld.s a,(de)
010561 5B1A                A   626    			ld.l a,(de)
010563 7E                  A   627    			ld a,(hl)
010564 527E                A   628    			ld.s a,(hl)
010566 5B7E                A   629    			ld.l a,(hl)
                           A   630    			
010568 ED3F                A   631    			ld (hl),ix
01056A 52ED3F              A   632    			ld.s (hl),ix
01056D 5BED3F              A   633    			ld.l (hl),ix
010570 ED3E                A   634    			ld (hl),iy
010572 52ED3E              A   635    			ld.s (hl),iy
010575 5BED3E              A   636    			ld.l (hl),iy
                           A   637    			
010578 36AA                A   638    			ld (hl),0aah
                           A   639    			
01057A 77                  A   640    			ld (hl),a
01057B 70                  A   641    			ld (hl),b
01057C 71                  A   642    			ld (hl),c
01057D 72                  A   643    			ld (hl),d
01057E 73                  A   644    			ld (hl),e
01057F 74                  A   645    			ld (hl),h
010580 75                  A   646    			ld (hl),l
                           A   647    			
010581 5277                A   648    			ld.s (hl),a
010583 5270                A   649    			ld.s (hl),b
010585 5271                A   650    			ld.s (hl),c
010587 5272                A   651    			ld.s (hl),d
010589 5273                A   652    			ld.s (hl),e
01058B 5274                A   653    			ld.s (hl),h
01058D 5275                A   654    			ld.s (hl),l
                           A   655    			
01058F 5B77                A   656    			ld.l (hl),a
010591 5B70                A   657    			ld.l (hl),b
010593 5B71                A   658    			ld.l (hl),c
010595 5B72                A   659    			ld.l (hl),d
010597 5B73                A   660    			ld.l (hl),e
010599 5B74                A   661    			ld.l (hl),h
01059B 5B75                A   662    			ld.l (hl),l
                           A   663    			
01059D ED0F                A   664    			ld (hl),bc
01059F ED1F                A   665    			ld (hl),de
0105A1 ED2F                A   666    			ld (hl),hl
0105A3 52ED0F              A   667    			ld.s (hl),bc
0105A6 52ED1F              A   668    			ld.s (hl),de
0105A9 52ED2F              A   669    			ld.s (hl),hl
0105AC 5BED0F              A   670    			ld.l (hl),bc
0105AF 5BED1F              A   671    			ld.l (hl),de
0105B2 5BED2F              A   672    			ld.l (hl),hl
                           A   673    			
0105B5 ED47                A   674    			ld i,a
                           A   675    			
0105B7 DD6D                A   676    			ld ixl,ixl
Zilog eZ80 Macro Assembler Version 4.1 (10060805)11-Jul-11     16:26:24     page:  14


PC     Object              I  Line    Source E:\MY_OWN~1\Coding\ez80p\Code\PROSEB~1\Phil\tests\opcodes\source\opcodes.asm
0105B9 DD6C                A   677    			ld ixl,ixh
0105BB DD65                A   678    			ld ixh,ixl
0105BD DD64                A   679    			ld ixh,ixh
                           A   680    			
0105BF FD6D                A   681    			ld iyl,iyl
0105C1 FD6C                A   682    			ld iyl,iyh
0105C3 FD65                A   683    			ld iyh,iyl
0105C5 FD64                A   684    			ld iyh,iyh
                           A   685    			
0105C7 DD2E55              A   686    			ld ixl,55h
0105CA DD2655              A   687    			ld ixh,55h
0105CD FD2E55              A   688    			ld iyl,55h
0105D0 FD2655              A   689    			ld iyh,55h
                           A   690    			
0105D3 DD6F                A   691    			ld ixl,a
0105D5 DD68                A   692    			ld ixl,b
0105D7 DD69                A   693    			ld ixl,c
0105D9 DD6A                A   694    			ld ixl,d
0105DB DD6B                A   695    			ld ixl,e
0105DD DD67                A   696    			ld ixh,a
0105DF DD60                A   697    			ld ixh,b
0105E1 DD61                A   698    			ld ixh,c
0105E3 DD62                A   699    			ld ixh,d
0105E5 DD63                A   700    			ld ixh,e
                           A   701    			
0105E7 FD6F                A   702    			ld iyl,a
0105E9 FD68                A   703    			ld iyl,b
0105EB FD69                A   704    			ld iyl,c
0105ED FD6A                A   705    			ld iyl,d
0105EF FD6B                A   706    			ld iyl,e
0105F1 FD67                A   707    			ld iyh,a
0105F3 FD60                A   708    			ld iyh,b
0105F5 FD61                A   709    			ld iyh,c
0105F7 FD62                A   710    			ld iyh,d
0105F9 FD63                A   711    			ld iyh,e
                           A   712    			
0105FB ED37                A   713    			ld ix,(hl)
0105FD 52ED37              A   714    			ld.s ix,(hl)
010600 5BED37              A   715    			ld.l ix,(hl)
010603 ED31                A   716    			ld iy,(hl)
010605 52ED31              A   717    			ld.s iy,(hl)
010608 5BED31              A   718    			ld.l iy,(hl)
                           A   719    			
01060B DD3755              A   720    			ld ix,(ix+55h)
01060E 52DD3755            A   721    			ld.s ix,(ix+55h)
010612 5BDD3755            A   722    			ld.l ix,(ix+55h)
010616 DD3155              A   723    			ld iy,(ix+55h)
010619 52DD3155            A   724    			ld.s iy,(ix+55h)
01061D 5BDD3155            A   725    			ld.l iy,(ix+55h)
010621 FD3155              A   726    			ld ix,(iy+55h)
010624 52FD3155            A   727    			ld.s ix,(iy+55h)
010628 5BFD3155            A   728    			ld.l ix,(iy+55h)
Zilog eZ80 Macro Assembler Version 4.1 (10060805)11-Jul-11     16:26:24     page:  15


PC     Object              I  Line    Source E:\MY_OWN~1\Coding\ez80p\Code\PROSEB~1\Phil\tests\opcodes\source\opcodes.asm
01062C FD3755              A   729    			ld iy,(iy+55h)
01062F 52FD3755            A   730    			ld.s iy,(iy+55h)
010633 5BFD3755            A   731    			ld.l iy,(iy+55h)
                           A   732    			
010637 DD215634 12         A   733    			ld ix,123456h
01063C 40DD2134 12         A   734    			ld.sis ix,1234h
010641 5BDD2156 3412       A   735    			ld.lil ix,123456h
                           A   736    			
010647 FD215634 12         A   737    			ld iy,123456h
01064C 40FD2134 12         A   738    			ld.sis iy,1234h
010651 5BFD2156 3412       A   739    			ld.lil iy,123456h
                           A   740    			
010657 DD2A5634 12         A   741    			ld ix,(123456h)
01065C 40DD2A34 12         A   742    			ld.sis ix,(1234h)
010661 5BDD2A56 3412       A   743    			ld.lil ix,(123456h)
                           A   744    			
010667 FD2A5634 12         A   745    			ld iy,(123456h)
01066C 40FD2A34 12         A   746    			ld.sis iy,(1234h)
010671 5BFD2A56 3412       A   747    			ld.lil iy,(123456h)
                           A   748    			
010677 DD3F55              A   749    			ld (ix+55h),ix
01067A 52DD3F55            A   750    			ld.s (ix+55h),ix
01067E 5BDD3F55            A   751    			ld.l (ix+55h),ix
010682 DD3E55              A   752    			ld (ix+55h),iy
010685 52DD3E55            A   753    			ld.s (ix+55h),iy
010689 5BDD3E55            A   754    			ld.l (ix+55h),iy
                           A   755    			
01068D FD3E55              A   756    			ld (iy+55h),ix
010690 52FD3E55            A   757    			ld.s (iy+55h),ix
010694 5BFD3E55            A   758    			ld.l (iy+55h),ix
010698 FD3F55              A   759    			ld (iy+55h),iy
01069B 52FD3F55            A   760    			ld.s (iy+55h),iy
01069F 5BFD3F55            A   761    			ld.l (iy+55h),iy
                           A   762    			
0106A3 DD365512            A   763    			ld (ix+55h),12h
0106A7 52DD3655 12         A   764    			ld.s (ix+55h),12h
0106AC 5BDD3655 12         A   765    			ld.l (ix+55h),12h
0106B1 FD365512            A   766    			ld (iy+55h),12h
0106B5 52FD3655 12         A   767    			ld.s (iy+55h),12h
0106BA 5BFD3655 12         A   768    			ld.l (iy+55h),12h
                           A   769    			
0106BF DD7755              A   770    			ld (ix+55h),a
0106C2 52DD7755            A   771    			ld.s (ix+55h),a
0106C6 5BDD7755            A   772    			ld.l (ix+55h),a
0106CA DD7055              A   773    			ld (ix+55h),b
0106CD 52DD7055            A   774    			ld.s (ix+55h),b
0106D1 5BDD7055            A   775    			ld.l (ix+55h),b
0106D5 DD7155              A   776    			ld (ix+55h),c
0106D8 52DD7155            A   777    			ld.s (ix+55h),c
0106DC 5BDD7155            A   778    			ld.l (ix+55h),c
0106E0 DD7255              A   779    			ld (ix+55h),d
0106E3 52DD7255            A   780    			ld.s (ix+55h),d
Zilog eZ80 Macro Assembler Version 4.1 (10060805)11-Jul-11     16:26:24     page:  16


PC     Object              I  Line    Source E:\MY_OWN~1\Coding\ez80p\Code\PROSEB~1\Phil\tests\opcodes\source\opcodes.asm
0106E7 5BDD7255            A   781    			ld.l (ix+55h),d
0106EB DD7355              A   782    			ld (ix+55h),e
0106EE 52DD7355            A   783    			ld.s (ix+55h),e
0106F2 5BDD7355            A   784    			ld.l (ix+55h),e
0106F6 DD7455              A   785    			ld (ix+55h),h
0106F9 52DD7455            A   786    			ld.s (ix+55h),h
0106FD 5BDD7455            A   787    			ld.l (ix+55h),h
010701 DD7555              A   788    			ld (ix+55h),l
010704 52DD7555            A   789    			ld.s (ix+55h),l
010708 5BDD7555            A   790    			ld.l (ix+55h),l
                           A   791    			
01070C FD7755              A   792    			ld (iy+55h),a
01070F 52FD7755            A   793    			ld.s (iy+55h),a
010713 5BFD7755            A   794    			ld.l (iy+55h),a
010717 FD7055              A   795    			ld (iy+55h),b
01071A 52FD7055            A   796    			ld.s (iy+55h),b
01071E 5BFD7055            A   797    			ld.l (iy+55h),b
010722 FD7155              A   798    			ld (iy+55h),c
010725 52FD7155            A   799    			ld.s (iy+55h),c
010729 5BFD7155            A   800    			ld.l (iy+55h),c
01072D FD7255              A   801    			ld (iy+55h),d
010730 52FD7255            A   802    			ld.s (iy+55h),d
010734 5BFD7255            A   803    			ld.l (iy+55h),d
010738 FD7355              A   804    			ld (iy+55h),e
01073B 52FD7355            A   805    			ld.s (iy+55h),e
01073F 5BFD7355            A   806    			ld.l (iy+55h),e
010743 FD7455              A   807    			ld (iy+55h),h
010746 52FD7455            A   808    			ld.s (iy+55h),h
01074A 5BFD7455            A   809    			ld.l (iy+55h),h
01074E FD7555              A   810    			ld (iy+55h),l
010751 52FD7555            A   811    			ld.s (iy+55h),l
010755 5BFD7555            A   812    			ld.l (iy+55h),l
                           A   813    			
010759 DD0F55              A   814    			ld (ix+55h),bc
01075C 52DD0F55            A   815    			ld.s (ix+55h),bc
010760 5BDD0F55            A   816    			ld.l (ix+55h),bc
010764 DD1F55              A   817    			ld (ix+55h),de
010767 52DD1F55            A   818    			ld.s (ix+55h),de
01076B 5BDD1F55            A   819    			ld.l (ix+55h),de
01076F DD2F55              A   820    			ld (ix+55h),hl
010772 52DD2F55            A   821    			ld.s (ix+55h),hl
010776 5BDD2F55            A   822    			ld.l (ix+55h),hl
                           A   823    			
01077A FD0F55              A   824    			ld (iy+55h),bc
01077D 52FD0F55            A   825    			ld.s (iy+55h),bc
010781 5BFD0F55            A   826    			ld.l (iy+55h),bc
010785 FD1F55              A   827    			ld (iy+55h),de
010788 52FD1F55            A   828    			ld.s (iy+55h),de
01078C 5BFD1F55            A   829    			ld.l (iy+55h),de
010790 FD2F55              A   830    			ld (iy+55h),hl
010793 52FD2F55            A   831    			ld.s (iy+55h),hl
010797 5BFD2F55            A   832    			ld.l (iy+55h),hl
Zilog eZ80 Macro Assembler Version 4.1 (10060805)11-Jul-11     16:26:24     page:  17


PC     Object              I  Line    Source E:\MY_OWN~1\Coding\ez80p\Code\PROSEB~1\Phil\tests\opcodes\source\opcodes.asm
                           A   833    			
01079B ED6D                A   834    			ld mb,a
                           A   835    			
01079D 32563412            A   836    			ld (123456h),a
0107A1 49323412            A   837    			ld.is (1234h),a
0107A5 5B325634 12         A   838    			ld.il (123456h),a
                           A   839    			
0107AA DD225634 12         A   840    			ld (123456h),ix
0107AF 40DD2234 12         A   841    			ld.sis (1234h),ix
0107B4 5BDD2256 3412       A   842    			ld.lil (123456h),ix
0107BA FD225634 12         A   843    			ld (123456h),iy
0107BF 40FD2234 12         A   844    			ld.sis (1234h),iy
0107C4 5BFD2256 3412       A   845    			ld.lil (123456h),iy
                           A   846    			
0107CA ED435634 12         A   847    			ld (123456h),bc
0107CF 40ED4334 12         A   848    			ld.sis (1234h),bc
0107D4 5BED4356 3412       A   849    			ld.lil (123456h),bc
0107DA ED535634 12         A   850    			ld (123456h),de
0107DF 40ED5334 12         A   851    			ld.sis (1234h),de
0107E4 5BED5356 3412       A   852    			ld.lil (123456h),de
0107EA 22563412            A   853    			ld (123456h),hl
0107EE 40223412            A   854    			ld.sis (1234h),hl
0107F2 5B225634 12         A   855    			ld.lil (123456h),hl
                           A   856    			
0107F7 ED735634 12         A   857    			ld (123456h),sp
0107FC 40ED7334 12         A   858    			ld.sis (1234h),sp
010801 5BED7356 3412       A   859    			ld.lil (123456h),sp
                           A   860    			
010807 ED4F                A   861    			ld r,a
                           A   862    			
010809 7E                  A   863    			ld a,(hl)
01080A 46                  A   864    			ld b,(hl)
01080B 4E                  A   865    			ld c,(hl)
01080C 56                  A   866    			ld d,(hl)
01080D 5E                  A   867    			ld e,(hl)
01080E 66                  A   868    			ld h,(hl)
01080F 6E                  A   869    			ld l,(hl)
                           A   870    			
                           A   871    ;			ld.s a,(hl)
                           A   872    ;			ld.s b,(hl)
                           A   873    ;			ld.s c,(hl)
                           A   874    ;			ld.s d,(hl)
                           A   875    ;			ld.s e,(hl)
                           A   876    ;			ld.s h,(hl)
                           A   877    ;			ld.s l,(hl)
                           A   878    					
                           A   879    ;			ld.l a,(hl)
                           A   880    ;			ld.l b,(hl)
                           A   881    ;			ld.l c,(hl)
                           A   882    ;			ld.l d,(hl)
                           A   883    ;			ld.l e,(hl)
                           A   884    ;			ld.l h,(hl)
Zilog eZ80 Macro Assembler Version 4.1 (10060805)11-Jul-11     16:26:24     page:  18


PC     Object              I  Line    Source E:\MY_OWN~1\Coding\ez80p\Code\PROSEB~1\Phil\tests\opcodes\source\opcodes.asm
                           A   885    ;			ld.l l,(hl)
                           A   886    
010810 DD7D                A   887    			ld a,ixl
010812 DD45                A   888    			ld b,ixl
010814 DD4D                A   889    			ld c,ixl
010816 DD55                A   890    			ld d,ixl
010818 DD5D                A   891    			ld e,ixl
01081A DD7C                A   892    			ld a,ixh
01081C DD44                A   893    			ld b,ixh
01081E DD4C                A   894    			ld c,ixh
010820 DD54                A   895    			ld d,ixh
010822 DD5C                A   896    			ld e,ixh
                           A   897    			
010824 FD7D                A   898    			ld a,iyl
010826 FD45                A   899    			ld b,iyl
010828 FD4D                A   900    			ld c,iyl
01082A FD55                A   901    			ld d,iyl
01082C FD5D                A   902    			ld e,iyl
01082E FD7C                A   903    			ld a,iyh
010830 FD44                A   904    			ld b,iyh
010832 FD4C                A   905    			ld c,iyh
010834 FD54                A   906    			ld d,iyh
010836 FD5C                A   907    			ld e,iyh
                           A   908    			
010838 DD7E55              A   909    			ld a,(ix+55h)
01083B 52DD7E55            A   910    			ld.s a,(ix+55h)
01083F 5BDD7E55            A   911    			ld.l a,(ix+55h)
010843 DD4655              A   912    			ld b,(ix+55h)
010846 52DD4655            A   913    			ld.s b,(ix+55h)
01084A 5BDD4655            A   914    			ld.l b,(ix+55h)
01084E DD4E55              A   915    			ld c,(ix+55h)
010851 52DD4E55            A   916    			ld.s c,(ix+55h)
010855 5BDD4E55            A   917    			ld.l c,(ix+55h)
010859 DD5655              A   918    			ld d,(ix+55h)
01085C 52DD5655            A   919    			ld.s d,(ix+55h)
010860 5BDD5655            A   920    			ld.l d,(ix+55h)
010864 DD5E55              A   921    			ld e,(ix+55h)
010867 52DD5E55            A   922    			ld.s e,(ix+55h)
01086B 5BDD5E55            A   923    			ld.l e,(ix+55h)
01086F DD6655              A   924    			ld h,(ix+55h)
010872 52DD6655            A   925    			ld.s h,(ix+55h)
010876 5BDD6655            A   926    			ld.l h,(ix+55h)
01087A DD6E55              A   927    			ld l,(ix+55h)
01087D 52DD6E55            A   928    			ld.s l,(ix+55h)
010881 5BDD6E55            A   929    			ld.l l,(ix+55h)
                           A   930    			
010885 FD7E55              A   931    			ld a,(iy+55h)
010888 52FD7E55            A   932    			ld.s a,(iy+55h)
01088C 5BFD7E55            A   933    			ld.l a,(iy+55h)
010890 FD4655              A   934    			ld b,(iy+55h)
010893 52FD4655            A   935    			ld.s b,(iy+55h)
010897 5BFD4655            A   936    			ld.l b,(iy+55h)
Zilog eZ80 Macro Assembler Version 4.1 (10060805)11-Jul-11     16:26:24     page:  19


PC     Object              I  Line    Source E:\MY_OWN~1\Coding\ez80p\Code\PROSEB~1\Phil\tests\opcodes\source\opcodes.asm
01089B FD4E55              A   937    			ld c,(iy+55h)
01089E 52FD4E55            A   938    			ld.s c,(iy+55h)
0108A2 5BFD4E55            A   939    			ld.l c,(iy+55h)
0108A6 FD5655              A   940    			ld d,(iy+55h)
0108A9 52FD5655            A   941    			ld.s d,(iy+55h)
0108AD 5BFD5655            A   942    			ld.l d,(iy+55h)
0108B1 FD5E55              A   943    			ld e,(iy+55h)
0108B4 52FD5E55            A   944    			ld.s e,(iy+55h)
0108B8 5BFD5E55            A   945    			ld.l e,(iy+55h)
0108BC FD6655              A   946    			ld h,(iy+55h)
0108BF 52FD6655            A   947    			ld.s h,(iy+55h)
0108C3 5BFD6655            A   948    			ld.l h,(iy+55h)
0108C7 FD6E55              A   949    			ld l,(iy+55h)
0108CA 52FD6E55            A   950    			ld.s l,(iy+55h)
0108CE 5BFD6E55            A   951    			ld.l l,(iy+55h)
                           A   952    			
0108D2 3E12                A   953    			ld a,12h
0108D4 0612                A   954    			ld b,12h
0108D6 0E12                A   955    			ld c,12h
0108D8 1612                A   956    			ld d,12h
0108DA 1E12                A   957    			ld e,12h
0108DC 2612                A   958    			ld h,12h
0108DE 2E12                A   959    			ld l,12h
                           A   960    			
0108E0 78                  A   961    			ld a,b
0108E1 79                  A   962    			ld a,c
0108E2 7A                  A   963    			ld a,d
0108E3 7B                  A   964    			ld a,e
0108E4 7C                  A   965    			ld a,h
0108E5 7D                  A   966    			ld a,l
                           A   967    			
0108E6 47                  A   968    			ld b,a
0108E7 41                  A   969    			ld b,c
0108E8 42                  A   970    			ld b,d
0108E9 43                  A   971    			ld b,e
0108EA 44                  A   972    			ld b,h
0108EB 45                  A   973    			ld b,l
                           A   974    			
0108EC 4F                  A   975    			ld c,a
0108ED 48                  A   976    			ld c,b
0108EE 4A                  A   977    			ld c,d
0108EF 4B                  A   978    			ld c,e
0108F0 4C                  A   979    			ld c,h
0108F1 4D                  A   980    			ld c,l
                           A   981    			
0108F2 57                  A   982    			ld d,a
0108F3 50                  A   983    			ld d,b
0108F4 51                  A   984    			ld d,c
0108F5 53                  A   985    			ld d,e
0108F6 54                  A   986    			ld d,h
0108F7 55                  A   987    			ld d,l
                           A   988    			
Zilog eZ80 Macro Assembler Version 4.1 (10060805)11-Jul-11     16:26:24     page:  20


PC     Object              I  Line    Source E:\MY_OWN~1\Coding\ez80p\Code\PROSEB~1\Phil\tests\opcodes\source\opcodes.asm
0108F8 5F                  A   989    			ld e,a
0108F9 58                  A   990    			ld e,b
0108FA 59                  A   991    			ld e,c
0108FB 5A                  A   992    			ld e,d
0108FC 5C                  A   993    			ld e,h
0108FD 5D                  A   994    			ld e,l
                           A   995    			
0108FE 67                  A   996    			ld h,a
0108FF 60                  A   997    			ld h,b
010900 61                  A   998    			ld h,c
010901 62                  A   999    			ld h,d
010902 63                  A  1000    			ld h,e
010903 65                  A  1001    			ld h,l
                           A  1002    			
010904 6F                  A  1003    			ld l,a
010905 68                  A  1004    			ld l,b
010906 69                  A  1005    			ld l,c
010907 6A                  A  1006    			ld l,d
010908 6B                  A  1007    			ld l,e
010909 6C                  A  1008    			ld l,h
                           A  1009    			
01090A ED07                A  1010    			ld bc,(hl)
01090C 52ED07              A  1011    			ld.s bc,(hl)
01090F 5BED07              A  1012    			ld.l bc,(hl)
010912 ED17                A  1013    			ld de,(hl)
010914 52ED17              A  1014    			ld.s de,(hl)
010917 5BED17              A  1015    			ld.l de,(hl)
01091A ED27                A  1016    			ld hl,(hl)
01091C 52ED27              A  1017    			ld.s hl,(hl)
01091F 5BED27              A  1018    			ld.l hl,(hl)
                           A  1019    			
010922 DD0755              A  1020    			ld bc,(ix+55h)
010925 52DD0755            A  1021    			ld.s bc,(ix+55h)
010929 5BDD0755            A  1022    			ld.l bc,(ix+55h)
01092D DD1755              A  1023    			ld de,(ix+55h)
010930 52DD1755            A  1024    			ld.s de,(ix+55h)
010934 5BDD1755            A  1025    			ld.l de,(ix+55h)
010938 DD2755              A  1026    			ld hl,(ix+55h)
01093B 52DD2755            A  1027    			ld.s hl,(ix+55h)
01093F 5BDD2755            A  1028    			ld.l hl,(ix+55h)
                           A  1029    			
010943 FD0755              A  1030    			ld bc,(iy+55h)
010946 52FD0755            A  1031    			ld.s bc,(iy+55h)
01094A 5BFD0755            A  1032    			ld.l bc,(iy+55h)
01094E FD1755              A  1033    			ld de,(iy+55h)
010951 52FD1755            A  1034    			ld.s de,(iy+55h)
010955 5BFD1755            A  1035    			ld.l de,(iy+55h)
010959 FD2755              A  1036    			ld hl,(iy+55h)
01095C 52FD2755            A  1037    			ld.s hl,(iy+55h)
010960 5BFD2755            A  1038    			ld.l hl,(iy+55h)
                           A  1039    
010964 01563412            A  1040    			ld bc,123456h
Zilog eZ80 Macro Assembler Version 4.1 (10060805)11-Jul-11     16:26:24     page:  21


PC     Object              I  Line    Source E:\MY_OWN~1\Coding\ez80p\Code\PROSEB~1\Phil\tests\opcodes\source\opcodes.asm
010968 40013412            A  1041    			ld.sis bc,1234h
01096C 5B015634 12         A  1042    			ld.lil bc,123456h
010971 11563412            A  1043    			ld de,123456h
010975 40113412            A  1044    			ld.sis de,1234h
010979 5B115634 12         A  1045    			ld.lil de,123456h
01097E 21563412            A  1046    			ld hl,123456h
010982 40213412            A  1047    			ld.sis hl,1234h
010986 5B215634 12         A  1048    			ld.lil hl,123456h
                           A  1049    			
                           A  1050    
01098B ED4B5634 12         A  1051    			ld bc,(123456h)
010990 40ED4B34 12         A  1052    			ld.sis bc,(1234h)
010995 5BED4B56 3412       A  1053    			ld.lil bc,(123456h)
01099B ED5B5634 12         A  1054    			ld de,(123456h)
0109A0 40ED5B34 12         A  1055    			ld.sis de,(1234h)
0109A5 5BED5B56 3412       A  1056    			ld.lil de,(123456h)
0109AB 2A563412            A  1057    			ld hl,(123456h)
0109AF 402A3412            A  1058    			ld.sis hl,(1234h)
0109B3 5B2A5634 12         A  1059    			ld.lil hl,(123456h)
                           A  1060    			
0109B8 02                  A  1061    			ld (bc),a
0109B9 5202                A  1062    			ld.s (bc),a
0109BB 5B02                A  1063    			ld.l (bc),a
0109BD 12                  A  1064    			ld (de),a
0109BE 5212                A  1065    			ld.s (de),a
0109C0 5B12                A  1066    			ld.l (de),a
0109C2 77                  A  1067    			ld (hl),a
0109C3 5277                A  1068    			ld.s (hl),a
0109C5 5B77                A  1069    			ld.l (hl),a
                           A  1070    			
0109C7 F9                  A  1071    			ld sp,hl
0109C8 52F9                A  1072    			ld.s sp,hl
0109CA 5BF9                A  1073    			ld.l sp,hl
                           A  1074    			
0109CC DDF9                A  1075    			ld sp,ix
0109CE 52DDF9              A  1076    			ld.s sp,ix
0109D1 5BDDF9              A  1077    			ld.l sp,ix
0109D4 FDF9                A  1078    			ld sp,iy
0109D6 52FDF9              A  1079    			ld.s sp,iy
0109D9 5BFDF9              A  1080    			ld.l sp,iy
                           A  1081    			
0109DC 31563412            A  1082    			ld sp,123456h
0109E0 40313412            A  1083    			ld.sis sp,1234h
0109E4 5B315634 12         A  1084    			ld.lil sp,123456h
                           A  1085    			
0109E9 ED7B5634 12         A  1086    			ld sp,(123456h)
0109EE 40ED7B34 12         A  1087    			ld.sis sp,(1234h)
0109F3 5BED7B56 3412       A  1088    			ld.lil sp,(123456h)
                           A  1089    			
0109F9 EDA8                A  1090    			ldd
0109FB 52EDA8              A  1091    			ldd.s
0109FE 5BEDA8              A  1092    			ldd.l
Zilog eZ80 Macro Assembler Version 4.1 (10060805)11-Jul-11     16:26:24     page:  22


PC     Object              I  Line    Source E:\MY_OWN~1\Coding\ez80p\Code\PROSEB~1\Phil\tests\opcodes\source\opcodes.asm
010A01 EDB8                A  1093    			lddr
010A03 52EDB8              A  1094    			lddr.s
010A06 5BEDB8              A  1095    			lddr.l
010A09 EDA0                A  1096    			ldi
010A0B 52EDA0              A  1097    			ldi.s
010A0E 5BEDA0              A  1098    			ldi.l
010A11 EDB0                A  1099    			ldir
010A13 52EDB0              A  1100    			ldir.s
010A16 5BEDB0              A  1101    			ldir.l
                           A  1102    			
010A19 ED3255              A  1103    			lea ix,ix+55h
010A1C 52ED3255            A  1104    			lea.s ix,ix+55h
010A20 5BED3255            A  1105    			lea.l ix,ix+55h
010A24 ED5555              A  1106    			lea iy,ix+55h
010A27 52ED5555            A  1107    			lea.s iy,ix+55h
010A2B 5BED5555            A  1108    			lea.l iy,ix+55h
                           A  1109    			
010A2F ED5455              A  1110    			lea ix,iy+55h
010A32 52ED5455            A  1111    			lea.s ix,iy+55h
010A36 5BED5455            A  1112    			lea.l ix,iy+55h
010A3A ED3355              A  1113    			lea iy,iy+55h
010A3D 52ED3355            A  1114    			lea.s iy,iy+55h
010A41 5BED3355            A  1115    			lea.l iy,iy+55h
                           A  1116    			
010A45 ED0255              A  1117    			lea bc,ix+55h
010A48 52ED0255            A  1118    			lea.s bc,ix+55h
010A4C 5BED0255            A  1119    			lea.l bc,ix+55h
010A50 ED1255              A  1120    			lea de,ix+55h
010A53 52ED1255            A  1121    			lea.s de,ix+55h
010A57 5BED1255            A  1122    			lea.l de,ix+55h
010A5B ED2255              A  1123    			lea hl,ix+55h
010A5E 52ED2255            A  1124    			lea.s hl,ix+55h
010A62 5BED2255            A  1125    			lea.l hl,ix+55h
                           A  1126    			
010A66 ED0355              A  1127    			lea bc,iy+55h
010A69 52ED0355            A  1128    			lea.s bc,iy+55h
010A6D 5BED0355            A  1129    			lea.l bc,iy+55h
010A71 ED1355              A  1130    			lea de,iy+55h
010A74 52ED1355            A  1131    			lea.s de,iy+55h
010A78 5BED1355            A  1132    			lea.l de,iy+55h
010A7C ED2355              A  1133    			lea hl,iy+55h
010A7F 52ED2355            A  1134    			lea.s hl,iy+55h
010A83 5BED2355            A  1135    			lea.l hl,iy+55h
                           A  1136    			
010A87 ED4C                A  1137    			mlt bc
010A89 ED5C                A  1138    			mlt de
010A8B ED6C                A  1139    			mlt hl
010A8D ED7C                A  1140    			mlt sp
                           A  1141    			
010A8F ED44                A  1142    			neg
                           A  1143    			
010A91 00                  A  1144    			nop
Zilog eZ80 Macro Assembler Version 4.1 (10060805)11-Jul-11     16:26:24     page:  23


PC     Object              I  Line    Source E:\MY_OWN~1\Coding\ez80p\Code\PROSEB~1\Phil\tests\opcodes\source\opcodes.asm
                           A  1145    			
010A92 B6                  A  1146    			or a,(hl)
010A93 52B6                A  1147    			or.s a,(hl)
010A95 5BB6                A  1148    			or.l a,(hl)
                           A  1149    			
010A97 DDB5                A  1150    			or a,ixl
010A99 DDB4                A  1151    			or a,ixh
010A9B FDB5                A  1152    			or a,iyl
010A9D FDB4                A  1153    			or a,iyh
                           A  1154    			
010A9F DDB655              A  1155    			or a,(ix+55h)
010AA2 52DDB655            A  1156    			or.s a,(ix+55h)
010AA6 5BDDB655            A  1157    			or.l a,(ix+55h)
                           A  1158    			
010AAA FDB655              A  1159    			or a,(iy+55h)
010AAD 52FDB655            A  1160    			or.s a,(iy+55h)
010AB1 5BFDB655            A  1161    			or.l a,(iy+55h)
                           A  1162    			
010AB5 F6AA                A  1163    			or a,0aah
                           A  1164    			
010AB7 B7                  A  1165    			or a,a
010AB8 B0                  A  1166    			or a,b
010AB9 B1                  A  1167    			or a,c
010ABA B2                  A  1168    			or a,d
010ABB B3                  A  1169    			or a,e
010ABC B4                  A  1170    			or a,h
010ABD B5                  A  1171    			or a,l
                           A  1172    			
010ABE EDBC                A  1173    			otd2r
010AC0 ED8B                A  1174    			otdm
010AC2 ED9B                A  1175    			otdmr
010AC4 EDBB                A  1176    			otdr
010AC6 EDCB                A  1177    			otdrx
010AC8 EDB4                A  1178    			oti2r
010ACA ED83                A  1179    			otim
010ACC ED93                A  1180    			otimr
010ACE EDB3                A  1181    			otir
010AD0 EDC3                A  1182    			otirx
                           A  1183    			
010AD2 52EDBC              A  1184    			otd2r.s
010AD5 52ED8B              A  1185    			otdm.s
010AD8 52ED9B              A  1186    			otdmr.s
010ADB 52EDBB              A  1187    			otdr.s
010ADE 52EDCB              A  1188    			otdrx.s
010AE1 52EDB4              A  1189    			oti2r.s
010AE4 52ED83              A  1190    			otim.s
010AE7 52ED93              A  1191    			otimr.s
010AEA 52EDB3              A  1192    			otir.s
010AED 52EDC3              A  1193    			otirx.s
                           A  1194    			
010AF0 5BEDBC              A  1195    			otd2r.l
010AF3 5BED8B              A  1196    			otdm.l
Zilog eZ80 Macro Assembler Version 4.1 (10060805)11-Jul-11     16:26:24     page:  24


PC     Object              I  Line    Source E:\MY_OWN~1\Coding\ez80p\Code\PROSEB~1\Phil\tests\opcodes\source\opcodes.asm
010AF6 5BED9B              A  1197    			otdmr.l
010AF9 5BEDBB              A  1198    			otdr.l
010AFC 5BEDCB              A  1199    			otdrx.l
010AFF 5BEDB4              A  1200    			oti2r.l
010B02 5BED83              A  1201    			otim.l
010B05 5BED93              A  1202    			otimr.l
010B08 5BEDB3              A  1203    			otir.l
010B0B 5BEDC3              A  1204    			otirx.l
                           A  1205    			
010B0E ED79                A  1206    			out (bc),a
010B10 ED41                A  1207    			out (bc),b
010B12 ED49                A  1208    			out (bc),c
010B14 ED51                A  1209    			out (bc),d
010B16 ED59                A  1210    			out (bc),e
010B18 ED61                A  1211    			out (bc),h
010B1A ED69                A  1212    			out (bc),l
                           A  1213    
010B1C D312                A  1214    			out (12h),a
                           A  1215    			
010B1E ED3912              A  1216    			out0 (12h),a
010B21 ED0112              A  1217    			out0 (12h),b
010B24 ED0912              A  1218    			out0 (12h),c
010B27 ED1112              A  1219    			out0 (12h),d
010B2A ED1912              A  1220    			out0 (12h),e
010B2D ED2112              A  1221    			out0 (12h),h
010B30 ED2912              A  1222    			out0 (12h),l
                           A  1223    			
010B33 EDAB                A  1224    			outd
010B35 EDAC                A  1225    			outd2
010B37 EDA3                A  1226    			outi
010B39 EDA4                A  1227    			outi2
                           A  1228    			
010B3B 52EDAB              A  1229    			outd.s
010B3E 52EDAC              A  1230    			outd2.s
010B41 52EDA3              A  1231    			outi.s
010B44 52EDA4              A  1232    			outi2.s
                           A  1233    
010B47 5BEDAB              A  1234    			outd.l
010B4A 5BEDAC              A  1235    			outd2.l
010B4D 5BEDA3              A  1236    			outi.l
010B50 5BEDA4              A  1237    			outi2.l
                           A  1238    
010B53 ED6555              A  1239    			pea ix+55h
010B56 52ED6555            A  1240    			pea.s ix+55h
010B5A 5BED6555            A  1241    			pea.l ix+55h
                           A  1242    			
010B5E ED6655              A  1243    			pea iy+55h
010B61 52ED6655            A  1244    			pea.s iy+55h
010B65 5BED6655            A  1245    			pea.l iy+55h
                           A  1246    			
010B69 F1                  A  1247    			pop af
010B6A 52F1                A  1248    			pop.s af
Zilog eZ80 Macro Assembler Version 4.1 (10060805)11-Jul-11     16:26:24     page:  25


PC     Object              I  Line    Source E:\MY_OWN~1\Coding\ez80p\Code\PROSEB~1\Phil\tests\opcodes\source\opcodes.asm
010B6C 5BF1                A  1249    			pop.l af
010B6E DDE1                A  1250    			pop ix
010B70 52DDE1              A  1251    			pop.s ix
010B73 5BDDE1              A  1252    			pop.l ix
010B76 FDE1                A  1253    			pop iy
010B78 52FDE1              A  1254    			pop.s iy
010B7B 5BFDE1              A  1255    			pop.l iy
010B7E C1                  A  1256    			pop bc
010B7F 52C1                A  1257    			pop.s bc
010B81 5BC1                A  1258    			pop.l bc
010B83 D1                  A  1259    			pop de
010B84 52D1                A  1260    			pop.s de
010B86 5BD1                A  1261    			pop.l de
010B88 E1                  A  1262    			pop hl
010B89 52E1                A  1263    			pop.s hl
010B8B 5BE1                A  1264    			pop.l hl
                           A  1265    			
010B8D F5                  A  1266    			push af
010B8E 52F5                A  1267    			push.s af
010B90 5BF5                A  1268    			push.l af
010B92 DDE5                A  1269    			push ix
010B94 52DDE5              A  1270    			push.s ix
010B97 5BDDE5              A  1271    			push.l ix
010B9A FDE5                A  1272    			push iy
010B9C 52FDE5              A  1273    			push.s iy
010B9F 5BFDE5              A  1274    			push.l iy
010BA2 C5                  A  1275    			push bc
010BA3 52C5                A  1276    			push.s bc
010BA5 5BC5                A  1277    			push.l bc
010BA7 D5                  A  1278    			push de
010BA8 52D5                A  1279    			push.s de
010BAA 5BD5                A  1280    			push.l de
010BAC E5                  A  1281    			push hl
010BAD 52E5                A  1282    			push.s hl
010BAF 5BE5                A  1283    			push.l hl
                           A  1284    			
                           A  1285    			
010BB1 CB86                A  1286    			res 0,(hl)
010BB3 52CB86              A  1287    			res.s 0,(hl)
010BB6 5BCB86              A  1288    			res.l 0,(hl)
010BB9 CB8E                A  1289    			res 1,(hl)
010BBB 52CB8E              A  1290    			res.s 1,(hl)
010BBE 5BCB8E              A  1291    			res.l 1,(hl)
010BC1 CB96                A  1292    			res 2,(hl)
010BC3 52CB96              A  1293    			res.s 2,(hl)
010BC6 5BCB96              A  1294    			res.l 2,(hl)
010BC9 CB9E                A  1295    			res 3,(hl)
010BCB 52CB9E              A  1296    			res.s 3,(hl)
010BCE 5BCB9E              A  1297    			res.l 3,(hl)
010BD1 CBA6                A  1298    			res 4,(hl)
010BD3 52CBA6              A  1299    			res.s 4,(hl)
010BD6 5BCBA6              A  1300    			res.l 4,(hl)
Zilog eZ80 Macro Assembler Version 4.1 (10060805)11-Jul-11     16:26:24     page:  26


PC     Object              I  Line    Source E:\MY_OWN~1\Coding\ez80p\Code\PROSEB~1\Phil\tests\opcodes\source\opcodes.asm
010BD9 CBAE                A  1301    			res 5,(hl)
010BDB 52CBAE              A  1302    			res.s 5,(hl)
010BDE 5BCBAE              A  1303    			res.l 5,(hl)
010BE1 CBB6                A  1304    			res 6,(hl)
010BE3 52CBB6              A  1305    			res.s 6,(hl)
010BE6 5BCBB6              A  1306    			res.l 6,(hl)
010BE9 CBBE                A  1307    			res 7,(hl)
010BEB 52CBBE              A  1308    			res.s 7,(hl)
010BEE 5BCBBE              A  1309    			res.l 7,(hl)
                           A  1310    			
010BF1 DDCB5586            A  1311    			res 0,(ix+55h)
010BF5 52DDCB55 86         A  1312    			res.s 0,(ix+55h)
010BFA 5BDDCB55 86         A  1313    			res.l 0,(ix+55h)
010BFF DDCB558E            A  1314    			res 1,(ix+55h)
010C03 52DDCB55 8E         A  1315    			res.s 1,(ix+55h)
010C08 5BDDCB55 8E         A  1316    			res.l 1,(ix+55h)
010C0D DDCB5596            A  1317    			res 2,(ix+55h)
010C11 52DDCB55 96         A  1318    			res.s 2,(ix+55h)
010C16 5BDDCB55 96         A  1319    			res.l 2,(ix+55h)
010C1B DDCB559E            A  1320    			res 3,(ix+55h)
010C1F 52DDCB55 9E         A  1321    			res.s 3,(ix+55h)
010C24 5BDDCB55 9E         A  1322    			res.l 3,(ix+55h)
010C29 DDCB55A6            A  1323    			res 4,(ix+55h)
010C2D 52DDCB55 A6         A  1324    			res.s 4,(ix+55h)
010C32 5BDDCB55 A6         A  1325    			res.l 4,(ix+55h)
010C37 DDCB55AE            A  1326    			res 5,(ix+55h)
010C3B 52DDCB55 AE         A  1327    			res.s 5,(ix+55h)
010C40 5BDDCB55 AE         A  1328    			res.l 5,(ix+55h)
010C45 DDCB55B6            A  1329    			res 6,(ix+55h)
010C49 52DDCB55 B6         A  1330    			res.s 6,(ix+55h)
010C4E 5BDDCB55 B6         A  1331    			res.l 6,(ix+55h)
010C53 DDCB55BE            A  1332    			res 7,(ix+55h)
010C57 52DDCB55 BE         A  1333    			res.s 7,(ix+55h)
010C5C 5BDDCB55 BE         A  1334    			res.l 7,(ix+55h)
                           A  1335    			
010C61 FDCB5586            A  1336    			res 0,(iy+55h)
010C65 52FDCB55 86         A  1337    			res.s 0,(iy+55h)
010C6A 5BFDCB55 86         A  1338    			res.l 0,(iy+55h)
010C6F FDCB558E            A  1339    			res 1,(iy+55h)
010C73 52FDCB55 8E         A  1340    			res.s 1,(iy+55h)
010C78 5BFDCB55 8E         A  1341    			res.l 1,(iy+55h)
010C7D FDCB5596            A  1342    			res 2,(iy+55h)
010C81 52FDCB55 96         A  1343    			res.s 2,(iy+55h)
010C86 5BFDCB55 96         A  1344    			res.l 2,(iy+55h)
010C8B FDCB559E            A  1345    			res 3,(iy+55h)
010C8F 52FDCB55 9E         A  1346    			res.s 3,(iy+55h)
010C94 5BFDCB55 9E         A  1347    			res.l 3,(iy+55h)
010C99 FDCB55A6            A  1348    			res 4,(iy+55h)
010C9D 52FDCB55 A6         A  1349    			res.s 4,(iy+55h)
010CA2 5BFDCB55 A6         A  1350    			res.l 4,(iy+55h)
010CA7 FDCB55AE            A  1351    			res 5,(iy+55h)
010CAB 52FDCB55 AE         A  1352    			res.s 5,(iy+55h)
Zilog eZ80 Macro Assembler Version 4.1 (10060805)11-Jul-11     16:26:24     page:  27


PC     Object              I  Line    Source E:\MY_OWN~1\Coding\ez80p\Code\PROSEB~1\Phil\tests\opcodes\source\opcodes.asm
010CB0 5BFDCB55 AE         A  1353    			res.l 5,(iy+55h)
010CB5 FDCB55B6            A  1354    			res 6,(iy+55h)
010CB9 52FDCB55 B6         A  1355    			res.s 6,(iy+55h)
010CBE 5BFDCB55 B6         A  1356    			res.l 6,(iy+55h)
010CC3 FDCB55BE            A  1357    			res 7,(iy+55h)
010CC7 52FDCB55 BE         A  1358    			res.s 7,(iy+55h)
010CCC 5BFDCB55 BE         A  1359    			res.l 7,(iy+55h)
                           A  1360    			
010CD1 CB87                A  1361    			res 0,a
010CD3 CB8F                A  1362    			res 1,a
010CD5 CB97                A  1363    			res 2,a
010CD7 CB9F                A  1364    			res 3,a
010CD9 CBA7                A  1365    			res 4,a
010CDB CBAF                A  1366    			res 5,a
010CDD CBB7                A  1367    			res 6,a
010CDF CBBF                A  1368    			res 7,a
                           A  1369    			
010CE1 CB80                A  1370    			res 0,b
010CE3 CB88                A  1371    			res 1,b
010CE5 CB90                A  1372    			res 2,b
010CE7 CB98                A  1373    			res 3,b
010CE9 CBA0                A  1374    			res 4,b
010CEB CBA8                A  1375    			res 5,b
010CED CBB0                A  1376    			res 6,b
010CEF CBB8                A  1377    			res 7,b
                           A  1378    			
010CF1 CB81                A  1379    			res 0,c
010CF3 CB89                A  1380    			res 1,c
010CF5 CB91                A  1381    			res 2,c
010CF7 CB99                A  1382    			res 3,c
010CF9 CBA1                A  1383    			res 4,c
010CFB CBA9                A  1384    			res 5,c
010CFD CBB1                A  1385    			res 6,c
010CFF CBB9                A  1386    			res 7,c
                           A  1387    			
010D01 CB82                A  1388    			res 0,d
010D03 CB8A                A  1389    			res 1,d
010D05 CB92                A  1390    			res 2,d
010D07 CB9A                A  1391    			res 3,d
010D09 CBA2                A  1392    			res 4,d
010D0B CBAA                A  1393    			res 5,d
010D0D CBB2                A  1394    			res 6,d
010D0F CBBA                A  1395    			res 7,d
                           A  1396    			
010D11 CB83                A  1397    			res 0,e
010D13 CB8B                A  1398    			res 1,e
010D15 CB93                A  1399    			res 2,e
010D17 CB9B                A  1400    			res 3,e
010D19 CBA3                A  1401    			res 4,e
010D1B CBAB                A  1402    			res 5,e
010D1D CBB3                A  1403    			res 6,e
010D1F CBBB                A  1404    			res 7,e
Zilog eZ80 Macro Assembler Version 4.1 (10060805)11-Jul-11     16:26:24     page:  28


PC     Object              I  Line    Source E:\MY_OWN~1\Coding\ez80p\Code\PROSEB~1\Phil\tests\opcodes\source\opcodes.asm
                           A  1405    			
010D21 CB84                A  1406    			res 0,h
010D23 CB8C                A  1407    			res 1,h
010D25 CB94                A  1408    			res 2,h
010D27 CB9C                A  1409    			res 3,h
010D29 CBA4                A  1410    			res 4,h
010D2B CBAC                A  1411    			res 5,h
010D2D CBB4                A  1412    			res 6,h
010D2F CBBC                A  1413    			res 7,h
                           A  1414    			
010D31 CB85                A  1415    			res 0,l
010D33 CB8D                A  1416    			res 1,l
010D35 CB95                A  1417    			res 2,l
010D37 CB9D                A  1418    			res 3,l
010D39 CBA5                A  1419    			res 4,l
010D3B CBAD                A  1420    			res 5,l
010D3D CBB5                A  1421    			res 6,l
010D3F CBBD                A  1422    			res 7,l
                           A  1423    			
                           A  1424    			
010D41 C9                  A  1425    			ret
010D42 5BC9                A  1426    			ret.lil
                           A  1427    				
010D44 C0                  A  1428    			ret nz
010D45 C8                  A  1429    			ret z
010D46 D0                  A  1430    			ret nc
010D47 D8                  A  1431    			ret c
010D48 E0                  A  1432    			ret po
010D49 E8                  A  1433    			ret pe
010D4A F0                  A  1434    			ret p
010D4B F8                  A  1435    			ret m
                           A  1436    						
010D4C 5BC0                A  1437    			ret.lil nz
010D4E 5BC8                A  1438    			ret.lil z
010D50 5BD0                A  1439    			ret.lil nc
010D52 5BD8                A  1440    			ret.lil c
010D54 5BE0                A  1441    			ret.lil po
010D56 5BE8                A  1442    			ret.lil pe
010D58 5BF0                A  1443    			ret.lil p
010D5A 5BF8                A  1444    			ret.lil m
                           A  1445    
010D5C ED4D                A  1446    			reti
010D5E 5BED4D              A  1447    			reti.l
010D61 ED45                A  1448    			retn
010D63 5BED45              A  1449    			retn.l
                           A  1450    			
010D66 CB16                A  1451    			rl (hl)
010D68 52CB16              A  1452    			rl.s (hl)
010D6B 5BCB16              A  1453    			rl.l (hl)
010D6E DDCB5516            A  1454    			rl (ix+55h)
010D72 52DDCB55 16         A  1455    			rl.s (ix+55h)
010D77 5BDDCB55 16         A  1456    			rl.l (ix+55h)
Zilog eZ80 Macro Assembler Version 4.1 (10060805)11-Jul-11     16:26:24     page:  29


PC     Object              I  Line    Source E:\MY_OWN~1\Coding\ez80p\Code\PROSEB~1\Phil\tests\opcodes\source\opcodes.asm
010D7C FDCB5516            A  1457    			rl (iy+55h)
010D80 52FDCB55 16         A  1458    			rl.s (iy+55h)
010D85 5BFDCB55 16         A  1459    			rl.l (iy+55h)
010D8A CB17                A  1460    			rl a
010D8C CB10                A  1461    			rl b
010D8E CB11                A  1462    			rl c
010D90 CB12                A  1463    			rl d
010D92 CB13                A  1464    			rl e
010D94 CB14                A  1465    			rl h
010D96 CB15                A  1466    			rl l
010D98 17                  A  1467    			rla
                           A  1468    			
010D99 CB06                A  1469    			rlc (hl)
010D9B 52CB06              A  1470    			rlc.s (hl)
010D9E 5BCB06              A  1471    			rlc.l (hl)
010DA1 DDCB5506            A  1472    			rlc (ix+55h)
010DA5 52DDCB55 06         A  1473    			rlc.s (ix+55h)
010DAA 5BDDCB55 06         A  1474    			rlc.l (ix+55h)
010DAF FDCB5506            A  1475    			rlc (iy+55h)
010DB3 52FDCB55 06         A  1476    			rlc.s (iy+55h)
010DB8 5BFDCB55 06         A  1477    			rlc.l (iy+55h)
010DBD CB07                A  1478    			rlc a
010DBF CB00                A  1479    			rlc b
010DC1 CB01                A  1480    			rlc c
010DC3 CB02                A  1481    			rlc d
010DC5 CB03                A  1482    			rlc e
010DC7 CB04                A  1483    			rlc h
010DC9 CB05                A  1484    			rlc l
010DCB 07                  A  1485    			rlca
                           A  1486    			
010DCC ED6F                A  1487    			rld
                           A  1488    			
010DCE CB1E                A  1489    			rr (hl)
010DD0 52CB1E              A  1490    			rr.s (hl)
010DD3 5BCB1E              A  1491    			rr.l (hl)
010DD6 DDCB551E            A  1492    			rr (ix+55h)
010DDA 52DDCB55 1E         A  1493    			rr.s (ix+55h)
010DDF 5BDDCB55 1E         A  1494    			rr.l (ix+55h)
010DE4 FDCB551E            A  1495    			rr (iy+55h)
010DE8 52FDCB55 1E         A  1496    			rr.s (iy+55h)
010DED 5BFDCB55 1E         A  1497    			rr.l (iy+55h)
010DF2 CB1F                A  1498    			rr a
010DF4 CB18                A  1499    			rr b
010DF6 CB19                A  1500    			rr c
010DF8 CB1A                A  1501    			rr d
010DFA CB1B                A  1502    			rr e
010DFC CB1C                A  1503    			rr h
010DFE CB1D                A  1504    			rr l
010E00 1F                  A  1505    			rra
                           A  1506    			
010E01 CB0E                A  1507    			rrc (hl)
010E03 52CB0E              A  1508    			rrc.s (hl)
Zilog eZ80 Macro Assembler Version 4.1 (10060805)11-Jul-11     16:26:24     page:  30


PC     Object              I  Line    Source E:\MY_OWN~1\Coding\ez80p\Code\PROSEB~1\Phil\tests\opcodes\source\opcodes.asm
010E06 5BCB0E              A  1509    			rrc.l (hl)
010E09 DDCB550E            A  1510    			rrc (ix+55h)
010E0D 52DDCB55 0E         A  1511    			rrc.s (ix+55h)
010E12 5BDDCB55 0E         A  1512    			rrc.l (ix+55h)
010E17 FDCB550E            A  1513    			rrc (iy+55h)
010E1B 52FDCB55 0E         A  1514    			rrc.s (iy+55h)
010E20 5BFDCB55 0E         A  1515    			rrc.l (iy+55h)
010E25 CB0F                A  1516    			rrc a
010E27 CB08                A  1517    			rrc b
010E29 CB09                A  1518    			rrc c
010E2B CB0A                A  1519    			rrc d
010E2D CB0B                A  1520    			rrc e
010E2F CB0C                A  1521    			rrc h
010E31 CB0D                A  1522    			rrc l
010E33 0F                  A  1523    			rrca
                           A  1524    			
010E34 ED67                A  1525    			rrd
                           A  1526    			
010E36 ED7E                A  1527    			rsmix
                           A  1528    			
010E38 C7                  A  1529    			rst 0
010E39 CF                  A  1530    			rst 8
010E3A D7                  A  1531    			rst 10h
010E3B DF                  A  1532    			rst 18h
010E3C E7                  A  1533    			rst 20h
010E3D EF                  A  1534    			rst 28h
010E3E F7                  A  1535    			rst 30h
010E3F FF                  A  1536    			rst 38h
                           A  1537    			
010E40 52C7                A  1538    			rst.s 0
010E42 52CF                A  1539    			rst.s 8
010E44 52D7                A  1540    			rst.s 10h
010E46 52DF                A  1541    			rst.s 18h
010E48 52E7                A  1542    			rst.s 20h
010E4A 52EF                A  1543    			rst.s 28h
010E4C 52F7                A  1544    			rst.s 30h
010E4E 52FF                A  1545    			rst.s 38h
                           A  1546    			
010E50 5BC7                A  1547    			rst.l 0
010E52 5BCF                A  1548    			rst.l 8
010E54 5BD7                A  1549    			rst.l 10h
010E56 5BDF                A  1550    			rst.l 18h
010E58 5BE7                A  1551    			rst.l 20h
010E5A 5BEF                A  1552    			rst.l 28h
010E5C 5BF7                A  1553    			rst.l 30h
010E5E 5BFF                A  1554    			rst.l 38h
                           A  1555    			
010E60 9E                  A  1556    			sbc a,(hl)
010E61 529E                A  1557    			sbc.s a,(hl)
010E63 5B9E                A  1558    			sbc.l a,(hl)
                           A  1559    			
010E65 DD9D                A  1560    			sbc a,ixl
Zilog eZ80 Macro Assembler Version 4.1 (10060805)11-Jul-11     16:26:24     page:  31


PC     Object              I  Line    Source E:\MY_OWN~1\Coding\ez80p\Code\PROSEB~1\Phil\tests\opcodes\source\opcodes.asm
010E67 DD9C                A  1561    			sbc a,ixh
010E69 FD9D                A  1562    			sbc a,iyl
010E6B FD9C                A  1563    			sbc a,iyh
                           A  1564    			
010E6D DD9E55              A  1565    			sbc a,(ix+55h)
010E70 52DD9E55            A  1566    			sbc.s a,(ix+55h)
010E74 5BDD9E55            A  1567    			sbc.l a,(ix+55h)
                           A  1568    			
010E78 FD9E55              A  1569    			sbc a,(iy+55h)
010E7B 52FD9E55            A  1570    			sbc.s a,(iy+55h)
010E7F 5BFD9E55            A  1571    			sbc.l a,(iy+55h)
                           A  1572    			
010E83 DEAA                A  1573    			sbc a,0aah
                           A  1574    			
010E85 9F                  A  1575    			sbc a,a
010E86 98                  A  1576    			sbc a,b
010E87 99                  A  1577    			sbc a,c
010E88 9A                  A  1578    			sbc a,d
010E89 9B                  A  1579    			sbc a,e
010E8A 9C                  A  1580    			sbc a,h
010E8B 9D                  A  1581    			sbc a,l
                           A  1582    			
010E8C ED42                A  1583    			sbc hl,bc
010E8E ED52                A  1584    			sbc hl,de
010E90 ED62                A  1585    			sbc hl,hl
010E92 52ED42              A  1586    			sbc.s hl,bc
010E95 52ED52              A  1587    			sbc.s hl,de
010E98 52ED62              A  1588    			sbc.s hl,hl
010E9B 5BED42              A  1589    			sbc.l hl,bc
010E9E 5BED52              A  1590    			sbc.l hl,de
010EA1 5BED62              A  1591    			sbc.l hl,hl
                           A  1592    			
010EA4 ED72                A  1593    			sbc hl,sp
010EA6 52ED72              A  1594    			sbc.s hl,sp
010EA9 5BED72              A  1595    			sbc.l hl,sp
                           A  1596    
010EAC 37                  A  1597    			scf
                           A  1598    			
010EAD CBC6                A  1599    			set 0,(hl)
010EAF 52CBC6              A  1600    			set.s 0,(hl)
010EB2 5BCBC6              A  1601    			set.l 0,(hl)
010EB5 CBCE                A  1602    			set 1,(hl)
010EB7 52CBCE              A  1603    			set.s 1,(hl)
010EBA 5BCBCE              A  1604    			set.l 1,(hl)
010EBD CBD6                A  1605    			set 2,(hl)
010EBF 52CBD6              A  1606    			set.s 2,(hl)
010EC2 5BCBD6              A  1607    			set.l 2,(hl)
010EC5 CBDE                A  1608    			set 3,(hl)
010EC7 52CBDE              A  1609    			set.s 3,(hl)
010ECA 5BCBDE              A  1610    			set.l 3,(hl)
010ECD CBE6                A  1611    			set 4,(hl)
010ECF 52CBE6              A  1612    			set.s 4,(hl)
Zilog eZ80 Macro Assembler Version 4.1 (10060805)11-Jul-11     16:26:24     page:  32


PC     Object              I  Line    Source E:\MY_OWN~1\Coding\ez80p\Code\PROSEB~1\Phil\tests\opcodes\source\opcodes.asm
010ED2 5BCBE6              A  1613    			set.l 4,(hl)
010ED5 CBEE                A  1614    			set 5,(hl)
010ED7 52CBEE              A  1615    			set.s 5,(hl)
010EDA 5BCBEE              A  1616    			set.l 5,(hl)
010EDD CBF6                A  1617    			set 6,(hl)
010EDF 52CBF6              A  1618    			set.s 6,(hl)
010EE2 5BCBF6              A  1619    			set.l 6,(hl)
010EE5 CBFE                A  1620    			set 7,(hl)
010EE7 52CBFE              A  1621    			set.s 7,(hl)
010EEA 5BCBFE              A  1622    			set.l 7,(hl)
                           A  1623    			
010EED DDCB55C6            A  1624    			set 0,(ix+55h)
010EF1 52DDCB55 C6         A  1625    			set.s 0,(ix+55h)
010EF6 5BDDCB55 C6         A  1626    			set.l 0,(ix+55h)
010EFB DDCB55CE            A  1627    			set 1,(ix+55h)
010EFF 52DDCB55 CE         A  1628    			set.s 1,(ix+55h)
010F04 5BDDCB55 CE         A  1629    			set.l 1,(ix+55h)
010F09 DDCB55D6            A  1630    			set 2,(ix+55h)
010F0D 52DDCB55 D6         A  1631    			set.s 2,(ix+55h)
010F12 5BDDCB55 D6         A  1632    			set.l 2,(ix+55h)
010F17 DDCB55DE            A  1633    			set 3,(ix+55h)
010F1B 52DDCB55 DE         A  1634    			set.s 3,(ix+55h)
010F20 5BDDCB55 DE         A  1635    			set.l 3,(ix+55h)
010F25 DDCB55E6            A  1636    			set 4,(ix+55h)
010F29 52DDCB55 E6         A  1637    			set.s 4,(ix+55h)
010F2E 5BDDCB55 E6         A  1638    			set.l 4,(ix+55h)
010F33 DDCB55EE            A  1639    			set 5,(ix+55h)
010F37 52DDCB55 EE         A  1640    			set.s 5,(ix+55h)
010F3C 5BDDCB55 EE         A  1641    			set.l 5,(ix+55h)
010F41 DDCB55F6            A  1642    			set 6,(ix+55h)
010F45 52DDCB55 F6         A  1643    			set.s 6,(ix+55h)
010F4A 5BDDCB55 F6         A  1644    			set.l 6,(ix+55h)
010F4F DDCB55FE            A  1645    			set 7,(ix+55h)
010F53 52DDCB55 FE         A  1646    			set.s 7,(ix+55h)
010F58 5BDDCB55 FE         A  1647    			set.l 7,(ix+55h)
                           A  1648    			
010F5D FDCB55C6            A  1649    			set 0,(iy+55h)
010F61 52FDCB55 C6         A  1650    			set.s 0,(iy+55h)
010F66 5BFDCB55 C6         A  1651    			set.l 0,(iy+55h)
010F6B FDCB55CE            A  1652    			set 1,(iy+55h)
010F6F 52FDCB55 CE         A  1653    			set.s 1,(iy+55h)
010F74 5BFDCB55 CE         A  1654    			set.l 1,(iy+55h)
010F79 FDCB55D6            A  1655    			set 2,(iy+55h)
010F7D 52FDCB55 D6         A  1656    			set.s 2,(iy+55h)
010F82 5BFDCB55 D6         A  1657    			set.l 2,(iy+55h)
010F87 FDCB55DE            A  1658    			set 3,(iy+55h)
010F8B 52FDCB55 DE         A  1659    			set.s 3,(iy+55h)
010F90 5BFDCB55 DE         A  1660    			set.l 3,(iy+55h)
010F95 FDCB55E6            A  1661    			set 4,(iy+55h)
010F99 52FDCB55 E6         A  1662    			set.s 4,(iy+55h)
010F9E 5BFDCB55 E6         A  1663    			set.l 4,(iy+55h)
010FA3 FDCB55EE            A  1664    			set 5,(iy+55h)
Zilog eZ80 Macro Assembler Version 4.1 (10060805)11-Jul-11     16:26:24     page:  33


PC     Object              I  Line    Source E:\MY_OWN~1\Coding\ez80p\Code\PROSEB~1\Phil\tests\opcodes\source\opcodes.asm
010FA7 52FDCB55 EE         A  1665    			set.s 5,(iy+55h)
010FAC 5BFDCB55 EE         A  1666    			set.l 5,(iy+55h)
010FB1 FDCB55F6            A  1667    			set 6,(iy+55h)
010FB5 52FDCB55 F6         A  1668    			set.s 6,(iy+55h)
010FBA 5BFDCB55 F6         A  1669    			set.l 6,(iy+55h)
010FBF FDCB55FE            A  1670    			set 7,(iy+55h)
010FC3 52FDCB55 FE         A  1671    			set.s 7,(iy+55h)
010FC8 5BFDCB55 FE         A  1672    			set.l 7,(iy+55h)
                           A  1673    			
010FCD CBC7                A  1674    			set 0,a
010FCF CBCF                A  1675    			set 1,a
010FD1 CBD7                A  1676    			set 2,a
010FD3 CBDF                A  1677    			set 3,a
010FD5 CBE7                A  1678    			set 4,a
010FD7 CBEF                A  1679    			set 5,a
010FD9 CBF7                A  1680    			set 6,a
010FDB CBFF                A  1681    			set 7,a
                           A  1682    			
010FDD CBC0                A  1683    			set 0,b
010FDF CBC8                A  1684    			set 1,b
010FE1 CBD0                A  1685    			set 2,b
010FE3 CBD8                A  1686    			set 3,b
010FE5 CBE0                A  1687    			set 4,b
010FE7 CBE8                A  1688    			set 5,b
010FE9 CBF0                A  1689    			set 6,b
010FEB CBF8                A  1690    			set 7,b
                           A  1691    			
010FED CBC1                A  1692    			set 0,c
010FEF CBC9                A  1693    			set 1,c
010FF1 CBD1                A  1694    			set 2,c
010FF3 CBD9                A  1695    			set 3,c
010FF5 CBE1                A  1696    			set 4,c
010FF7 CBE9                A  1697    			set 5,c
010FF9 CBF1                A  1698    			set 6,c
010FFB CBF9                A  1699    			set 7,c
                           A  1700    			
010FFD CBC2                A  1701    			set 0,d
010FFF CBCA                A  1702    			set 1,d
011001 CBD2                A  1703    			set 2,d
011003 CBDA                A  1704    			set 3,d
011005 CBE2                A  1705    			set 4,d
011007 CBEA                A  1706    			set 5,d
011009 CBF2                A  1707    			set 6,d
01100B CBFA                A  1708    			set 7,d
                           A  1709    			
01100D CBC3                A  1710    			set 0,e
01100F CBCB                A  1711    			set 1,e
011011 CBD3                A  1712    			set 2,e
011013 CBDB                A  1713    			set 3,e
011015 CBE3                A  1714    			set 4,e
011017 CBEB                A  1715    			set 5,e
011019 CBF3                A  1716    			set 6,e
Zilog eZ80 Macro Assembler Version 4.1 (10060805)11-Jul-11     16:26:24     page:  34


PC     Object              I  Line    Source E:\MY_OWN~1\Coding\ez80p\Code\PROSEB~1\Phil\tests\opcodes\source\opcodes.asm
01101B CBFB                A  1717    			set 7,e
                           A  1718    			
01101D CBC4                A  1719    			set 0,h
01101F CBCC                A  1720    			set 1,h
011021 CBD4                A  1721    			set 2,h
011023 CBDC                A  1722    			set 3,h
011025 CBE4                A  1723    			set 4,h
011027 CBEC                A  1724    			set 5,h
011029 CBF4                A  1725    			set 6,h
01102B CBFC                A  1726    			set 7,h
                           A  1727    			
01102D CBC5                A  1728    			set 0,l
01102F CBCD                A  1729    			set 1,l
011031 CBD5                A  1730    			set 2,l
011033 CBDD                A  1731    			set 3,l
011035 CBE5                A  1732    			set 4,l
011037 CBED                A  1733    			set 5,l
011039 CBF5                A  1734    			set 6,l
01103B CBFD                A  1735    			set 7,l
                           A  1736    			
01103D CB26                A  1737    			sla (hl)
01103F 52CB26              A  1738    			sla.s (hl)
011042 5BCB26              A  1739    			sla.l (hl)
011045 DDCB5526            A  1740    			sla (ix+55h)
011049 52DDCB55 26         A  1741    			sla.s (ix+55h)
01104E 5BDDCB55 26         A  1742    			sla.l (ix+55h)
011053 FDCB5526            A  1743    			sla (iy+55h)
011057 52FDCB55 26         A  1744    			sla.s (iy+55h)
01105C 5BFDCB55 26         A  1745    			sla.l (iy+55h)
011061 CB27                A  1746    			sla a
011063 CB20                A  1747    			sla b
011065 CB21                A  1748    			sla c
011067 CB22                A  1749    			sla d
011069 CB23                A  1750    			sla e
01106B CB24                A  1751    			sla h
01106D CB25                A  1752    			sla l
                           A  1753    			
01106F ED76                A  1754    			slp
                           A  1755    			
011071 CB2E                A  1756    			sra (hl)
011073 52CB2E              A  1757    			sra.s (hl)
011076 5BCB2E              A  1758    			sra.l (hl)
011079 DDCB552E            A  1759    			sra (ix+55h)
01107D 52DDCB55 2E         A  1760    			sra.s (ix+55h)
011082 5BDDCB55 2E         A  1761    			sra.l (ix+55h)
011087 FDCB552E            A  1762    			sra (iy+55h)
01108B 52FDCB55 2E         A  1763    			sra.s (iy+55h)
011090 5BFDCB55 2E         A  1764    			sra.l (iy+55h)
011095 CB2F                A  1765    			sra a
011097 CB28                A  1766    			sra b
011099 CB29                A  1767    			sra c
01109B CB2A                A  1768    			sra d
Zilog eZ80 Macro Assembler Version 4.1 (10060805)11-Jul-11     16:26:24     page:  35


PC     Object              I  Line    Source E:\MY_OWN~1\Coding\ez80p\Code\PROSEB~1\Phil\tests\opcodes\source\opcodes.asm
01109D CB2B                A  1769    			sra e
01109F CB2C                A  1770    			sra h
0110A1 CB2D                A  1771    			sra l
                           A  1772    			
0110A3 CB3E                A  1773    			srl (hl)
0110A5 52CB3E              A  1774    			srl.s (hl)
0110A8 5BCB3E              A  1775    			srl.l (hl)
0110AB DDCB553E            A  1776    			srl (ix+55h)
0110AF 52DDCB55 3E         A  1777    			srl.s (ix+55h)
0110B4 5BDDCB55 3E         A  1778    			srl.l (ix+55h)
0110B9 FDCB553E            A  1779    			srl (iy+55h)
0110BD 52FDCB55 3E         A  1780    			srl.s (iy+55h)
0110C2 5BFDCB55 3E         A  1781    			srl.l (iy+55h)
0110C7 CB3F                A  1782    			srl a
0110C9 CB38                A  1783    			srl b
0110CB CB39                A  1784    			srl c
0110CD CB3A                A  1785    			srl d
0110CF CB3B                A  1786    			srl e
0110D1 CB3C                A  1787    			srl h
0110D3 CB3D                A  1788    			srl l
                           A  1789    			
0110D5 ED7D                A  1790    			stmix
                           A  1791    			
0110D7 96                  A  1792    			sub a,(hl)
                           A  1793    ;			sub.s a,(hl)
                           A  1794    ;			sub.l a,(hl)
                           A  1795    			
0110D8 DD95                A  1796    			sub a,ixl
0110DA DD94                A  1797    			sub a,ixh
0110DC FD95                A  1798    			sub a,iyl
0110DE FD94                A  1799    			sub a,iyh
                           A  1800    			
0110E0 DD9655              A  1801    			sub a,(ix+55h)
                           A  1802    ;			sub.s a,(ix+55h)
                           A  1803    ;			sub.l a,(ix+55h)
                           A  1804    			
0110E3 FD9655              A  1805    			sub a,(iy+55h)
                           A  1806    ;			sub.s a,(iy+55h)
0110E6 5BFD9655            A  1807    			sub.l a,(iy+55h)
                           A  1808    			
0110EA D6AA                A  1809    			sub a,0aah
                           A  1810    			
0110EC 97                  A  1811    			sub a,a
0110ED 90                  A  1812    			sub a,b
0110EE 91                  A  1813    			sub a,c
0110EF 92                  A  1814    			sub a,d
0110F0 93                  A  1815    			sub a,e
0110F1 94                  A  1816    			sub a,h
0110F2 95                  A  1817    			sub a,l
                           A  1818    
0110F3 ED34                A  1819    			tst a,(hl)
0110F5 52ED34              A  1820    			tst.s a,(hl)
Zilog eZ80 Macro Assembler Version 4.1 (10060805)11-Jul-11     16:26:24     page:  36


PC     Object              I  Line    Source E:\MY_OWN~1\Coding\ez80p\Code\PROSEB~1\Phil\tests\opcodes\source\opcodes.asm
0110F8 5BED34              A  1821    			tst.l a,(hl)
                           A  1822    			
0110FB ED64AA              A  1823    			tst a,0aah
                           A  1824    			
0110FE ED3C                A  1825    			tst a,a
011100 ED04                A  1826    			tst a,b
011102 ED0C                A  1827    			tst a,c
011104 ED14                A  1828    			tst a,d
011106 ED1C                A  1829    			tst a,e
011108 ED24                A  1830    			tst a,h
01110A ED2C                A  1831    			tst a,l
                           A  1832    
01110C ED74AA              A  1833    			tstio 0aah
                           A  1834    			
01110F AE                  A  1835    			xor a,(hl)
011110 52AE                A  1836    			xor.s a,(hl)
011112 5BAE                A  1837    			xor.l a,(hl)
                           A  1838    			
011114 DDAD                A  1839    			xor a,ixl
011116 DDAC                A  1840    			xor a,ixh
011118 FDAD                A  1841    			xor a,iyl
01111A FDAC                A  1842    			xor a,iyh
                           A  1843    			
01111C DDAE55              A  1844    			xor a,(ix+55h)
01111F 52DDAE55            A  1845    			xor.s a,(ix+55h)
011123 5BDDAE55            A  1846    			xor.l a,(ix+55h)
                           A  1847    			
011127 FDAE55              A  1848    			xor a,(iy+55h)
01112A 52FDAE55            A  1849    			xor.s a,(iy+55h)
01112E 5BFDAE55            A  1850    			xor.l a,(iy+55h)
                           A  1851    			
011132 EEAA                A  1852    			xor a,0aah
                           A  1853    			
011134 AF                  A  1854    			xor a,a
011135 A8                  A  1855    			xor a,b
011136 A9                  A  1856    			xor a,c
011137 AA                  A  1857    			xor a,d
011138 AB                  A  1858    			xor a,e
011139 AC                  A  1859    			xor a,h
01113A AD                  A  1860    			xor a,l
                           A  1861    			
01113B 00                  A  1862    			nop
01113C 00                  A  1863    			nop
01113D 00                  A  1864    			nop
01113E 00                  A  1865    			nop
01113F 00                  A  1866    			nop
011140 00                  A  1867    			nop
011141 00                  A  1868    			nop
011142 00                  A  1869    			nop
011143 00                  A  1870    			nop
011144 00                  A  1871    			nop
011145 00                  A  1872    			nop
Zilog eZ80 Macro Assembler Version 4.1 (10060805)11-Jul-11     16:26:24     page:  37


PC     Object              I  Line    Source E:\MY_OWN~1\Coding\ez80p\Code\PROSEB~1\Phil\tests\opcodes\source\opcodes.asm
011146 00                  A  1873    			nop
011147 00                  A  1874    			nop
011148 00                  A  1875    			nop
011149 00                  A  1876    			nop
01114A 00                  A  1877    			nop
01114B 00                  A  1878    			nop
01114C 00                  A  1879    			nop
01114D 00                  A  1880    			nop
01114E 00                  A  1881    			nop
01114F 00                  A  1882    			nop
011150 00                  A  1883    			nop
011151 00                  A  1884    			nop
011152 00                  A  1885    			nop
011153 00                  A  1886    			nop
011154 00                  A  1887    			nop
011155 00                  A  1888    			nop
011156 00                  A  1889    			nop
011157 00                  A  1890    			nop
011158 00                  A  1891    			nop
011159 00                  A  1892    			nop
01115A 00                  A  1893    			nop
01115B 00                  A  1894    			nop
01115C 00                  A  1895    			nop
01115D 00                  A  1896    			nop
01115E 00                  A  1897    			nop
01115F 00                  A  1898    			nop
011160 00                  A  1899    			nop
011161 00                  A  1900    			nop
011162 00                  A  1901    			nop
011163 00                  A  1902    			nop
011164 00                  A  1903    			nop
011165 00                  A  1904    			nop
011166 00                  A  1905    			nop
011167 00                  A  1906    			nop
011168 00                  A  1907    			nop
011169 00                  A  1908    			nop
01116A 00                  A  1909    			nop
                           A  1910    			
                           A  1911    			
                           A  1912    ;----------------------------------------------


Errors: 0
Warnings: 0
Lines Assembled: 1913
