Zilog eZ80 Macro Assembler Version 4.1 (10060805) RELISTED26-Aug-11     11:07:39     page:   1


PC     Object              I  Line    Source 
                           A     1    ; Zilog eZ80 ANSI C Compiler Release 3.3
                           A     2    ; -nomodsect -optspeed -noreduceopt -peephole -
                           A     3    ; -localcse -const=ROM 
                           A     4    	FILE	"..\MAIN.C"
                           A     5    	.assume ADL=1
                           A     6    	SEGMENT DATA
017FD2                     A     7    _VideoMem:
017FD2 005080              A     8    	DW24	8409088
017FD5                     A     9    _PaletteMem:
017FD5 0000FF              A    10    	DW24	16711680
017FD8                     A    11    _mossa_giocata:
017FD8 00000000            A    12    	DL	0
017FDC                     A    13    _mossa_in_analisi:
017FDC 00000000            A    14    	DL	0
                           A    15    	SEGMENT BSS
0175D5                     A    16    _scac:
0175D5                     A    17    	DS	400
017765                     A    18    _oldscac:
017765                     A    19    	DS	400
0178F5                     A    20    _PosScac:
0178F5                     A    21    	DS	600
                           A    22    	SEGMENT DATA
017FE0                     A    23    _col_prof:
017FE0 0000                A    24    	DW	0
017FE2 00                  A    25    	DB	0
017FE3                     A    26    _nmossa:
017FE3 00000000            A    27    	DL	0
017FE7                     A    28    _effe:
017FE7 00000000            A    29    	DF	0.0
017FEB                     A    30    _prof:
017FEB 00000000            A    31    	DL	0
017FEF                     A    32    _livello:
017FEF 04000000            A    33    	DL	4
                           A    34    	SEGMENT BSS
017B4D                     A    35    _ramo:
017B4D                     A    36    	DS	28
017B69                     A    37    _possibili:
017B69                     A    38    	DS	400
017CF9                     A    39    _ap:
017CF9                     A    40    	DS	64
                           A    41    	SEGMENT DATA
017FF3                     A    42    _cont:
017FF3 00000000            A    43    	DL	0
                           A    44    	SEGMENT BSS
017D39                     A    45    _TxtPnt:
017D39                     A    46    	DS	3
017D3C                     A    47    _Snd:
017D3C                     A    48    	DS	3
017D3F                     A    49    _Click:
017D3F                     A    50    	DS	15
017D4E                     A    51    _Chs1:
017D4E                     A    52    	DS	15
Zilog eZ80 Macro Assembler Version 4.1 (10060805) RELISTED26-Aug-11     11:07:39     page:   2


PC     Object              I  Line    Source C:\Users\fog76\Desktop\CHFIGH~2\Debug\main.src
017D5D                     A    53    _Chs2:
017D5D                     A    54    	DS	15
017D6C                     A    55    _mSelect:
017D6C                     A    56    	DS	3
017D6F                     A    57    _mWhite:
017D6F                     A    58    	DS	3
017D72                     A    59    _mBlack:
017D72                     A    60    	DS	3
017D75                     A    61    _mNormal:
017D75                     A    62    	DS	3
017D78                     A    63    _mHard:
017D78                     A    64    	DS	3
017D7B                     A    65    _Think:
017D7B                     A    66    	DS	3
017D7E                     A    67    _wPlay:
017D7E                     A    68    	DS	3
017D81                     A    69    _bPlay:
017D81                     A    70    	DS	3
017D84                     A    71    _wSel:
017D84                     A    72    	DS	3
017D87                     A    73    _rSel:
017D87                     A    74    	DS	3
017D8A                     A    75    _bsel:
017D8A                     A    76    	DS	3
017D8D                     A    77    _wPiece:
017D8D                     A    78    	DS	3
017D90                     A    79    _bPiece:
017D90                     A    80    	DS	3
017D93                     A    81    _Bianchi:
017D93                     A    82    	DS	18
017DA5                     A    83    _Neri:
017DA5                     A    84    	DS	18
                           A    85    	SEGMENT DATA
017FF7                     A    86    _mColore:
017FF7 00                  A    87    	DB	0
017FF8                     A    88    _mLivello:
017FF8 00                  A    89    	DB	0
                           A    90    	SEGMENT BSS
017DB7                     A    91    _chAbort:
017DB7                     A    92    	DS	1
                           A    93    	SEGMENT DATA
017FF9                     A    94    _DeleteBack:
017FF9 00                  A    95    	DB	0
                           A    96    	SEGMENT BSS
017DB8                     A    97    _gScanCode:
017DB8                     A    98    	DS	1
017DB9                     A    99    _Mossa1:
017DB9                     A   100    	DS	2
017DBB                     A   101    _Mossa2:
017DBB                     A   102    	DS	2
017DBD                     A   103    _User:
017DBD                     A   104    	DS	5
Zilog eZ80 Macro Assembler Version 4.1 (10060805) RELISTED26-Aug-11     11:07:39     page:   3


PC     Object              I  Line    Source C:\Users\fog76\Desktop\CHFIGH~2\Debug\main.src
017DC2                     A   105    _PlayerColor:
017DC2                     A   106    	DS	1
                           A   107    ;    1	#include <Stdlib.h>
                           A   108    ;    2	#include <String.h>
                           A   109    ;    3	
                           A   110    ;    4	#include "PROSE_Header.h"
                           A   111    ;    5	
                           A   112    ;    6	#include "screen.h"
                           A   113    ;    7	#include "game.h"
                           A   114    ;    8	
                           A   115    ;    9	typedef struct {
                           A   116    ;   10		char *loc;
                           A   117    ;   11		int len;
                           A   118    ;   12		char *looploc;
                           A   119    ;   13		int looplen;
                           A   120    ;   14		unsigned short period;
                           A   121    ;   15		unsigned char volume;
                           A   122    ;   16	} SndRec;
                           A   123    ;   17	
                           A   124    ;   18	static char *TxtPnt;
                           A   125    ;   19	static SndRec *Snd;
                           A   126    ;   20	
                           A   127    ;   21	static SndRec Click, Chs1, Chs2;
                           A   128    ;   22	
                           A   129    ;   23	void WaitKeyPress(void);
                           A   130    ;   24	unsigned char GetKeyScanCode(void);
                           A   131    ;   25	void print(const char *txt);
                           A   132    ;   26	void Disable_Audio(void);
                           A   133    ;   27	void Play_Raw_Audio(const SndRec *S);
                           A   134    ;   28	
                           A   135    ;   29	void MyMain(void);
                           A   136    ;   30	/*-------------------------------------
                           A   137    ;   31	
                           A   138    ;   32	typedef struct{
                           A   139    ;   33		char ri, co;
                           A   140    ;   34		char *Img;
                           A   141    ;   35	} PlSel;
                           A   142    ;   36	
                           A   143    ;   37	char *mSelect, *mWhite, *mBlack, *mNorm
                           A   144    ;   38	char *wSel, *rSel, *bsel, *wPiece, *bPi
                           A   145    ;   39	char *Bianchi[6], *Neri[6];
                           A   146    ;   40	char mColore = 0, mLivello = 0, chAbort
                           A   147    ;   41	unsigned char gScanCode;
                           A   148    ;   42	char Mossa1[2], Mossa2[2];
                           A   149    ;   43	PlSel User;
                           A   150    ;   44	char PlayerColor;
                           A   151    	SEGMENT CODE
                           A   152    ;   45	
                           A   153    ;   46	
                           A   154    ;   47	void Load_Components(void);
                           A   155    ;   48	void Draw_Image(int PosX, int PosY, int
                           A   156    ;   49	void Draw_Trans_Image(int PosX, int Pos
Zilog eZ80 Macro Assembler Version 4.1 (10060805) RELISTED26-Aug-11     11:07:39     page:   4


PC     Object              I  Line    Source C:\Users\fog76\Desktop\CHFIGH~2\Debug\main.src
                           A   157    ;   50	void Fill_Rectangle(int PosX, int PosY,
                           A   158    ;   51	char MainMenu(void);
                           A   159    ;   52	
                           A   160    ;   53	void Crea_Mossa(void);
                           A   161    ;   54	
                           A   162    ;   55	void Show_End_Screen(char win);
                           A   163    ;   56	
                           A   164    ;   57	void Free_All_Mem(void);
                           A   165    ;   58	/*-------------------------------------
                           A   166    ;   59	
                           A   167    ;   60	void main(void)
                           A   168    ;   61	{
010000                     A   169    _main:
                           A   170    ;   62		INIT_HARDWARE;
       0000009A            A   171    PB_DR		equ 09Ah
       0000009B            A   172    PB_DDR		equ 09Bh
       0000009C            A   173    PB_ALT1		equ 09Ch
       0000009D            A   174    PB_ALT2		equ 09Dh
       0000009E            A   175    PC_DR		equ 09Eh
       0000009F            A   176    PC_DDR		equ 09Fh
       000000A0            A   177    PC_ALT1		equ 0A0h
       000000A1            A   178    PC_ALT2		equ 0A1h
       000000A2            A   179    PD_DR		equ 0A2h
       000000A3            A   180    PD_DDR		equ 0A3h
       000000A4            A   181    PD_ALT1		equ 0A4h
       000000A5            A   182    PD_ALT2		equ 0A5h
       000000C0            A   183    UART0_RBR	equ 0C0h
       000000C0            A   184    UART0_THR	equ 0C0h
       000000C0            A   185    UART0_BRG_L	equ 0C0h
       000000C1            A   186    UART0_BRG_H	equ 0C1h
       000000C1            A   187    UART0_IER	equ 0C1h
       000000C2            A   188    UART0_FCTL	equ 0C2h
       000000C3            A   189    UART0_LCTL	equ 0C3h
       000000C4            A   190    UART0_MCTL	equ 0C4h
       000000C5            A   191    UART0_LSR	equ 0C5h
       000000C6            A   192    UART0_MSR	equ 0C6h
       000000A8            A   193    CS0_LBR		equ 0A8h
       000000A9            A   194    CS0_UBR		equ 0A9h
       000000AA            A   195    CS0_CTL		equ 0AAh
       000000AB            A   196    CS1_LBR		equ 0ABh
       000000AC            A   197    CS1_UBR		equ 0ACh
       000000AD            A   198    CS1_CTL		equ 0ADh
       000000AE            A   199    CS2_LBR		equ 0AEh
       000000AF            A   200    CS2_UBR		equ 0AFh
       000000B0            A   201    CS2_CTL		equ 0B0h
       000000B1            A   202    CS3_LBR		equ 0B1h
       000000B2            A   203    CS3_UBR		equ 0B2h
       000000B3            A   204    CS3_CTL		equ 0B3h
       00000080            A   205    TMR0_CTL		equ 080h
       00000081            A   206    TMR0_DR_L	equ 081h
       00000081            A   207    TMR0_RR_L	equ 081h
       00000082            A   208    TMR0_DR_H	equ 082h
Zilog eZ80 Macro Assembler Version 4.1 (10060805) RELISTED26-Aug-11     11:07:39     page:   5


PC     Object              I  Line    Source C:\Users\fog76\Desktop\CHFIGH~2\Debug\main.src
       00000082            A   209    TMR0_RR_H	equ 082h
       00000092            A   210    TMR_ISS		equ 092h
       000000ED            A   211    RTC_CTRL		equ 0EDh
       000000EC            A   212    RTC_ACTRL	equ 0ECh
       000000E0            A   213    RTC_SEC		equ 0E0h
       000000E1            A   214    RTC_MIN		equ 0E1h
       000000E2            A   215    RTC_HRS		equ 0E2h
       000000E3            A   216    RTC_DOW		equ 0E3h
       000000E4            A   217    RTC_DOM		equ 0E4h
       000000E5            A   218    RTC_MON		equ 0E5h
       000000E6            A   219    RTC_YR		equ 0E6h
       000000E7            A   220    RTC_CEN		equ 0E7h
       00000000            A   221    port_pic_data		equ 000h
       00000001            A   222    port_pic_ctrl		equ 001h
       00000001            A   223    port_hw_flags		equ 001h
       00000002            A   224    port_sdc_ctrl		equ 002h
       00000002            A   225    port_keyboard_data	equ 002h
       00000003            A   226    port_sdc_data		equ 003h
       00000004            A   227    port_memory_paging	equ 004h
       00000005            A   228    port_irq_ctrl		equ 005h
       00000006            A   229    port_nmi_ack			equ 006h
       00000007            A   230    port_ps2_ctrl		equ 007h
       00000008            A   231    port_selector		equ 008h
       00000006            A   232    port_mouse_data		equ 006h
       00000009            A   233    port_clear_flags		equ 009h
       00000000            A   234    sdc_power			equ 0h
       00000001            A   235    sdc_cs				equ 1h
       00000002            A   236    sdc_speed			equ 2h
       00000004            A   237    sdc_serializer_busy	equ 4h
       00000005            A   238    vrt					equ 5h
       00000000            A   239    sysram_addr			equ 0000000h
       00800000            A   240    vram_a_addr			equ 0800000h
       00C00000            A   241    vram_b_addr			equ 0C00000h
       00FF0000            A   242    hw_palette			equ 0ff0000h
       00FF0800            A   243    hw_sprite_registers	equ 0ff0800h
       00FF1000            A   244    hw_video_parameters	equ 0ff1000h
       00FF1400            A   245    hw_audio_registers	equ 0ff1400h
       00FF1800            A   246    hw_video_settings	equ 0ff1800h
       00FF1000            A   247    tilemap_parameters	equ hw_video_parameters + 0
       00FF1020            A   248    bitmap_parameters	equ hw_video_parameters + 2
       00FF1800            A   249    video_control		equ hw_video_settings + 00h
       00FF1801            A   250    sprite_control		equ hw_video_settings + 01h
       00FF1802            A   251    bgnd_palette_select	equ hw_video_settings + 02h
       00FF1803            A   252    sprite_palette_select	equ hw_video_settings +
       00FF1804            A   253    right_border_position	equ hw_video_settings +
       00000A00            A   254    os_start			equ 0A00h
       00000A14            A   255    prose_return		equ os_start + 14h
       00000A20            A   256    prose_kernal		equ os_start + 20h
                           A   257    ;   63		INIT_KJT;
       00000000            A   258    kr_mount_volumes			equ 00h
       00000001            A   259    kr_get_device_info		equ 01h
       00000002            A   260    kr_check_volume_format	equ 02h
Zilog eZ80 Macro Assembler Version 4.1 (10060805) RELISTED26-Aug-11     11:07:39     page:   6


PC     Object              I  Line    Source C:\Users\fog76\Desktop\CHFIGH~2\Debug\main.src
       00000003            A   261    kr_change_volume			equ 03h
       00000004            A   262    kr_get_volume_info		equ 04h
       00000005            A   263    kr_format_device			equ 05h
       00000006            A   264    kr_make_dir				equ 06h
       00000007            A   265    kr_change_dir			equ 07h
       00000008            A   266    kr_parent_dir			equ 08h
       00000009            A   267    kr_root_dir				equ 09h
       0000000A            A   268    kr_delete_dir			equ 0Ah
       0000000B            A   269    kr_find_file				equ 0Bh
       0000000C            A   270    kr_set_file_pointer		equ 0Ch
       0000000D            A   271    kr_set_load_length		equ 0Dh
       0000000E            A   272    kr_read_file				equ 0Eh
       0000000F            A   273    kr_erase_file			equ 0Fh
       00000010            A   274    kr_rename_file			equ 10h
       00000011            A   275    kr_create_file			equ 11h
       00000012            A   276    kr_write_file			equ 12h
       00000013            A   277    kr_get_total_sectors		equ 13h
       00000014            A   278    kr_dir_list_first_entry	equ 14h
       00000015            A   279    kr_dir_list_get_entry	equ 15h
       00000016            A   280    kr_dir_list_next_entry	equ 16h
       00000017            A   281    kr_read_sector			equ 17h
       00000018            A   282    kr_write_sector			equ 18h
       00000019            A   283    kr_file_sector_list		equ 19h
       0000001A            A   284    kr_get_dir_cluster		equ 1Ah
       0000001B            A   285    kr_set_dir_cluster		equ 1Bh
       0000001C            A   286    kr_get_dir_name			equ 1Ch
       0000001D            A   287    kr_wait_key				equ 1Dh
       0000001E            A   288    kr_get_key				equ 1Eh
       0000001F            A   289    kr_get_key_mod_flags		equ 1Fh
       00000020            A   290    kr_serial_receive_header	equ 20h
       00000021            A   291    kr_serial_receive_file	equ 21h
       00000022            A   292    kr_serial_send_file		equ 22h
       00000023            A   293    kr_serial_tx_byte		equ 23h
       00000024            A   294    kr_serial_rx_byte		equ 24h
       00000025            A   295    kr_print_string			equ 25h
       00000026            A   296    kr_clear_screen			equ 26h
       00000027            A   297    kr_wait_vrt				equ 27h
       00000028            A   298    kr_set_cursor_position	equ 28h
       00000029            A   299    kr_plot_char				equ 29h
       0000002A            A   300    kr_set_pen				equ 2Ah
       0000002B            A   301    kr_background_colours	equ 2Bh
       0000002C            A   302    kr_draw_cursor			equ 2Ch
       0000002D            A   303    kr_get_pen				equ 2Dh
       0000002E            A   304    kr_scroll_up				equ 2Eh
       0000002F            A   305    kr_os_display			equ 2Fh
       00000030            A   306    kr_get_display_size		equ 30h
       00000031            A   307    kr_get_charmap_addr_xy	equ 31h
       00000032            A   308    kr_get_cursor_position	equ 32h
       00000033            A   309    kr_set_envar				equ 33h
       00000034            A   310    kr_get_envar				equ 34h
       00000035            A   311    kr_delete_envar			equ 35h
       00000036            A   312    kr_set_mouse_window		equ 36h
Zilog eZ80 Macro Assembler Version 4.1 (10060805) RELISTED26-Aug-11     11:07:39     page:   7


PC     Object              I  Line    Source C:\Users\fog76\Desktop\CHFIGH~2\Debug\main.src
       00000037            A   313    kr_get_mouse_position	equ 37h
       00000038            A   314    kr_get_mouse_motion		equ 38h
       00000039            A   315    kr_time_delay			equ 39h
       0000003A            A   316    kr_compare_strings		equ 3Ah
       0000003B            A   317    kr_hex_byte_to_ascii		equ 3Bh
       0000003C            A   318    kr_ascii_to_hex_word		equ 3Ch
       0000003D            A   319    kr_get_string			equ 3Dh
       0000003E            A   320    kr_get_version			equ 3Eh
       0000003F            A   321    kr_dont_store_registers	equ 3Fh
       00000040            A   322    kr_get_font_info			equ 40h
       00000041            A   323    kr_read_rtc				equ 41h
       00000042            A   324    kr_write_rtc				equ 42h
       00000043            A   325    kr_get_keymap_location	equ 43h
       00000045            A   326    kr_play_audio			equ 45h
       00000046            A   327    kr_disable_audio			equ 46h
                           A   328    ;   64		
                           A   329    ;   65		CREATE_HEADER;
010000 18 0E               A   330    jr skip_header
010002 50524F              A   331    db 'PRO'
010005 000001              A   332    mb_loc dw24 10000h
010008 000000              A   333    dw24 0
01000B 0000                A   334    dw 0
01000D 0000                A   335    dw 0
01000F 01                  A   336    db 1
010010                     A   337    skip_header
                           A   338    ;   66		
                           A   339    ;   67		MyMain();	
010010 CD F1 5B 01         A   340    	CALL	_MyMain
                           A   341    ;   68		
                           A   342    ;   69		QUIT_TO_PROSE;
010014 AF                  A   343    xor a
010015 5BC3140A 00         A   344    jp.lil prose_return
01001A C9                  A   345    	RET	
                           A   346    
                           A   347    
                           A   348    ;**************************** _main ***********
                           A   349    ;Name                         Addr/Register   S
                           A   350    ;_MyMain                             IMPORT  --
                           A   351    
                           A   352    
                           A   353    ; Stack Frame Size: 6 (bytes)
                           A   354    ;       Spill Code: 0 (instruction)
                           A   355    
                           A   356    
                           A   357    	SEGMENT BSS
017DC3                     A   358    _MainFile:
017DC3                     A   359    	DS	3
017DC6                     A   360    _MainDest:
017DC6                     A   361    	DS	3
017DC9                     A   362    _MainFileSize:
017DC9                     A   363    	DS	3
017DCC                     A   364    _Palette:
Zilog eZ80 Macro Assembler Version 4.1 (10060805) RELISTED26-Aug-11     11:07:39     page:   8


PC     Object              I  Line    Source C:\Users\fog76\Desktop\CHFIGH~2\Debug\main.src
017DCC                     A   365    	DS	512
                           A   366    	SEGMENT CODE
01001B                     A   367    _Set_320_240_Mode:
01001B DDE5                A   368    push ix
01001D 3E06                A   369    ld a, 0110b
01001F 320018FF            A   370    ld (video_control), a
010023 3E00                A   371    ld a, 0
010025 320218FF            A   372    ld (bgnd_palette_select), a
010029 3E63                A   373    ld a, 99
01002B 320418FF            A   374    ld (right_border_position), a
01002F DD212010 FF         A   375    ld ix, bitmap_parameters
010034 21005000            A   376    ld hl, 1024 * 20
010038 DD2F00              A   377    ld (ix), hl
01003B DD360401            A   378    ld (ix+04h), 1
01003F DD360800            A   379    ld (ix+08h), 0
010043 DD360C00            A   380    ld (ix+0ch), 0
010047 DD361027            A   381    ld (ix+10h), 0 + (320 / 8) - 1
01004B 2A D2 7F 01         A   382    ld hl, (_VideoMem)
01004F 3600                A   383    ld (hl), 0
010051 E5                  A   384    push hl
010052 D1                  A   385    pop de
010053 13                  A   386    inc de
010054 01002C01            A   387    ld bc, 320*240
010058 0B                  A   388    dec bc
010059 EDB0                A   389    ldir
01005B DDE1                A   390    pop ix
01005D C9                  A   391    	RET	
                           A   392    
                           A   393    
                           A   394    ;**************************** _Set_320_240_Mode
                           A   395    ;Name                         Addr/Register   S
                           A   396    
                           A   397    
                           A   398    ; Stack Frame Size: 6 (bytes)
                           A   399    ;       Spill Code: 0 (instruction)
                           A   400    
                           A   401    
01005E                     A   402    _Load_Raw_Data:
01005E CD 96 70 01         A   403    	CALL	__frameset0
010062 DD0706              A   404    	LD	BC,(IX+6)
010065 ED43 C3 7D 01       A   405    	LD	(_MainFile),BC
01006A DD0709              A   406    	LD	BC,(IX+9)
01006D ED43 C6 7D 01       A   407    	LD	(_MainDest),BC
010072 DD070C              A   408    	LD	BC,(IX+12)
010075 ED43 C9 7D 01       A   409    	LD	(_MainFileSize),BC
01007A DDE5                A   410    push ix
01007C 2A C3 7D 01         A   411    ld hl, (_MainFile)
010080 3E0B                A   412    ld a, kr_find_file
010082 5BCD200A 00         A   413    call.lil prose_kernal
010087 DDE1                A   414    pop ix
010089 20 21               A   415    jr nz, FileError
01008B DDE5                A   416    push ix
Zilog eZ80 Macro Assembler Version 4.1 (10060805) RELISTED26-Aug-11     11:07:39     page:   9


PC     Object              I  Line    Source C:\Users\fog76\Desktop\CHFIGH~2\Debug\main.src
01008D ED5B C9 7D 01       A   417    ld de, (_MainFileSize)
010092 3E0D                A   418    ld a, kr_set_load_length
010094 5BCD200A 00         A   419    call.lil prose_kernal
010099 DDE1                A   420    pop ix
01009B DDE5                A   421    push ix
01009D 2A C6 7D 01         A   422    ld hl, (_MainDest)
0100A1 3E0E                A   423    ld a, kr_read_file
0100A3 5BCD200A 00         A   424    call.lil prose_kernal
0100A8 20 02               A   425    jr nz, FileError
0100AA DDE1                A   426    pop ix
0100AC                     A   427    FileError:
0100AC DDF9                A   428    	LD	SP,IX
0100AE DDE1                A   429    	POP	IX
0100B0 C9                  A   430    	RET	
                           A   431    
                           A   432    
                           A   433    ;**************************** _Load_Raw_Data **
                           A   434    ;Name                         Addr/Register   S
                           A   435    ;_MainFileSize                       STATIC    
                           A   436    ;_MainDest                           STATIC    
                           A   437    ;_MainFile                           STATIC    
                           A   438    ;Size                                 IX+12    
                           A   439    ;Dest                                  IX+9    
                           A   440    ;FName                                 IX+6    
                           A   441    
                           A   442    
                           A   443    ; Stack Frame Size: 15 (bytes)
                           A   444    ;       Spill Code: 0 (instruction)
                           A   445    
                           A   446    
0100B1                     A   447    _BlackOut:
0100B1 21FDFFFF            A   448    	LD	HL,-3
0100B5 CD BF 70 01         A   449    	CALL	__frameset
0100B9 01000000            A   450    	LD	BC,0
0100BD DD0FFD              A   451    	LD	(IX+-3),BC
0100C0 18 15               A   452    	JR	L_6
0100C2                     A   453    L_4:
0100C2 DD27FD              A   454    	LD	HL,(IX+-3)
0100C5 29                  A   455    	ADD	HL,HL
0100C6 01 CC 7D 01         A   456    	LD	BC,_Palette
0100CA 09                  A   457    	ADD	HL,BC
0100CB 3600                A   458    	LD	(HL),0
0100CD 23                  A   459    	INC	HL
0100CE 3600                A   460    	LD	(HL),0
0100D0 DD07FD              A   461    	LD	BC,(IX+-3)
0100D3 03                  A   462    	INC	BC
0100D4 DD0FFD              A   463    	LD	(IX+-3),BC
0100D7                     A   464    L_6:
0100D7 01000100            A   465    	LD	BC,256
0100DB DD27FD              A   466    	LD	HL,(IX+-3)
0100DE B7                  A   467    	OR	A,A
0100DF ED42                A   468    	SBC	HL,BC
Zilog eZ80 Macro Assembler Version 4.1 (10060805) RELISTED26-Aug-11     11:07:39     page:  10


PC     Object              I  Line    Source C:\Users\fog76\Desktop\CHFIGH~2\Debug\main.src
0100E1 FA EB 00 01         A   469    	JP	M,L__4
0100E5 EA C2 00 01         A   470    	JP	PE,L_4
0100E9 18 04               A   471    	JR	L__5
0100EB                     A   472    L__4:
0100EB E2 C2 00 01         A   473    	JP	PO,L_4
0100EF                     A   474    L__5:
0100EF 01000200            A   475    	LD	BC,512
0100F3 C5                  A   476    	PUSH	BC
0100F4 01 CC 7D 01         A   477    	LD	BC,_Palette
0100F8 C5                  A   478    	PUSH	BC
0100F9 ED4B D5 7F 01       A   479    	LD	BC,(_PaletteMem)
0100FE C5                  A   480    	PUSH	BC
0100FF CD A3 70 01         A   481    	CALL	_memcpy
010103 C1                  A   482    	POP	BC
010104 C1                  A   483    	POP	BC
010105 C1                  A   484    	POP	BC
010106 DDF9                A   485    	LD	SP,IX
010108 DDE1                A   486    	POP	IX
01010A C9                  A   487    	RET	
                           A   488    
                           A   489    
                           A   490    ;**************************** _BlackOut *******
                           A   491    ;Name                         Addr/Register   S
                           A   492    ;_PaletteMem                         STATIC    
                           A   493    ;_memcpy                             IMPORT  --
                           A   494    ;_Palette                            STATIC    
                           A   495    ;i                                     IX-3    
                           A   496    
                           A   497    
                           A   498    ; Stack Frame Size: 9 (bytes)
                           A   499    ;       Spill Code: 0 (instruction)
                           A   500    
                           A   501    
01010B                     A   502    _PutPixel:
01010B CD 96 70 01         A   503    	CALL	__frameset0
01010F DD2709              A   504    	LD	HL,(IX+9)
010112 3E08                A   505    	LD	A,8
010114 CD 4E 72 01         A   506    	CALL	__ishl_b
010118 E5D1                A   507    	LD	DE,HL
01011A DD2709              A   508    	LD	HL,(IX+9)
01011D DD0706              A   509    	LD	BC,(IX+6)
010120 29                  A   510    	ADD	HL,HL
010121 29                  A   511    	ADD	HL,HL
010122 29                  A   512    	ADD	HL,HL
010123 29                  A   513    	ADD	HL,HL
010124 29                  A   514    	ADD	HL,HL
010125 29                  A   515    	ADD	HL,HL
010126 19                  A   516    	ADD	HL,DE
010127 09                  A   517    	ADD	HL,BC
010128 DD2F06              A   518    	LD	(IX+6),HL
01012B ED4B D2 7F 01       A   519    	LD	BC,(_VideoMem)
010130 09                  A   520    	ADD	HL,BC
Zilog eZ80 Macro Assembler Version 4.1 (10060805) RELISTED26-Aug-11     11:07:39     page:  11


PC     Object              I  Line    Source C:\Users\fog76\Desktop\CHFIGH~2\Debug\main.src
010131 DD7E0C              A   521    	LD	A,(IX+12)
010134 77                  A   522    	LD	(HL),A
010135 DDF9                A   523    	LD	SP,IX
010137 DDE1                A   524    	POP	IX
010139 C9                  A   525    	RET	
                           A   526    
                           A   527    
                           A   528    ;**************************** _PutPixel *******
                           A   529    ;Name                         Addr/Register   S
                           A   530    ;_VideoMem                           STATIC    
                           A   531    ;col                                  IX+12    
                           A   532    ;y                                     IX+9    
                           A   533    ;x                                     IX+6    
                           A   534    
                           A   535    
                           A   536    ; Stack Frame Size: 15 (bytes)
                           A   537    ;       Spill Code: 0 (instruction)
                           A   538    
                           A   539    
01013A                     A   540    _apertura:
01013A 2189FFFF            A   541    	LD	HL,-119
01013E CD BF 70 01         A   542    	CALL	__frameset
010142 01000000            A   543    	LD	BC,0
010146 DD0FFD              A   544    	LD	(IX+-3),BC
010149 18 5D               A   545    	JR	L_13
01014B                     A   546    L_11:
01014B 01 F9 7C 01         A   547    	LD	BC,_ap
01014F DD0FF7              A   548    	LD	(IX+-9),BC
010152 DD27FD              A   549    	LD	HL,(IX+-3)
010155 29                  A   550    	ADD	HL,HL
010156 29                  A   551    	ADD	HL,HL
010157 29                  A   552    	ADD	HL,HL
010158 E5C1                A   553    	LD	BC,HL
01015A C5D1                A   554    	LD	DE,BC
01015C DD27F7              A   555    	LD	HL,(IX+-9)
01015F 19                  A   556    	ADD	HL,DE
010160 DD2FFA              A   557    	LD	(IX+-6),HL
010163 DD31FA              A   558    	LD	IY,(IX+-6)
010166 11000000            A   559    	LD	DE,0
01016A FD1F00              A   560    	LD	(IY),DE
01016D FD360300            A   561    	LD	(IY+3),0
010171 FD1F04              A   562    	LD	(IY+4),DE
010174 FD360700            A   563    	LD	(IY+7),0
010178 DD27F7              A   564    	LD	HL,(IX+-9)
01017B C5D1                A   565    	LD	DE,BC
01017D 19                  A   566    	ADD	HL,DE
01017E E5FDE1              A   567    	LD	IY,HL
010181 11000000            A   568    	LD	DE,0
010185 FD1F00              A   569    	LD	(IY),DE
010188 FD360300            A   570    	LD	(IY+3),0
01018C DD27F7              A   571    	LD	HL,(IX+-9)
01018F 09                  A   572    	ADD	HL,BC
Zilog eZ80 Macro Assembler Version 4.1 (10060805) RELISTED26-Aug-11     11:07:39     page:  12


PC     Object              I  Line    Source C:\Users\fog76\Desktop\CHFIGH~2\Debug\main.src
010190 E5FDE1              A   573    	LD	IY,HL
010193 ED2304              A   574    	LEA	HL,IY+4
010196 01000000            A   575    	LD	BC,0
01019A ED0F                A   576    	LD	(HL),BC
01019C 23                  A   577    	INC	HL
01019D 23                  A   578    	INC	HL
01019E 23                  A   579    	INC	HL
01019F 3600                A   580    	LD	(HL),0
0101A1 DD07FD              A   581    	LD	BC,(IX+-3)
0101A4 03                  A   582    	INC	BC
0101A5 DD0FFD              A   583    	LD	(IX+-3),BC
0101A8                     A   584    L_13:
0101A8 01040000            A   585    	LD	BC,4
0101AC DD27FD              A   586    	LD	HL,(IX+-3)
0101AF B7                  A   587    	OR	A,A
0101B0 ED42                A   588    	SBC	HL,BC
0101B2 FA BC 01 01         A   589    	JP	M,L__9
0101B6 EA 4B 01 01         A   590    	JP	PE,L_11
0101BA 18 04               A   591    	JR	L__10
0101BC                     A   592    L__9:
0101BC E2 4B 01 01         A   593    	JP	PO,L_11
0101C0                     A   594    L__10:
0101C0 01C80000            A   595    	LD	BC,200
0101C4 21 D5 75 01         A   596    	LD	HL,_scac
0101C8 09                  A   597    	ADD	HL,BC
0101C9 DD2FC7              A   598    	LD	(IX+-57),HL
0101CC 01 F9 7C 01         A   599    	LD	BC,_ap
0101D0 DD0FCA              A   600    	LD	(IX+-54),BC
0101D3 DD31C7              A   601    	LD	IY,(IX+-57)
0101D6 FD2708              A   602    	LD	HL,(IY+8)
0101D9 FD5E0B              A   603    	LD	E,(IY+11)
0101DC 0140420F            A   604    	LD	BC,1000000
0101E0 AF                  A   605    	XOR	A,A
0101E1 CD 60 72 01         A   606    	CALL	__lmuls
0101E5 DD2FA4              A   607    	LD	(IX+-92),HL
0101E8 FD2710              A   608    	LD	HL,(IY+16)
0101EB DD73A7              A   609    	LD	(IX+-89),E
0101EE FD5E13              A   610    	LD	E,(IY+19)
0101F1 01102700            A   611    	LD	BC,10000
0101F5 AF                  A   612    	XOR	A,A
0101F6 CD 60 72 01         A   613    	CALL	__lmuls
0101FA 7B                  A   614    	LD	A,E
0101FB E5C1                A   615    	LD	BC,HL
0101FD DD27A4              A   616    	LD	HL,(IX+-92)
010200 DD5EA7              A   617    	LD	E,(IX+-89)
010203 CD 0B 6E 01         A   618    	CALL	__ladd
010207 01861400            A   619    	LD	BC,5254
01020B AF                  A   620    	XOR	A,A
01020C CD 0B 6E 01         A   621    	CALL	__ladd
010210 22 F9 7C 01         A   622    	LD	(_ap),HL
010214 7B                  A   623    	LD	A,E
010215 FD21 D5 75 01       A   624    	LD	IY,_scac
Zilog eZ80 Macro Assembler Version 4.1 (10060805) RELISTED26-Aug-11     11:07:39     page:  13


PC     Object              I  Line    Source C:\Users\fog76\Desktop\CHFIGH~2\Debug\main.src
01021A ED0378              A   625    	LEA	BC,IY+120
01021D 32 FC 7C 01         A   626    	LD	(_ap+3),A
010221 DD0FEB              A   627    	LD	(IX+-21),BC
010224 FD2754              A   628    	LD	HL,(IY+84)
010227 FD5E57              A   629    	LD	E,(IY+87)
01022A AF                  A   630    	XOR	A,A
01022B 0140420F            A   631    	LD	BC,1000000
01022F CD 60 72 01         A   632    	CALL	__lmuls
010233 DD2FA8              A   633    	LD	(IX+-88),HL
010236 DD31EB              A   634    	LD	IY,(IX+-21)
010239 FD270C              A   635    	LD	HL,(IY+12)
01023C DD73AB              A   636    	LD	(IX+-85),E
01023F FD5E0F              A   637    	LD	E,(IY+15)
010242 01102700            A   638    	LD	BC,10000
010246 AF                  A   639    	XOR	A,A
010247 CD 60 72 01         A   640    	CALL	__lmuls
01024B 7B                  A   641    	LD	A,E
01024C E5C1                A   642    	LD	BC,HL
01024E DD27A8              A   643    	LD	HL,(IX+-88)
010251 DD5EAB              A   644    	LD	E,(IX+-85)
010254 CD 0B 6E 01         A   645    	CALL	__ladd
010258 01550800            A   646    	LD	BC,2133
01025C AF                  A   647    	XOR	A,A
01025D CD 0B 6E 01         A   648    	CALL	__ladd
010261 FD21 F9 7C 01       A   649    	LD	IY,_ap
010266 FD2F04              A   650    	LD	(IY+4),HL
010269 21 D5 75 01         A   651    	LD	HL,_scac
01026D 01A00000            A   652    	LD	BC,160
010271 09                  A   653    	ADD	HL,BC
010272 FD7307              A   654    	LD	(IY+7),E
010275 DD2FCD              A   655    	LD	(IX+-51),HL
010278 DD31CD              A   656    	LD	IY,(IX+-51)
01027B ED0308              A   657    	LEA	BC,IY+8
01027E DD0FDC              A   658    	LD	(IX+-36),BC
010281 DD31DC              A   659    	LD	IY,(IX+-36)
010284 FD2700              A   660    	LD	HL,(IY)
010287 FD5E03              A   661    	LD	E,(IY+3)
01028A DD31CD              A   662    	LD	IY,(IX+-51)
01028D DD2FC2              A   663    	LD	(IX+-62),HL	; spill
010290 ED2310              A   664    	LEA	HL,IY+16
010293 DD2FAC              A   665    	LD	(IX+-84),HL	; spill
010296 DD27C2              A   666    	LD	HL,(IX+-62)	; unspill
010299 0140420F            A   667    	LD	BC,1000000
01029D AF                  A   668    	XOR	A,A
01029E CD 60 72 01         A   669    	CALL	__lmuls
0102A2 DD2FC2              A   670    	LD	(IX+-62),HL	; spill
0102A5 DD27AC              A   671    	LD	HL,(IX+-84)	; unspill
0102A8 DD2FDF              A   672    	LD	(IX+-33),HL
0102AB DD27C2              A   673    	LD	HL,(IX+-62)	; unspill
0102AE DD31DF              A   674    	LD	IY,(IX+-33)
0102B1 DD73AF              A   675    	LD	(IX+-81),E
0102B4 DD2FB0              A   676    	LD	(IX+-80),HL
Zilog eZ80 Macro Assembler Version 4.1 (10060805) RELISTED26-Aug-11     11:07:39     page:  14


PC     Object              I  Line    Source C:\Users\fog76\Desktop\CHFIGH~2\Debug\main.src
0102B7 FD2700              A   677    	LD	HL,(IY)
0102BA FD5E03              A   678    	LD	E,(IY+3)
0102BD 01102700            A   679    	LD	BC,10000
0102C1 AF                  A   680    	XOR	A,A
0102C2 CD 60 72 01         A   681    	CALL	__lmuls
0102C6 7B                  A   682    	LD	A,E
0102C7 E5C1                A   683    	LD	BC,HL
0102C9 DD27B0              A   684    	LD	HL,(IX+-80)
0102CC DD5EAF              A   685    	LD	E,(IX+-81)
0102CF CD 0B 6E 01         A   686    	CALL	__ladd
0102D3 01941000            A   687    	LD	BC,4244
0102D7 AF                  A   688    	XOR	A,A
0102D8 CD 0B 6E 01         A   689    	CALL	__ladd
0102DC DD2FBF              A   690    	LD	(IX+-65),HL	; spill
0102DF DD31CA              A   691    	LD	IY,(IX+-54)
0102E2 DD27BF              A   692    	LD	HL,(IX+-65)	; unspill
0102E5 FD2F08              A   693    	LD	(IY+8),HL
0102E8 21 D5 75 01         A   694    	LD	HL,_scac
0102EC DD74C6              A   695    	LD	(IX+-58),H	; spill
0102EF DD73C5              A   696    	LD	(IX+-59),E	; spill
0102F2 DD66C6              A   697    	LD	H,(IX+-58)	; unspill
0102F5 01180100            A   698    	LD	BC,280
0102F9 09                  A   699    	ADD	HL,BC
0102FA DD74C6              A   700    	LD	(IX+-58),H	; spill
0102FD DD66C5              A   701    	LD	H,(IX+-59)	; unspill
010300 FD740B              A   702    	LD	(IY+11),H
010303 DD66C6              A   703    	LD	H,(IX+-58)	; unspill
010306 DD2FD0              A   704    	LD	(IX+-48),HL
010309 DD31D0              A   705    	LD	IY,(IX+-48)
01030C ED0304              A   706    	LEA	BC,IY+4
01030F DD0FD3              A   707    	LD	(IX+-45),BC
010312 DD31D3              A   708    	LD	IY,(IX+-45)
010315 FD2700              A   709    	LD	HL,(IY)
010318 FD5E03              A   710    	LD	E,(IY+3)
01031B 0140420F            A   711    	LD	BC,1000000
01031F AF                  A   712    	XOR	A,A
010320 CD 60 72 01         A   713    	CALL	__lmuls
010324 DD2FA1              A   714    	LD	(IX+-95),HL
010327 21 D5 75 01         A   715    	LD	HL,_scac
01032B 01F00000            A   716    	LD	BC,240
01032F 09                  A   717    	ADD	HL,BC
010330 DD2FD6              A   718    	LD	(IX+-42),HL
010333 DD31D6              A   719    	LD	IY,(IX+-42)
010336 ED030C              A   720    	LEA	BC,IY+12
010339 DD0FD9              A   721    	LD	(IX+-39),BC
01033C DD31D9              A   722    	LD	IY,(IX+-39)
01033F DD73A0              A   723    	LD	(IX+-96),E
010342 FD5E03              A   724    	LD	E,(IY+3)
010345 FD2700              A   725    	LD	HL,(IY)
010348 01102700            A   726    	LD	BC,10000
01034C AF                  A   727    	XOR	A,A
01034D CD 60 72 01         A   728    	CALL	__lmuls
Zilog eZ80 Macro Assembler Version 4.1 (10060805) RELISTED26-Aug-11     11:07:39     page:  15


PC     Object              I  Line    Source C:\Users\fog76\Desktop\CHFIGH~2\Debug\main.src
010351 7B                  A   729    	LD	A,E
010352 E5C1                A   730    	LD	BC,HL
010354 DD27A1              A   731    	LD	HL,(IX+-95)
010357 DD5EA0              A   732    	LD	E,(IX+-96)
01035A CD 0B 6E 01         A   733    	CALL	__ladd
01035E 01FB1B00            A   734    	LD	BC,7163
010362 AF                  A   735    	XOR	A,A
010363 CD 0B 6E 01         A   736    	CALL	__ladd
010367 DD31CA              A   737    	LD	IY,(IX+-54)
01036A FD2F0C              A   738    	LD	(IY+12),HL
01036D FD730F              A   739    	LD	(IY+15),E
010370 FD2F10              A   740    	LD	(IY+16),HL
010373 FD7313              A   741    	LD	(IY+19),E
010376 DD27BF              A   742    	LD	HL,(IX+-65)	; unspill
010379 FD2F14              A   743    	LD	(IY+20),HL
01037C DD66C5              A   744    	LD	H,(IX+-59)	; unspill
01037F FD7417              A   745    	LD	(IY+23),H
010382 DD31D0              A   746    	LD	IY,(IX+-48)
010385 ED0308              A   747    	LEA	BC,IY+8
010388 DD0FE2              A   748    	LD	(IX+-30),BC
01038B DD31E2              A   749    	LD	IY,(IX+-30)
01038E FD2700              A   750    	LD	HL,(IY)
010391 FD5E03              A   751    	LD	E,(IY+3)
010394 0140420F            A   752    	LD	BC,1000000
010398 AF                  A   753    	XOR	A,A
010399 CD 60 72 01         A   754    	CALL	__lmuls
01039D DD2F9D              A   755    	LD	(IX+-99),HL
0103A0 DD31D0              A   756    	LD	IY,(IX+-48)
0103A3 FD270C              A   757    	LD	HL,(IY+12)
0103A6 DD739C              A   758    	LD	(IX+-100),E
0103A9 FD5E0F              A   759    	LD	E,(IY+15)
0103AC 01102700            A   760    	LD	BC,10000
0103B0 AF                  A   761    	XOR	A,A
0103B1 CD 60 72 01         A   762    	CALL	__lmuls
0103B5 7B                  A   763    	LD	A,E
0103B6 E5C1                A   764    	LD	BC,HL
0103B8 DD279D              A   765    	LD	HL,(IX+-99)
0103BB DD5E9C              A   766    	LD	E,(IX+-100)
0103BE CD 0B 6E 01         A   767    	CALL	__ladd
0103C2 01691C00            A   768    	LD	BC,7273
0103C6 AF                  A   769    	XOR	A,A
0103C7 CD 0B 6E 01         A   770    	CALL	__ladd
0103CB DD31CA              A   771    	LD	IY,(IX+-54)
0103CE FD2F18              A   772    	LD	(IY+24),HL
0103D1 FD731B              A   773    	LD	(IY+27),E
0103D4 DD31D6              A   774    	LD	IY,(IX+-42)
0103D7 FD2704              A   775    	LD	HL,(IY+4)
0103DA FD5E07              A   776    	LD	E,(IY+7)
0103DD 0140420F            A   777    	LD	BC,1000000
0103E1 AF                  A   778    	XOR	A,A
0103E2 CD 60 72 01         A   779    	CALL	__lmuls
0103E6 DD739B              A   780    	LD	(IX+-101),E
Zilog eZ80 Macro Assembler Version 4.1 (10060805) RELISTED26-Aug-11     11:07:39     page:  16


PC     Object              I  Line    Source C:\Users\fog76\Desktop\CHFIGH~2\Debug\main.src
0103E9 DD2F98              A   781    	LD	(IX+-104),HL
0103EC DD31E2              A   782    	LD	IY,(IX+-30)
0103EF FD2700              A   783    	LD	HL,(IY)
0103F2 FD5E03              A   784    	LD	E,(IY+3)
0103F5 01102700            A   785    	LD	BC,10000
0103F9 AF                  A   786    	XOR	A,A
0103FA CD 60 72 01         A   787    	CALL	__lmuls
0103FE 7B                  A   788    	LD	A,E
0103FF E5C1                A   789    	LD	BC,HL
010401 DD2798              A   790    	LD	HL,(IX+-104)
010404 DD5E9B              A   791    	LD	E,(IX+-101)
010407 CD 0B 6E 01         A   792    	CALL	__ladd
01040B 011C1800            A   793    	LD	BC,6172
01040F AF                  A   794    	XOR	A,A
010410 CD 0B 6E 01         A   795    	CALL	__ladd
010414 DD31CA              A   796    	LD	IY,(IX+-54)
010417 FD2F1C              A   797    	LD	(IY+28),HL
01041A FD731F              A   798    	LD	(IY+31),E
01041D 01 19 7D 01         A   799    	LD	BC,_ap+32
010421 DD0FE5              A   800    	LD	(IX+-27),BC
010424 DD31CD              A   801    	LD	IY,(IX+-51)
010427 ED031C              A   802    	LEA	BC,IY+28
01042A DD0FEE              A   803    	LD	(IX+-18),BC
01042D DD31EE              A   804    	LD	IY,(IX+-18)
010430 FD2700              A   805    	LD	HL,(IY)
010433 FD5E03              A   806    	LD	E,(IY+3)
010436 DD31CD              A   807    	LD	IY,(IX+-51)
010439 DD2FC2              A   808    	LD	(IX+-62),HL	; spill
01043C ED2314              A   809    	LEA	HL,IY+20
01043F DD2F95              A   810    	LD	(IX+-107),HL	; spill
010442 DD27C2              A   811    	LD	HL,(IX+-62)	; unspill
010445 0140420F            A   812    	LD	BC,1000000
010449 AF                  A   813    	XOR	A,A
01044A CD 60 72 01         A   814    	CALL	__lmuls
01044E DD2FC2              A   815    	LD	(IX+-62),HL	; spill
010451 DD2795              A   816    	LD	HL,(IX+-107)	; unspill
010454 DD2FF1              A   817    	LD	(IX+-15),HL
010457 DD27C2              A   818    	LD	HL,(IX+-62)	; unspill
01045A DD31F1              A   819    	LD	IY,(IX+-15)
01045D DD7394              A   820    	LD	(IX+-108),E
010460 DD2F91              A   821    	LD	(IX+-111),HL
010463 FD2700              A   822    	LD	HL,(IY)
010466 FD5E03              A   823    	LD	E,(IY+3)
010469 01102700            A   824    	LD	BC,10000
01046D AF                  A   825    	XOR	A,A
01046E CD 60 72 01         A   826    	CALL	__lmuls
010472 7B                  A   827    	LD	A,E
010473 E5C1                A   828    	LD	BC,HL
010475 DD2791              A   829    	LD	HL,(IX+-111)
010478 DD5E94              A   830    	LD	E,(IX+-108)
01047B CD 0B 6E 01         A   831    	CALL	__ladd
01047F 01891200            A   832    	LD	BC,4745
Zilog eZ80 Macro Assembler Version 4.1 (10060805) RELISTED26-Aug-11     11:07:39     page:  17


PC     Object              I  Line    Source C:\Users\fog76\Desktop\CHFIGH~2\Debug\main.src
010483 AF                  A   833    	XOR	A,A
010484 CD 0B 6E 01         A   834    	CALL	__ladd
010488 DD2FBC              A   835    	LD	(IX+-68),HL	; spill
01048B FD21 F9 7C 01       A   836    	LD	IY,_ap
010490 DD27BC              A   837    	LD	HL,(IX+-68)	; unspill
010493 FD2F20              A   838    	LD	(IY+32),HL
010496 DD73BB              A   839    	LD	(IX+-69),E	; spill
010499 FD7323              A   840    	LD	(IY+35),E
01049C DD31C7              A   841    	LD	IY,(IX+-57)
01049F ED031C              A   842    	LEA	BC,IY+28
0104A2 DD0FE8              A   843    	LD	(IX+-24),BC
0104A5 DD31E8              A   844    	LD	IY,(IX+-24)
0104A8 FD2700              A   845    	LD	HL,(IY)
0104AB FD5E03              A   846    	LD	E,(IY+3)
0104AE 0140420F            A   847    	LD	BC,1000000
0104B2 AF                  A   848    	XOR	A,A
0104B3 CD 60 72 01         A   849    	CALL	__lmuls
0104B7 DD2FB8              A   850    	LD	(IX+-72),HL
0104BA DD31C7              A   851    	LD	IY,(IX+-57)
0104BD FD2718              A   852    	LD	HL,(IY+24)
0104C0 DD73B7              A   853    	LD	(IX+-73),E
0104C3 FD5E1B              A   854    	LD	E,(IY+27)
0104C6 01102700            A   855    	LD	BC,10000
0104CA AF                  A   856    	XOR	A,A
0104CB CD 60 72 01         A   857    	CALL	__lmuls
0104CF DD7EB7              A   858    	LD	A,(IX+-73)
0104D2 DD07B8              A   859    	LD	BC,(IX+-72)
0104D5 CD 0B 6E 01         A   860    	CALL	__ladd
0104D9 017C1600            A   861    	LD	BC,5756
0104DD AF                  A   862    	XOR	A,A
0104DE CD 0B 6E 01         A   863    	CALL	__ladd
0104E2 FD21 F9 7C 01       A   864    	LD	IY,_ap
0104E7 FD2F24              A   865    	LD	(IY+36),HL
0104EA FD7327              A   866    	LD	(IY+39),E
0104ED DD31C7              A   867    	LD	IY,(IX+-57)
0104F0 FD2714              A   868    	LD	HL,(IY+20)
0104F3 FD5E17              A   869    	LD	E,(IY+23)
0104F6 01102700            A   870    	LD	BC,10000
0104FA AF                  A   871    	XOR	A,A
0104FB CD 60 72 01         A   872    	CALL	__lmuls
0104FF DD7EB7              A   873    	LD	A,(IX+-73)
010502 DD07B8              A   874    	LD	BC,(IX+-72)
010505 CD 0B 6E 01         A   875    	CALL	__ladd
010509 017B1600            A   876    	LD	BC,5755
01050D AF                  A   877    	XOR	A,A
01050E CD 0B 6E 01         A   878    	CALL	__ladd
010512 DD31E5              A   879    	LD	IY,(IX+-27)
010515 FD2F08              A   880    	LD	(IY+8),HL
010518 FD730B              A   881    	LD	(IY+11),E
01051B DD31EB              A   882    	LD	IY,(IX+-21)
01051E ED0318              A   883    	LEA	BC,IY+24
010521 DD0FF4              A   884    	LD	(IX+-12),BC
Zilog eZ80 Macro Assembler Version 4.1 (10060805) RELISTED26-Aug-11     11:07:39     page:  18


PC     Object              I  Line    Source C:\Users\fog76\Desktop\CHFIGH~2\Debug\main.src
010524 DD31F4              A   885    	LD	IY,(IX+-12)
010527 FD2700              A   886    	LD	HL,(IY)
01052A FD5E03              A   887    	LD	E,(IY+3)
01052D 01102700            A   888    	LD	BC,10000
010531 AF                  A   889    	XOR	A,A
010532 CD 60 72 01         A   890    	CALL	__lmuls
010536 FD21 D5 75 01       A   891    	LD	IY,_scac
01053B ED3350              A   892    	LEA	IY,IY+80
01053E DD2FB4              A   893    	LD	(IX+-76),HL
010541 FD2720              A   894    	LD	HL,(IY+32)
010544 DD73B3              A   895    	LD	(IX+-77),E
010547 FD5E23              A   896    	LD	E,(IY+35)
01054A 0140420F            A   897    	LD	BC,1000000
01054E AF                  A   898    	XOR	A,A
01054F CD 60 72 01         A   899    	CALL	__lmuls
010553 DD7EB3              A   900    	LD	A,(IX+-77)
010556 DD07B4              A   901    	LD	BC,(IX+-76)
010559 CD 0B 6E 01         A   902    	CALL	__ladd
01055D 01140B00            A   903    	LD	BC,2836
010561 AF                  A   904    	XOR	A,A
010562 CD 0B 6E 01         A   905    	CALL	__ladd
010566 DD31E5              A   906    	LD	IY,(IX+-27)
010569 FD2F0C              A   907    	LD	(IY+12),HL
01056C FD730F              A   908    	LD	(IY+15),E
01056F DD27BC              A   909    	LD	HL,(IX+-68)	; unspill
010572 FD2F10              A   910    	LD	(IY+16),HL
010575 DD66BB              A   911    	LD	H,(IX+-69)	; unspill
010578 FD7413              A   912    	LD	(IY+19),H
01057B DD31EB              A   913    	LD	IY,(IX+-21)
01057E FD271C              A   914    	LD	HL,(IY+28)
010581 FD5E1F              A   915    	LD	E,(IY+31)
010584 0140420F            A   916    	LD	BC,1000000
010588 AF                  A   917    	XOR	A,A
010589 CD 60 72 01         A   918    	CALL	__lmuls
01058D DD7EB3              A   919    	LD	A,(IX+-77)
010590 DD07B4              A   920    	LD	BC,(IX+-76)
010593 CD 0B 6E 01         A   921    	CALL	__ladd
010597 01980E00            A   922    	LD	BC,3736
01059B AF                  A   923    	XOR	A,A
01059C CD 0B 6E 01         A   924    	CALL	__ladd
0105A0 DD31E5              A   925    	LD	IY,(IX+-27)
0105A3 FD2F14              A   926    	LD	(IY+20),HL
0105A6 FD7317              A   927    	LD	(IY+23),E
0105A9 DD31D0              A   928    	LD	IY,(IX+-48)
0105AC FD271C              A   929    	LD	HL,(IY+28)
0105AF FD5E1F              A   930    	LD	E,(IY+31)
0105B2 0140420F            A   931    	LD	BC,1000000
0105B6 AF                  A   932    	XOR	A,A
0105B7 CD 60 72 01         A   933    	CALL	__lmuls
0105BB DD2F8E              A   934    	LD	(IX+-114),HL
0105BE FD2718              A   935    	LD	HL,(IY+24)
0105C1 DD738D              A   936    	LD	(IX+-115),E
Zilog eZ80 Macro Assembler Version 4.1 (10060805) RELISTED26-Aug-11     11:07:39     page:  19


PC     Object              I  Line    Source C:\Users\fog76\Desktop\CHFIGH~2\Debug\main.src
0105C4 FD5E1B              A   937    	LD	E,(IY+27)
0105C7 01102700            A   938    	LD	BC,10000
0105CB AF                  A   939    	XOR	A,A
0105CC CD 60 72 01         A   940    	CALL	__lmuls
0105D0 7B                  A   941    	LD	A,E
0105D1 E5C1                A   942    	LD	BC,HL
0105D3 DD278E              A   943    	LD	HL,(IX+-114)
0105D6 DD5E8D              A   944    	LD	E,(IX+-115)
0105D9 CD 0B 6E 01         A   945    	CALL	__ladd
0105DD 01601E00            A   946    	LD	BC,7776
0105E1 AF                  A   947    	XOR	A,A
0105E2 CD 0B 6E 01         A   948    	CALL	__ladd
0105E6 DD31E5              A   949    	LD	IY,(IX+-27)
0105E9 FD2F18              A   950    	LD	(IY+24),HL
0105EC FD731B              A   951    	LD	(IY+27),E
0105EF DD31D0              A   952    	LD	IY,(IX+-48)
0105F2 FD2720              A   953    	LD	HL,(IY+32)
0105F5 FD5E23              A   954    	LD	E,(IY+35)
0105F8 0140420F            A   955    	LD	BC,1000000
0105FC AF                  A   956    	XOR	A,A
0105FD CD 60 72 01         A   957    	CALL	__lmuls
010601 DD2F8A              A   958    	LD	(IX+-118),HL
010604 DD31D6              A   959    	LD	IY,(IX+-42)
010607 FD2718              A   960    	LD	HL,(IY+24)
01060A DD7389              A   961    	LD	(IX+-119),E
01060D FD5E1B              A   962    	LD	E,(IY+27)
010610 01102700            A   963    	LD	BC,10000
010614 AF                  A   964    	XOR	A,A
010615 CD 60 72 01         A   965    	CALL	__lmuls
010619 7B                  A   966    	LD	A,E
01061A E5C1                A   967    	LD	BC,HL
01061C DD278A              A   968    	LD	HL,(IX+-118)
01061F DD5E89              A   969    	LD	E,(IX+-119)
010622 CD 0B 6E 01         A   970    	CALL	__ladd
010626 01BA1E00            A   971    	LD	BC,7866
01062A AF                  A   972    	XOR	A,A
01062B CD 0B 6E 01         A   973    	CALL	__ladd
01062F DD31E5              A   974    	LD	IY,(IX+-27)
010632 FD2F1C              A   975    	LD	(IY+28),HL
010635 FD731F              A   976    	LD	(IY+31),E
010638 DDF9                A   977    	LD	SP,IX
01063A DDE1                A   978    	POP	IX
01063C C9                  A   979    	RET	
                           A   980    
                           A   981    
                           A   982    ;**************************** _apertura *******
                           A   983    ;Name                         Addr/Register   S
                           A   984    ;_scac                               STATIC    
                           A   985    ;_ap                                 STATIC    
                           A   986    ;i                                     IX-3    
                           A   987    
                           A   988    
Zilog eZ80 Macro Assembler Version 4.1 (10060805) RELISTED26-Aug-11     11:07:39     page:  20


PC     Object              I  Line    Source C:\Users\fog76\Desktop\CHFIGH~2\Debug\main.src
                           A   989    ; Stack Frame Size: 125 (bytes)
                           A   990    ;       Spill Code: 27 (instruction)
                           A   991    
                           A   992    
01063D                     A   993    _raccogli:
01063D CD 96 70 01         A   994    	CALL	__frameset0
010641 3A F6 7F 01         A   995    	LD	A,(_cont+3)
010645 5F                  A   996    	LD	E,A
010646 AF                  A   997    	XOR	A,A
010647 2A F3 7F 01         A   998    	LD	HL,(_cont)
01064B 01040000            A   999    	LD	BC,4
01064F CD 60 72 01         A  1000    	CALL	__lmuls
010653 01 69 7B 01         A  1001    	LD	BC,_possibili
010657 09                  A  1002    	ADD	HL,BC
010658 DD0706              A  1003    	LD	BC,(IX+6)
01065B DD7E09              A  1004    	LD	A,(IX+9)
01065E ED0F                A  1005    	LD	(HL),BC
010660 23                  A  1006    	INC	HL
010661 23                  A  1007    	INC	HL
010662 23                  A  1008    	INC	HL
010663 77                  A  1009    	LD	(HL),A
010664 3A F6 7F 01         A  1010    	LD	A,(_cont+3)
010668 5F                  A  1011    	LD	E,A
010669 3E01                A  1012    	LD	A,1
01066B 2A F3 7F 01         A  1013    	LD	HL,(_cont)
01066F CD FC 6D 01         A  1014    	CALL	__ladd_b
010673 22 F3 7F 01         A  1015    	LD	(_cont),HL
010677 7B                  A  1016    	LD	A,E
010678 32 F6 7F 01         A  1017    	LD	(_cont+3),A
01067C 5F                  A  1018    	LD	E,A
01067D AF                  A  1019    	XOR	A,A
01067E 2A F3 7F 01         A  1020    	LD	HL,(_cont)
010682 01040000            A  1021    	LD	BC,4
010686 CD 60 72 01         A  1022    	CALL	__lmuls
01068A 01 69 7B 01         A  1023    	LD	BC,_possibili
01068E 09                  A  1024    	ADD	HL,BC
01068F 01000000            A  1025    	LD	BC,0
010693 ED0F                A  1026    	LD	(HL),BC
010695 23                  A  1027    	INC	HL
010696 23                  A  1028    	INC	HL
010697 23                  A  1029    	INC	HL
010698 3600                A  1030    	LD	(HL),0
01069A DDF9                A  1031    	LD	SP,IX
01069C DDE1                A  1032    	POP	IX
01069E C9                  A  1033    	RET	
                           A  1034    
                           A  1035    
                           A  1036    ;**************************** _raccogli *******
                           A  1037    ;Name                         Addr/Register   S
                           A  1038    ;_cont                               STATIC    
                           A  1039    ;_possibili                          STATIC    
                           A  1040    ;m                                     IX+6    
Zilog eZ80 Macro Assembler Version 4.1 (10060805) RELISTED26-Aug-11     11:07:39     page:  21


PC     Object              I  Line    Source C:\Users\fog76\Desktop\CHFIGH~2\Debug\main.src
                           A  1041    
                           A  1042    
                           A  1043    ; Stack Frame Size: 12 (bytes)
                           A  1044    ;       Spill Code: 0 (instruction)
                           A  1045    
                           A  1046    
01069F                     A  1047    _vincitore:
01069F 21EEFFFF            A  1048    	LD	HL,-18
0106A3 CD BF 70 01         A  1049    	CALL	__frameset
0106A7 01000000            A  1050    	LD	BC,0
0106AB DD0FF4              A  1051    	LD	(IX+-12),BC
0106AE DD0FF1              A  1052    	LD	(IX+-15),BC
0106B1 01010000            A  1053    	LD	BC,1
0106B5 DD0FFD              A  1054    	LD	(IX+-3),BC
0106B8 C3 3F 07 01         A  1055    	JR	L_28
0106BC                     A  1056    L_26:
0106BC 01010000            A  1057    	LD	BC,1
0106C0 DD0FFA              A  1058    	LD	(IX+-6),BC
0106C3 18 5B               A  1059    	JR	L_25
0106C5                     A  1060    L_23:
0106C5 DD27FD              A  1061    	LD	HL,(IX+-3)
0106C8 29                  A  1062    	ADD	HL,HL
0106C9 29                  A  1063    	ADD	HL,HL
0106CA DD07FD              A  1064    	LD	BC,(IX+-3)
0106CD 09                  A  1065    	ADD	HL,BC
0106CE 29                  A  1066    	ADD	HL,HL
0106CF 29                  A  1067    	ADD	HL,HL
0106D0 29                  A  1068    	ADD	HL,HL
0106D1 01 D5 75 01         A  1069    	LD	BC,_scac
0106D5 09                  A  1070    	ADD	HL,BC
0106D6 DD2FEE              A  1071    	LD	(IX+-18),HL
0106D9 DD27FA              A  1072    	LD	HL,(IX+-6)
0106DC 29                  A  1073    	ADD	HL,HL
0106DD 29                  A  1074    	ADD	HL,HL
0106DE DD07EE              A  1075    	LD	BC,(IX+-18)
0106E1 09                  A  1076    	ADD	HL,BC
0106E2 DD2FF7              A  1077    	LD	(IX+-9),HL
0106E5 DD31F7              A  1078    	LD	IY,(IX+-9)
0106E8 FD2700              A  1079    	LD	HL,(IY)
0106EB FD5E03              A  1080    	LD	E,(IY+3)
0106EE 01010000            A  1081    	LD	BC,1
0106F2 AF                  A  1082    	XOR	A,A
0106F3 CD B2 71 01         A  1083    	CALL	__lcmps
0106F7 20 05               A  1084    	JR	NZ,L_22
0106F9 DD0FF4              A  1085    	LD	(IX+-12),BC
0106FC 18 1B               A  1086    	JR	L_24
0106FE                     A  1087    L_22:
0106FE DD31F7              A  1088    	LD	IY,(IX+-9)
010701 FD2700              A  1089    	LD	HL,(IY)
010704 FD5E03              A  1090    	LD	E,(IY+3)
010707 01070000            A  1091    	LD	BC,7
01070B AF                  A  1092    	XOR	A,A
Zilog eZ80 Macro Assembler Version 4.1 (10060805) RELISTED26-Aug-11     11:07:39     page:  22


PC     Object              I  Line    Source C:\Users\fog76\Desktop\CHFIGH~2\Debug\main.src
01070C CD B2 71 01         A  1093    	CALL	__lcmps
010710 20 07               A  1094    	JR	NZ,L_24
010712 01010000            A  1095    	LD	BC,1
010716 DD0FF1              A  1096    	LD	(IX+-15),BC
010719                     A  1097    L_24:
010719 DD07FA              A  1098    	LD	BC,(IX+-6)
01071C 03                  A  1099    	INC	BC
01071D DD0FFA              A  1100    	LD	(IX+-6),BC
010720                     A  1101    L_25:
010720 DD07FA              A  1102    	LD	BC,(IX+-6)
010723 21080000            A  1103    	LD	HL,8
010727 B7                  A  1104    	OR	A,A
010728 ED42                A  1105    	SBC	HL,BC
01072A F2 34 07 01         A  1106    	JP	P,L__19
01072E EA C5 06 01         A  1107    	JP	PE,L_23
010732 18 04               A  1108    	JR	L__20
010734                     A  1109    L__19:
010734 E2 C5 06 01         A  1110    	JP	PO,L_23
010738                     A  1111    L__20:
010738 DD07FD              A  1112    	LD	BC,(IX+-3)
01073B 03                  A  1113    	INC	BC
01073C DD0FFD              A  1114    	LD	(IX+-3),BC
01073F                     A  1115    L_28:
01073F DD07FD              A  1116    	LD	BC,(IX+-3)
010742 21080000            A  1117    	LD	HL,8
010746 B7                  A  1118    	OR	A,A
010747 ED42                A  1119    	SBC	HL,BC
010749 F2 53 07 01         A  1120    	JP	P,L__21
01074D EA BC 06 01         A  1121    	JP	PE,L_26
010751 18 04               A  1122    	JR	L__22
010753                     A  1123    L__21:
010753 E2 BC 06 01         A  1124    	JP	PO,L_26
010757                     A  1125    L__22:
010757 01000000            A  1126    	LD	BC,0
01075B DD27F1              A  1127    	LD	HL,(IX+-15)
01075E B7                  A  1128    	OR	A,A
01075F ED42                A  1129    	SBC	HL,BC
010761 20 04               A  1130    	JR	NZ,L_32
010763 3E01                A  1131    	LD	A,1
010765 18 0D               A  1132    	JR	L_34
010767                     A  1133    L_32:
010767 DD27F4              A  1134    	LD	HL,(IX+-12)
01076A B7                  A  1135    	OR	A,A
01076B ED42                A  1136    	SBC	HL,BC
01076D 20 04               A  1137    	JR	NZ,L_33
01076F 3E02                A  1138    	LD	A,2
010771 18 01               A  1139    	JR	L_34
010773                     A  1140    L_33:
010773 AF                  A  1141    	XOR	A,A
010774                     A  1142    L_34:
010774 DDF9                A  1143    	LD	SP,IX
010776 DDE1                A  1144    	POP	IX
Zilog eZ80 Macro Assembler Version 4.1 (10060805) RELISTED26-Aug-11     11:07:39     page:  23


PC     Object              I  Line    Source C:\Users\fog76\Desktop\CHFIGH~2\Debug\main.src
010778 C9                  A  1145    	RET	
                           A  1146    
                           A  1147    
                           A  1148    ;**************************** _vincitore ******
                           A  1149    ;Name                         Addr/Register   S
                           A  1150    ;_scac                               STATIC    
                           A  1151    ;G_0                                  IX-18    
                           A  1152    ;ner                                  IX-15    
                           A  1153    ;bian                                 IX-12    
                           A  1154    ;G_1                                   IX-9    
                           A  1155    ;j                                     IX-6    
                           A  1156    ;i                                     IX-3    
                           A  1157    
                           A  1158    
                           A  1159    ; Stack Frame Size: 24 (bytes)
                           A  1160    ;       Spill Code: 0 (instruction)
                           A  1161    
                           A  1162    
010779                     A  1163    _inizializza:
010779 21FDFFFF            A  1164    	LD	HL,-3
01077D CD BF 70 01         A  1165    	CALL	__frameset
010781 01000000            A  1166    	LD	BC,0
010785 ED43 D8 7F 01       A  1167    	LD	(_mossa_giocata),BC
01078A AF                  A  1168    	XOR	A,A
01078B 32 DB 7F 01         A  1169    	LD	(_mossa_giocata+3),A
01078F ED43 DC 7F 01       A  1170    	LD	(_mossa_in_analisi),BC
010794 AF                  A  1171    	XOR	A,A
010795 32 DF 7F 01         A  1172    	LD	(_mossa_in_analisi+3),A
010799 ED43 E7 7F 01       A  1173    	LD	(_effe),BC
01079E AF                  A  1174    	XOR	A,A
01079F 32 EA 7F 01         A  1175    	LD	(_effe+3),A
0107A3 ED43 EB 7F 01       A  1176    	LD	(_prof),BC
0107A8 AF                  A  1177    	XOR	A,A
0107A9 32 EE 7F 01         A  1178    	LD	(_prof+3),A
0107AD DD0FFD              A  1179    	LD	(IX+-3),BC
0107B0 18 34               A  1180    	JR	L_37
0107B2                     A  1181    L_35:
0107B2 DD27FD              A  1182    	LD	HL,(IX+-3)
0107B5 29                  A  1183    	ADD	HL,HL
0107B6 29                  A  1184    	ADD	HL,HL
0107B7 01 4D 7B 01         A  1185    	LD	BC,_ramo
0107BB 09                  A  1186    	ADD	HL,BC
0107BC 010000C8            A  1187    	LD	BC,13107200
0107C0 ED0F                A  1188    	LD	(HL),BC
0107C2 23                  A  1189    	INC	HL
0107C3 23                  A  1190    	INC	HL
0107C4 23                  A  1191    	INC	HL
0107C5 3642                A  1192    	LD	(HL),66
0107C7 DD27FD              A  1193    	LD	HL,(IX+-3)
0107CA 23                  A  1194    	INC	HL
0107CB 29                  A  1195    	ADD	HL,HL
0107CC 29                  A  1196    	ADD	HL,HL
Zilog eZ80 Macro Assembler Version 4.1 (10060805) RELISTED26-Aug-11     11:07:39     page:  24


PC     Object              I  Line    Source C:\Users\fog76\Desktop\CHFIGH~2\Debug\main.src
0107CD 01 4D 7B 01         A  1197    	LD	BC,_ramo
0107D1 09                  A  1198    	ADD	HL,BC
0107D2 010000C8            A  1199    	LD	BC,13107200
0107D6 ED0F                A  1200    	LD	(HL),BC
0107D8 23                  A  1201    	INC	HL
0107D9 23                  A  1202    	INC	HL
0107DA 23                  A  1203    	INC	HL
0107DB 36C2                A  1204    	LD	(HL),194
0107DD DD31FD              A  1205    	LD	IY,(IX+-3)
0107E0 ED3302              A  1206    	LEA	IY,IY+2
0107E3 DD3EFD              A  1207    	LD	(IX+-3),IY
0107E6                     A  1208    L_37:
0107E6 01070000            A  1209    	LD	BC,7
0107EA DD27FD              A  1210    	LD	HL,(IX+-3)
0107ED B7                  A  1211    	OR	A,A
0107EE ED42                A  1212    	SBC	HL,BC
0107F0 FA FA 07 01         A  1213    	JP	M,L__25
0107F4 EA B2 07 01         A  1214    	JP	PE,L_35
0107F8 18 04               A  1215    	JR	L__26
0107FA                     A  1216    L__25:
0107FA E2 B2 07 01         A  1217    	JP	PO,L_35
0107FE                     A  1218    L__26:
0107FE DDF9                A  1219    	LD	SP,IX
010800 DDE1                A  1220    	POP	IX
010802 C9                  A  1221    	RET	
                           A  1222    
                           A  1223    
                           A  1224    ;**************************** _inizializza ****
                           A  1225    ;Name                         Addr/Register   S
                           A  1226    ;_ramo                               STATIC    
                           A  1227    ;_prof                               STATIC    
                           A  1228    ;_effe                               STATIC    
                           A  1229    ;_mossa_in_analisi                   STATIC    
                           A  1230    ;_mossa_giocata                      STATIC    
                           A  1231    ;i                                     IX-3    
                           A  1232    
                           A  1233    
                           A  1234    ; Stack Frame Size: 9 (bytes)
                           A  1235    ;       Spill Code: 0 (instruction)
                           A  1236    
                           A  1237    
010803                     A  1238    _sceglimossa:
010803 21C6FFFF            A  1239    	LD	HL,-58
010807 CD BF 70 01         A  1240    	CALL	__frameset
01080B DD2706              A  1241    	LD	HL,(IX+6)
01080E DD5E09              A  1242    	LD	E,(IX+9)
010811 010A0000            A  1243    	LD	BC,10
010815 AF                  A  1244    	XOR	A,A
010816 CD 60 70 01         A  1245    	CALL	__ldivu
01081A 010A0000            A  1246    	LD	BC,10
01081E AF                  A  1247    	XOR	A,A
01081F CD 1D 72 01         A  1248    	CALL	__lremu
Zilog eZ80 Macro Assembler Version 4.1 (10060805) RELISTED26-Aug-11     11:07:39     page:  25


PC     Object              I  Line    Source C:\Users\fog76\Desktop\CHFIGH~2\Debug\main.src
010823 DD2FEF              A  1249    	LD	(IX+-17),HL
010826 DD2706              A  1250    	LD	HL,(IX+6)
010829 DD5E09              A  1251    	LD	E,(IX+9)
01082C 010A0000            A  1252    	LD	BC,10
010830 AF                  A  1253    	XOR	A,A
010831 CD 1D 72 01         A  1254    	CALL	__lremu
010835 DD2FFA              A  1255    	LD	(IX+-6),HL
010838 DD2706              A  1256    	LD	HL,(IX+6)
01083B DD5E09              A  1257    	LD	E,(IX+9)
01083E 0140420F            A  1258    	LD	BC,1000000
010842 AF                  A  1259    	XOR	A,A
010843 CD 60 70 01         A  1260    	CALL	__ldivu
010847 01640000            A  1261    	LD	BC,100
01084B AF                  A  1262    	XOR	A,A
01084C CD 1D 72 01         A  1263    	CALL	__lremu
010850 DD2FFD              A  1264    	LD	(IX+-3),HL
010853 DD2706              A  1265    	LD	HL,(IX+6)
010856 DD5E09              A  1266    	LD	E,(IX+9)
010859 01640000            A  1267    	LD	BC,100
01085D AF                  A  1268    	XOR	A,A
01085E CD 60 70 01         A  1269    	CALL	__ldivu
010862 010A0000            A  1270    	LD	BC,10
010866 AF                  A  1271    	XOR	A,A
010867 CD 1D 72 01         A  1272    	CALL	__lremu
01086B DD2FF6              A  1273    	LD	(IX+-10),HL
01086E DD73F9              A  1274    	LD	(IX+-7),E
010871 DD2FD2              A  1275    	LD	(IX+-46),HL
010874 DD2706              A  1276    	LD	HL,(IX+6)
010877 DD5E09              A  1277    	LD	E,(IX+9)
01087A 01E80300            A  1278    	LD	BC,1000
01087E AF                  A  1279    	XOR	A,A
01087F CD 60 70 01         A  1280    	CALL	__ldivu
010883 010A0000            A  1281    	LD	BC,10
010887 AF                  A  1282    	XOR	A,A
010888 CD 1D 72 01         A  1283    	CALL	__lremu
01088C DD2FF2              A  1284    	LD	(IX+-14),HL
01088F DD73F5              A  1285    	LD	(IX+-11),E
010892 DD2FCF              A  1286    	LD	(IX+-49),HL
010895 DD27EF              A  1287    	LD	HL,(IX+-17)
010898 29                  A  1288    	ADD	HL,HL
010899 29                  A  1289    	ADD	HL,HL
01089A DD07EF              A  1290    	LD	BC,(IX+-17)
01089D 09                  A  1291    	ADD	HL,BC
01089E 29                  A  1292    	ADD	HL,HL
01089F 29                  A  1293    	ADD	HL,HL
0108A0 29                  A  1294    	ADD	HL,HL
0108A1 DD2FEC              A  1295    	LD	(IX+-20),HL
0108A4 DD27FA              A  1296    	LD	HL,(IX+-6)
0108A7 29                  A  1297    	ADD	HL,HL
0108A8 29                  A  1298    	ADD	HL,HL
0108A9 DD2FE1              A  1299    	LD	(IX+-31),HL
0108AC DD27EC              A  1300    	LD	HL,(IX+-20)
Zilog eZ80 Macro Assembler Version 4.1 (10060805) RELISTED26-Aug-11     11:07:39     page:  26


PC     Object              I  Line    Source C:\Users\fog76\Desktop\CHFIGH~2\Debug\main.src
0108AF 01 D5 75 01         A  1301    	LD	BC,_scac
0108B3 09                  A  1302    	ADD	HL,BC
0108B4 DD07E1              A  1303    	LD	BC,(IX+-31)
0108B7 09                  A  1304    	ADD	HL,BC
0108B8 DD2FE7              A  1305    	LD	(IX+-25),HL
0108BB ED27                A  1306    	LD	HL,(HL)
0108BD CD C8 71 01         A  1307    	CALL	__seqcase
0108C1                     A  1308    L__28:
0108C1 0C00                A  1309    	DW	12
0108C3 0100                A  1310    	DW	1
0108C5 00                  A  1311    	DB	0
0108C6 450A01              A  1312    	DW24	L_50	
                           A  1313    
0108C9 090A01              A  1314    	DW24	L_48	
                           A  1315    
0108CC EB0901              A  1316    	DW24	L_47	
                           A  1317    
0108CF CD0901              A  1318    	DW24	L_46	
                           A  1319    
0108D2 270A01              A  1320    	DW24	L_49	
                           A  1321    
0108D5 AD0901              A  1322    	DW24	L_45	
                           A  1323    
0108D8 8D0901              A  1324    	DW24	L_44	
                           A  1325    
0108DB 4D0901              A  1326    	DW24	L_42	
                           A  1327    
0108DE 2D0901              A  1328    	DW24	L_41	
                           A  1329    
0108E1 0D0901              A  1330    	DW24	L_40	
                           A  1331    
0108E4 6D0901              A  1332    	DW24	L_43	
                           A  1333    
0108E7 ED0801              A  1334    	DW24	L_39	
                           A  1335    
0108EA 610A01              A  1336    	DW24	L_83	
                           A  1337    
0108ED                     A  1338    L_39:
0108ED 21000080            A  1339    	LD	HL,8388608
0108F1 1E3F                A  1340    	LD	E,63
0108F3 ED4B E7 7F 01       A  1341    	LD	BC,(_effe)
0108F8 3A EA 7F 01         A  1342    	LD	A,(_effe+3)
0108FC CD FD 72 01         A  1343    	CALL	__fadd
010900 ED43 E7 7F 01       A  1344    	LD	(_effe),BC
010905 32 EA 7F 01         A  1345    	LD	(_effe+3),A
010909 C3 61 0A 01         A  1346    	JR	L_83
01090D                     A  1347    L_40:
01090D 21000040            A  1348    	LD	HL,4194304
010911 1E40                A  1349    	LD	E,64
010913 ED4B E7 7F 01       A  1350    	LD	BC,(_effe)
010918 3A EA 7F 01         A  1351    	LD	A,(_effe+3)
01091C CD FD 72 01         A  1352    	CALL	__fadd
Zilog eZ80 Macro Assembler Version 4.1 (10060805) RELISTED26-Aug-11     11:07:39     page:  27


PC     Object              I  Line    Source C:\Users\fog76\Desktop\CHFIGH~2\Debug\main.src
010920 ED43 E7 7F 01       A  1353    	LD	(_effe),BC
010925 32 EA 7F 01         A  1354    	LD	(_effe+3),A
010929 C3 61 0A 01         A  1355    	JR	L_83
01092D                     A  1356    L_41:
01092D 21000040            A  1357    	LD	HL,4194304
010931 1E40                A  1358    	LD	E,64
010933 ED4B E7 7F 01       A  1359    	LD	BC,(_effe)
010938 3A EA 7F 01         A  1360    	LD	A,(_effe+3)
01093C CD FD 72 01         A  1361    	CALL	__fadd
010940 ED43 E7 7F 01       A  1362    	LD	(_effe),BC
010945 32 EA 7F 01         A  1363    	LD	(_effe+3),A
010949 C3 61 0A 01         A  1364    	JR	L_83
01094D                     A  1365    L_42:
01094D 21000020            A  1366    	LD	HL,2097152
010951 1E41                A  1367    	LD	E,65
010953 ED4B E7 7F 01       A  1368    	LD	BC,(_effe)
010958 3A EA 7F 01         A  1369    	LD	A,(_effe+3)
01095C CD FD 72 01         A  1370    	CALL	__fadd
010960 ED43 E7 7F 01       A  1371    	LD	(_effe),BC
010965 32 EA 7F 01         A  1372    	LD	(_effe+3),A
010969 C3 61 0A 01         A  1373    	JR	L_83
01096D                     A  1374    L_43:
01096D 210000A0            A  1375    	LD	HL,10485760
010971 1E40                A  1376    	LD	E,64
010973 ED4B E7 7F 01       A  1377    	LD	BC,(_effe)
010978 3A EA 7F 01         A  1378    	LD	A,(_effe+3)
01097C CD FD 72 01         A  1379    	CALL	__fadd
010980 ED43 E7 7F 01       A  1380    	LD	(_effe),BC
010985 32 EA 7F 01         A  1381    	LD	(_effe+3),A
010989 C3 61 0A 01         A  1382    	JR	L_83
01098D                     A  1383    L_44:
01098D 21000024            A  1384    	LD	HL,2359296
010991 1E42                A  1385    	LD	E,66
010993 ED4B E7 7F 01       A  1386    	LD	BC,(_effe)
010998 3A EA 7F 01         A  1387    	LD	A,(_effe+3)
01099C CD FD 72 01         A  1388    	CALL	__fadd
0109A0 ED43 E7 7F 01       A  1389    	LD	(_effe),BC
0109A5 32 EA 7F 01         A  1390    	LD	(_effe+3),A
0109A9 C3 61 0A 01         A  1391    	JR	L_83
0109AD                     A  1392    L_45:
0109AD 21000080            A  1393    	LD	HL,8388608
0109B1 1E3F                A  1394    	LD	E,63
0109B3 ED4B E7 7F 01       A  1395    	LD	BC,(_effe)
0109B8 3A EA 7F 01         A  1396    	LD	A,(_effe+3)
0109BC CD 03 70 01         A  1397    	CALL	__fsub
0109C0 ED43 E7 7F 01       A  1398    	LD	(_effe),BC
0109C5 32 EA 7F 01         A  1399    	LD	(_effe+3),A
0109C9 C3 61 0A 01         A  1400    	JR	L_83
0109CD                     A  1401    L_46:
0109CD 21000040            A  1402    	LD	HL,4194304
0109D1 1E40                A  1403    	LD	E,64
0109D3 ED4B E7 7F 01       A  1404    	LD	BC,(_effe)
Zilog eZ80 Macro Assembler Version 4.1 (10060805) RELISTED26-Aug-11     11:07:39     page:  28


PC     Object              I  Line    Source C:\Users\fog76\Desktop\CHFIGH~2\Debug\main.src
0109D8 3A EA 7F 01         A  1405    	LD	A,(_effe+3)
0109DC CD 03 70 01         A  1406    	CALL	__fsub
0109E0 ED43 E7 7F 01       A  1407    	LD	(_effe),BC
0109E5 32 EA 7F 01         A  1408    	LD	(_effe+3),A
0109E9 18 76               A  1409    	JR	L_83
0109EB                     A  1410    L_47:
0109EB 21000040            A  1411    	LD	HL,4194304
0109EF 1E40                A  1412    	LD	E,64
0109F1 ED4B E7 7F 01       A  1413    	LD	BC,(_effe)
0109F6 3A EA 7F 01         A  1414    	LD	A,(_effe+3)
0109FA CD 03 70 01         A  1415    	CALL	__fsub
0109FE ED43 E7 7F 01       A  1416    	LD	(_effe),BC
010A03 32 EA 7F 01         A  1417    	LD	(_effe+3),A
010A07 18 58               A  1418    	JR	L_83
010A09                     A  1419    L_48:
010A09 21000020            A  1420    	LD	HL,2097152
010A0D 1E41                A  1421    	LD	E,65
010A0F ED4B E7 7F 01       A  1422    	LD	BC,(_effe)
010A14 3A EA 7F 01         A  1423    	LD	A,(_effe+3)
010A18 CD 03 70 01         A  1424    	CALL	__fsub
010A1C ED43 E7 7F 01       A  1425    	LD	(_effe),BC
010A21 32 EA 7F 01         A  1426    	LD	(_effe+3),A
010A25 18 3A               A  1427    	JR	L_83
010A27                     A  1428    L_49:
010A27 210000A0            A  1429    	LD	HL,10485760
010A2B 1E40                A  1430    	LD	E,64
010A2D ED4B E7 7F 01       A  1431    	LD	BC,(_effe)
010A32 3A EA 7F 01         A  1432    	LD	A,(_effe+3)
010A36 CD 03 70 01         A  1433    	CALL	__fsub
010A3A ED43 E7 7F 01       A  1434    	LD	(_effe),BC
010A3F 32 EA 7F 01         A  1435    	LD	(_effe+3),A
010A43 18 1C               A  1436    	JR	L_83
010A45                     A  1437    L_50:
010A45 21000024            A  1438    	LD	HL,2359296
010A49 1E42                A  1439    	LD	E,66
010A4B ED4B E7 7F 01       A  1440    	LD	BC,(_effe)
010A50 3A EA 7F 01         A  1441    	LD	A,(_effe+3)
010A54 CD 03 70 01         A  1442    	CALL	__fsub
010A58 ED43 E7 7F 01       A  1443    	LD	(_effe),BC
010A5D 32 EA 7F 01         A  1444    	LD	(_effe+3),A
010A61                     A  1445    L_83:
010A61 3A E6 7F 01         A  1446    	LD	A,(_nmossa+3)
010A65 5F                  A  1447    	LD	E,A
010A66 AF                  A  1448    	XOR	A,A
010A67 2A E3 7F 01         A  1449    	LD	HL,(_nmossa)
010A6B 010D0000            A  1450    	LD	BC,13
010A6F CD B2 71 01         A  1451    	CALL	__lcmps
010A73 F2 7D 0A 01         A  1452    	JP	P,L__124
010A77 EA 7A 0C 01         A  1453    	JP	PE,L_90
010A7B 18 04               A  1454    	JR	L__125
010A7D                     A  1455    L__124:
010A7D E2 7A 0C 01         A  1456    	JP	PO,L_90
Zilog eZ80 Macro Assembler Version 4.1 (10060805) RELISTED26-Aug-11     11:07:39     page:  29


PC     Object              I  Line    Source C:\Users\fog76\Desktop\CHFIGH~2\Debug\main.src
010A81                     A  1457    L__125:
010A81 3A EE 7F 01         A  1458    	LD	A,(_prof+3)
010A85 5F                  A  1459    	LD	E,A
010A86 AF                  A  1460    	XOR	A,A
010A87 2A EB 7F 01         A  1461    	LD	HL,(_prof)
010A8B 01000000            A  1462    	LD	BC,0
010A8F CD B2 71 01         A  1463    	CALL	__lcmps
010A93 C2 7A 0C 01         A  1464    	JR	NZ,L_90
010A97 2A E0 7F 01         A  1465    	LD	HL,(_col_prof)
010A9B B7                  A  1466    	OR	A,A
010A9C ED42                A  1467    	SBC	HL,BC
010A9E C2 95 0B 01         A  1468    	JR	NZ,L_81
010AA2 01030000            A  1469    	LD	BC,3
010AA6 DD27EF              A  1470    	LD	HL,(IX+-17)
010AA9 B7                  A  1471    	OR	A,A
010AAA ED42                A  1472    	SBC	HL,BC
010AAC 28 24               A  1473    	JR	Z,L_55
010AAE 01060000            A  1474    	LD	BC,6
010AB2 DD27EF              A  1475    	LD	HL,(IX+-17)
010AB5 B7                  A  1476    	OR	A,A
010AB6 ED42                A  1477    	SBC	HL,BC
010AB8 28 18               A  1478    	JR	Z,L_55
010ABA 01020000            A  1479    	LD	BC,2
010ABE DD27FA              A  1480    	LD	HL,(IX+-6)
010AC1 B7                  A  1481    	OR	A,A
010AC2 ED42                A  1482    	SBC	HL,BC
010AC4 28 0C               A  1483    	JR	Z,L_55
010AC6 01030000            A  1484    	LD	BC,3
010ACA DD27FA              A  1485    	LD	HL,(IX+-6)
010ACD B7                  A  1486    	OR	A,A
010ACE ED42                A  1487    	SBC	HL,BC
010AD0 20 34               A  1488    	JR	NZ,L_60
010AD2                     A  1489    L_55:
010AD2 01040000            A  1490    	LD	BC,4
010AD6 DD27FD              A  1491    	LD	HL,(IX+-3)
010AD9 B7                  A  1492    	OR	A,A
010ADA ED42                A  1493    	SBC	HL,BC
010ADC 20 28               A  1494    	JR	NZ,L_60
010ADE 01010000            A  1495    	LD	BC,1
010AE2 DD27F6              A  1496    	LD	HL,(IX+-10)
010AE5 B7                  A  1497    	OR	A,A
010AE6 ED42                A  1498    	SBC	HL,BC
010AE8 20 1C               A  1499    	JR	NZ,L_60
010AEA 21CDCC4C            A  1500    	LD	HL,5033165
010AEE 1E3F                A  1501    	LD	E,63
010AF0 ED4B E7 7F 01       A  1502    	LD	BC,(_effe)
010AF5 3A EA 7F 01         A  1503    	LD	A,(_effe+3)
010AF9 CD FD 72 01         A  1504    	CALL	__fadd
010AFD ED43 E7 7F 01       A  1505    	LD	(_effe),BC
010B02 32 EA 7F 01         A  1506    	LD	(_effe+3),A
010B06                     A  1507    L_60:
010B06 01010000            A  1508    	LD	BC,1
Zilog eZ80 Macro Assembler Version 4.1 (10060805) RELISTED26-Aug-11     11:07:39     page:  30


PC     Object              I  Line    Source C:\Users\fog76\Desktop\CHFIGH~2\Debug\main.src
010B0A DD27F6              A  1509    	LD	HL,(IX+-10)
010B0D B7                  A  1510    	OR	A,A
010B0E ED42                A  1511    	SBC	HL,BC
010B10 20 28               A  1512    	JR	NZ,L_65
010B12 01030000            A  1513    	LD	BC,3
010B16 DD27FD              A  1514    	LD	HL,(IX+-3)
010B19 B7                  A  1515    	OR	A,A
010B1A ED42                A  1516    	SBC	HL,BC
010B1C 20 1C               A  1517    	JR	NZ,L_65
010B1E 21333333            A  1518    	LD	HL,3355443
010B22 1E3F                A  1519    	LD	E,63
010B24 ED4B E7 7F 01       A  1520    	LD	BC,(_effe)
010B29 3A EA 7F 01         A  1521    	LD	A,(_effe+3)
010B2D CD FD 72 01         A  1522    	CALL	__fadd
010B31 ED43 E7 7F 01       A  1523    	LD	(_effe),BC
010B36 32 EA 7F 01         A  1524    	LD	(_effe+3),A
010B3A                     A  1525    L_65:
010B3A 01040000            A  1526    	LD	BC,4
010B3E DD27F2              A  1527    	LD	HL,(IX+-14)
010B41 B7                  A  1528    	OR	A,A
010B42 ED42                A  1529    	SBC	HL,BC
010B44 28 13               A  1530    	JR	Z,L_62
010B46 DD27F2              A  1531    	LD	HL,(IX+-14)
010B49 DD5EF5              A  1532    	LD	E,(IX+-11)
010B4C 01050000            A  1533    	LD	BC,5
010B50 AF                  A  1534    	XOR	A,A
010B51 CD B2 71 01         A  1535    	CALL	__lcmpu
010B55 C2 7A 0C 01         A  1536    	JR	NZ,L_90
010B59                     A  1537    L_62:
010B59 01060000            A  1538    	LD	BC,6
010B5D DD27FD              A  1539    	LD	HL,(IX+-3)
010B60 B7                  A  1540    	OR	A,A
010B61 ED42                A  1541    	SBC	HL,BC
010B63 C2 7A 0C 01         A  1542    	JR	NZ,L_90
010B67 01020000            A  1543    	LD	BC,2
010B6B DD27F6              A  1544    	LD	HL,(IX+-10)
010B6E B7                  A  1545    	OR	A,A
010B6F ED42                A  1546    	SBC	HL,BC
010B71 C2 7A 0C 01         A  1547    	JR	NZ,L_90
010B75 21666666            A  1548    	LD	HL,6710886
010B79 1E3F                A  1549    	LD	E,63
010B7B ED4B E7 7F 01       A  1550    	LD	BC,(_effe)
010B80 3A EA 7F 01         A  1551    	LD	A,(_effe+3)
010B84 CD FD 72 01         A  1552    	CALL	__fadd
010B88 ED43 E7 7F 01       A  1553    	LD	(_effe),BC
010B8D 32 EA 7F 01         A  1554    	LD	(_effe+3),A
010B91 C3 7A 0C 01         A  1555    	JR	L_90
010B95                     A  1556    L_81:
010B95 01030000            A  1557    	LD	BC,3
010B99 DD27EF              A  1558    	LD	HL,(IX+-17)
010B9C B7                  A  1559    	OR	A,A
010B9D ED42                A  1560    	SBC	HL,BC
Zilog eZ80 Macro Assembler Version 4.1 (10060805) RELISTED26-Aug-11     11:07:39     page:  31


PC     Object              I  Line    Source C:\Users\fog76\Desktop\CHFIGH~2\Debug\main.src
010B9F 28 20               A  1561    	JR	Z,L_69
010BA1 01060000            A  1562    	LD	BC,6
010BA5 DD27EF              A  1563    	LD	HL,(IX+-17)
010BA8 B7                  A  1564    	OR	A,A
010BA9 ED42                A  1565    	SBC	HL,BC
010BAB 28 14               A  1566    	JR	Z,L_69
010BAD DD27FA              A  1567    	LD	HL,(IX+-6)
010BB0 B7                  A  1568    	OR	A,A
010BB1 ED42                A  1569    	SBC	HL,BC
010BB3 28 0C               A  1570    	JR	Z,L_69
010BB5 01070000            A  1571    	LD	BC,7
010BB9 DD27FA              A  1572    	LD	HL,(IX+-6)
010BBC B7                  A  1573    	OR	A,A
010BBD ED42                A  1574    	SBC	HL,BC
010BBF 20 34               A  1575    	JR	NZ,L_74
010BC1                     A  1576    L_69:
010BC1 010A0000            A  1577    	LD	BC,10
010BC5 DD27FD              A  1578    	LD	HL,(IX+-3)
010BC8 B7                  A  1579    	OR	A,A
010BC9 ED42                A  1580    	SBC	HL,BC
010BCB 20 28               A  1581    	JR	NZ,L_74
010BCD 01080000            A  1582    	LD	BC,8
010BD1 DD27F6              A  1583    	LD	HL,(IX+-10)
010BD4 B7                  A  1584    	OR	A,A
010BD5 ED42                A  1585    	SBC	HL,BC
010BD7 20 1C               A  1586    	JR	NZ,L_74
010BD9 21CDCC4C            A  1587    	LD	HL,5033165
010BDD 1E3F                A  1588    	LD	E,63
010BDF ED4B E7 7F 01       A  1589    	LD	BC,(_effe)
010BE4 3A EA 7F 01         A  1590    	LD	A,(_effe+3)
010BE8 CD 03 70 01         A  1591    	CALL	__fsub
010BEC ED43 E7 7F 01       A  1592    	LD	(_effe),BC
010BF1 32 EA 7F 01         A  1593    	LD	(_effe+3),A
010BF5                     A  1594    L_74:
010BF5 DD27F6              A  1595    	LD	HL,(IX+-10)
010BF8 DD5EF9              A  1596    	LD	E,(IX+-7)
010BFB 01080000            A  1597    	LD	BC,8
010BFF AF                  A  1598    	XOR	A,A
010C00 CD B2 71 01         A  1599    	CALL	__lcmpu
010C04 20 28               A  1600    	JR	NZ,L_79
010C06 01090000            A  1601    	LD	BC,9
010C0A DD27FD              A  1602    	LD	HL,(IX+-3)
010C0D B7                  A  1603    	OR	A,A
010C0E ED42                A  1604    	SBC	HL,BC
010C10 20 1C               A  1605    	JR	NZ,L_79
010C12 21333333            A  1606    	LD	HL,3355443
010C16 1E3F                A  1607    	LD	E,63
010C18 ED4B E7 7F 01       A  1608    	LD	BC,(_effe)
010C1D 3A EA 7F 01         A  1609    	LD	A,(_effe+3)
010C21 CD 03 70 01         A  1610    	CALL	__fsub
010C25 ED43 E7 7F 01       A  1611    	LD	(_effe),BC
010C2A 32 EA 7F 01         A  1612    	LD	(_effe+3),A
Zilog eZ80 Macro Assembler Version 4.1 (10060805) RELISTED26-Aug-11     11:07:39     page:  32


PC     Object              I  Line    Source C:\Users\fog76\Desktop\CHFIGH~2\Debug\main.src
010C2E                     A  1613    L_79:
010C2E 01040000            A  1614    	LD	BC,4
010C32 DD27F2              A  1615    	LD	HL,(IX+-14)
010C35 B7                  A  1616    	OR	A,A
010C36 ED42                A  1617    	SBC	HL,BC
010C38 28 0C               A  1618    	JR	Z,L_76
010C3A 01050000            A  1619    	LD	BC,5
010C3E DD27F2              A  1620    	LD	HL,(IX+-14)
010C41 B7                  A  1621    	OR	A,A
010C42 ED42                A  1622    	SBC	HL,BC
010C44 20 34               A  1623    	JR	NZ,L_90
010C46                     A  1624    L_76:
010C46 010C0000            A  1625    	LD	BC,12
010C4A DD27FD              A  1626    	LD	HL,(IX+-3)
010C4D B7                  A  1627    	OR	A,A
010C4E ED42                A  1628    	SBC	HL,BC
010C50 20 28               A  1629    	JR	NZ,L_90
010C52 01070000            A  1630    	LD	BC,7
010C56 DD27F6              A  1631    	LD	HL,(IX+-10)
010C59 B7                  A  1632    	OR	A,A
010C5A ED42                A  1633    	SBC	HL,BC
010C5C 20 1C               A  1634    	JR	NZ,L_90
010C5E 21666666            A  1635    	LD	HL,6710886
010C62 1E3F                A  1636    	LD	E,63
010C64 ED4B E7 7F 01       A  1637    	LD	BC,(_effe)
010C69 3A EA 7F 01         A  1638    	LD	A,(_effe+3)
010C6D CD 03 70 01         A  1639    	CALL	__fsub
010C71 ED43 E7 7F 01       A  1640    	LD	(_effe),BC
010C76 32 EA 7F 01         A  1641    	LD	(_effe+3),A
010C7A                     A  1642    L_90:
010C7A 21350000            A  1643    	LD	HL,53
010C7E 1E00                A  1644    	LD	E,0
010C80 ED4B E3 7F 01       A  1645    	LD	BC,(_nmossa)
010C85 3A E6 7F 01         A  1646    	LD	A,(_nmossa+3)
010C89 CD B2 71 01         A  1647    	CALL	__lcmps
010C8D F2 97 0C 01         A  1648    	JP	P,L__126
010C91 EA 0E 0D 01         A  1649    	JP	PE,L_97
010C95 18 04               A  1650    	JR	L__127
010C97                     A  1651    L__126:
010C97 E2 0E 0D 01         A  1652    	JP	PO,L_97
010C9B                     A  1653    L__127:
010C9B 3A EE 7F 01         A  1654    	LD	A,(_prof+3)
010C9F 5F                  A  1655    	LD	E,A
010CA0 AF                  A  1656    	XOR	A,A
010CA1 2A EB 7F 01         A  1657    	LD	HL,(_prof)
010CA5 01000000            A  1658    	LD	BC,0
010CA9 CD B2 71 01         A  1659    	CALL	__lcmps
010CAD 20 5F               A  1660    	JR	NZ,L_97
010CAF 01060000            A  1661    	LD	BC,6
010CB3 DD27FD              A  1662    	LD	HL,(IX+-3)
010CB6 B7                  A  1663    	OR	A,A
010CB7 ED42                A  1664    	SBC	HL,BC
Zilog eZ80 Macro Assembler Version 4.1 (10060805) RELISTED26-Aug-11     11:07:39     page:  33


PC     Object              I  Line    Source C:\Users\fog76\Desktop\CHFIGH~2\Debug\main.src
010CB9 28 0C               A  1665    	JR	Z,L_89
010CBB 010C0000            A  1666    	LD	BC,12
010CBF DD27FD              A  1667    	LD	HL,(IX+-3)
010CC2 B7                  A  1668    	OR	A,A
010CC3 ED42                A  1669    	SBC	HL,BC
010CC5 20 47               A  1670    	JR	NZ,L_97
010CC7                     A  1671    L_89:
010CC7 01000000            A  1672    	LD	BC,0
010CCB 2A E0 7F 01         A  1673    	LD	HL,(_col_prof)
010CCF B7                  A  1674    	OR	A,A
010CD0 ED42                A  1675    	SBC	HL,BC
010CD2 20 1E               A  1676    	JR	NZ,L_88
010CD4 21666666            A  1677    	LD	HL,6710886
010CD8 1E3F                A  1678    	LD	E,63
010CDA ED4B E7 7F 01       A  1679    	LD	BC,(_effe)
010CDF 3A EA 7F 01         A  1680    	LD	A,(_effe+3)
010CE3 CD FD 72 01         A  1681    	CALL	__fadd
010CE7 ED43 E7 7F 01       A  1682    	LD	(_effe),BC
010CEC 32 EA 7F 01         A  1683    	LD	(_effe+3),A
010CF0 18 1C               A  1684    	JR	L_97
010CF2                     A  1685    L_88:
010CF2 21666666            A  1686    	LD	HL,6710886
010CF6 1E3F                A  1687    	LD	E,63
010CF8 ED4B E7 7F 01       A  1688    	LD	BC,(_effe)
010CFD 3A EA 7F 01         A  1689    	LD	A,(_effe+3)
010D01 CD 03 70 01         A  1690    	CALL	__fsub
010D05 ED43 E7 7F 01       A  1691    	LD	(_effe),BC
010D0A 32 EA 7F 01         A  1692    	LD	(_effe+3),A
010D0E                     A  1693    L_97:
010D0E 01060000            A  1694    	LD	BC,6
010D12 DD27FD              A  1695    	LD	HL,(IX+-3)
010D15 B7                  A  1696    	OR	A,A
010D16 ED42                A  1697    	SBC	HL,BC
010D18 28 04               A  1698    	JR	Z,L__62
010D1A 3E01                A  1699    	LD	A,1
010D1C 18 01               A  1700    	JR	L__63
010D1E                     A  1701    L__62:
010D1E AF                  A  1702    	XOR	A,A
010D1F                     A  1703    L__63:
010D1F DD77E6              A  1704    	LD	(IX+-26),A
010D22 DD77E4              A  1705    	LD	(IX+-28),A
010D25 DD7EE6              A  1706    	LD	A,(IX+-26)
010D28 B7                  A  1707    	OR	A,A
010D29 20 38               A  1708    	JR	NZ,L_96
010D2B 01080000            A  1709    	LD	BC,8
010D2F DD27FA              A  1710    	LD	HL,(IX+-6)
010D32 B7                  A  1711    	OR	A,A
010D33 ED42                A  1712    	SBC	HL,BC
010D35 20 2C               A  1713    	JR	NZ,L_96
010D37 DD27E7              A  1714    	LD	HL,(IX+-25)
010D3A 01020000            A  1715    	LD	BC,2
010D3E ED0F                A  1716    	LD	(HL),BC
Zilog eZ80 Macro Assembler Version 4.1 (10060805) RELISTED26-Aug-11     11:07:39     page:  34


PC     Object              I  Line    Source C:\Users\fog76\Desktop\CHFIGH~2\Debug\main.src
010D40 23                  A  1717    	INC	HL
010D41 23                  A  1718    	INC	HL
010D42 23                  A  1719    	INC	HL
010D43 3600                A  1720    	LD	(HL),0
010D45 ED4B E7 7F 01       A  1721    	LD	BC,(_effe)
010D4A 3A EA 7F 01         A  1722    	LD	A,(_effe+3)
010D4E 21000010            A  1723    	LD	HL,1048576
010D52 1E41                A  1724    	LD	E,65
010D54 CD FD 72 01         A  1725    	CALL	__fadd
010D58 ED43 E7 7F 01       A  1726    	LD	(_effe),BC
010D5D 32 EA 7F 01         A  1727    	LD	(_effe+3),A
010D61 18 54               A  1728    	JR	L_98
010D63                     A  1729    L_96:
010D63 010C0000            A  1730    	LD	BC,12
010D67 DD27FD              A  1731    	LD	HL,(IX+-3)
010D6A B7                  A  1732    	OR	A,A
010D6B ED42                A  1733    	SBC	HL,BC
010D6D 20 38               A  1734    	JR	NZ,L_94
010D6F 01010000            A  1735    	LD	BC,1
010D73 DD27FA              A  1736    	LD	HL,(IX+-6)
010D76 B7                  A  1737    	OR	A,A
010D77 ED42                A  1738    	SBC	HL,BC
010D79 20 2C               A  1739    	JR	NZ,L_94
010D7B DD27E7              A  1740    	LD	HL,(IX+-25)
010D7E 01080000            A  1741    	LD	BC,8
010D82 ED0F                A  1742    	LD	(HL),BC
010D84 23                  A  1743    	INC	HL
010D85 23                  A  1744    	INC	HL
010D86 23                  A  1745    	INC	HL
010D87 3600                A  1746    	LD	(HL),0
010D89 ED4B E7 7F 01       A  1747    	LD	BC,(_effe)
010D8E 3A EA 7F 01         A  1748    	LD	A,(_effe+3)
010D92 21000010            A  1749    	LD	HL,1048576
010D96 1E41                A  1750    	LD	E,65
010D98 CD 03 70 01         A  1751    	CALL	__fsub
010D9C ED43 E7 7F 01       A  1752    	LD	(_effe),BC
010DA1 32 EA 7F 01         A  1753    	LD	(_effe+3),A
010DA5 18 10               A  1754    	JR	L_98
010DA7                     A  1755    L_94:
010DA7 DD07FD              A  1756    	LD	BC,(IX+-3)
010DAA CD AB 71 01         A  1757    	CALL	__itol
010DAE DD31E7              A  1758    	LD	IY,(IX+-25)
010DB1 FD0F00              A  1759    	LD	(IY),BC
010DB4 FD7703              A  1760    	LD	(IY+3),A
010DB7                     A  1761    L_98:
010DB7 DD07F2              A  1762    	LD	BC,(IX+-14)
010DBA C5E1                A  1763    	LD	HL,BC
010DBC 29                  A  1764    	ADD	HL,HL
010DBD 29                  A  1765    	ADD	HL,HL
010DBE 09                  A  1766    	ADD	HL,BC
010DBF 29                  A  1767    	ADD	HL,HL
010DC0 29                  A  1768    	ADD	HL,HL
Zilog eZ80 Macro Assembler Version 4.1 (10060805) RELISTED26-Aug-11     11:07:39     page:  35


PC     Object              I  Line    Source C:\Users\fog76\Desktop\CHFIGH~2\Debug\main.src
010DC1 29                  A  1769    	ADD	HL,HL
010DC2 01 D5 75 01         A  1770    	LD	BC,_scac
010DC6 09                  A  1771    	ADD	HL,BC
010DC7 E5C1                A  1772    	LD	BC,HL
010DC9 DD27F6              A  1773    	LD	HL,(IX+-10)
010DCC 29                  A  1774    	ADD	HL,HL
010DCD 29                  A  1775    	ADD	HL,HL
010DCE 09                  A  1776    	ADD	HL,BC
010DCF DD2FD8              A  1777    	LD	(IX+-40),HL
010DD2 01000000            A  1778    	LD	BC,0
010DD6 ED0F                A  1779    	LD	(HL),BC
010DD8 23                  A  1780    	INC	HL
010DD9 23                  A  1781    	INC	HL
010DDA 23                  A  1782    	INC	HL
010DDB 3600                A  1783    	LD	(HL),0
010DDD 2A EB 7F 01         A  1784    	LD	HL,(_prof)
010DE1 3A EE 7F 01         A  1785    	LD	A,(_prof+3)
010DE5 5F                  A  1786    	LD	E,A
010DE6 3A F2 7F 01         A  1787    	LD	A,(_livello+3)
010DEA ED4B EF 7F 01       A  1788    	LD	BC,(_livello)
010DEF CD B2 71 01         A  1789    	CALL	__lcmps
010DF3 C2 D0 0E 01         A  1790    	JR	NZ,L_121
010DF7 01000000            A  1791    	LD	BC,0
010DFB 2A E0 7F 01         A  1792    	LD	HL,(_col_prof)
010DFF B7                  A  1793    	OR	A,A
010E00 ED42                A  1794    	SBC	HL,BC
010E02 28 04               A  1795    	JR	Z,L__70
010E04 3E01                A  1796    	LD	A,1
010E06 18 01               A  1797    	JR	L__71
010E08                     A  1798    L__70:
010E08 AF                  A  1799    	XOR	A,A
010E09                     A  1800    L__71:
010E09 DD77EB              A  1801    	LD	(IX+-21),A
010E0C DD77E5              A  1802    	LD	(IX+-27),A
010E0F DD7EEB              A  1803    	LD	A,(IX+-21)
010E12 B7                  A  1804    	OR	A,A
010E13 20 4B               A  1805    	JR	NZ,L_101
010E15 3A EE 7F 01         A  1806    	LD	A,(_prof+3)
010E19 5F                  A  1807    	LD	E,A
010E1A AF                  A  1808    	XOR	A,A
010E1B 2A EB 7F 01         A  1809    	LD	HL,(_prof)
010E1F 01040000            A  1810    	LD	BC,4
010E23 CD 60 72 01         A  1811    	CALL	__lmuls
010E27 01 4D 7B 01         A  1812    	LD	BC,_ramo
010E2B 09                  A  1813    	ADD	HL,BC
010E2C DD2FDB              A  1814    	LD	(IX+-37),HL
010E2F 3A EE 7F 01         A  1815    	LD	A,(_prof+3)
010E33 5F                  A  1816    	LD	E,A
010E34 AF                  A  1817    	XOR	A,A
010E35 2A EB 7F 01         A  1818    	LD	HL,(_prof)
010E39 01040000            A  1819    	LD	BC,4
010E3D CD 60 72 01         A  1820    	CALL	__lmuls
Zilog eZ80 Macro Assembler Version 4.1 (10060805) RELISTED26-Aug-11     11:07:39     page:  36


PC     Object              I  Line    Source C:\Users\fog76\Desktop\CHFIGH~2\Debug\main.src
010E41 01 4D 7B 01         A  1821    	LD	BC,_ramo
010E45 09                  A  1822    	ADD	HL,BC
010E46 E5FDE1              A  1823    	LD	IY,HL
010E49 FD2700              A  1824    	LD	HL,(IY)
010E4C FD5E03              A  1825    	LD	E,(IY+3)
010E4F ED4B E7 7F 01       A  1826    	LD	BC,(_effe)
010E54 3A EA 7F 01         A  1827    	LD	A,(_effe+3)
010E58 CD 00 72 01         A  1828    	CALL	__fcmp
010E5C FA BA 0E 01         A  1829    	JP	M,L_102
010E60                     A  1830    L_101:
010E60 01010000            A  1831    	LD	BC,1
010E64 2A E0 7F 01         A  1832    	LD	HL,(_col_prof)
010E68 B7                  A  1833    	OR	A,A
010E69 ED42                A  1834    	SBC	HL,BC
010E6B C2 22 11 01         A  1835    	JR	NZ,L_154
010E6F 3A EE 7F 01         A  1836    	LD	A,(_prof+3)
010E73 5F                  A  1837    	LD	E,A
010E74 AF                  A  1838    	XOR	A,A
010E75 2A EB 7F 01         A  1839    	LD	HL,(_prof)
010E79 01040000            A  1840    	LD	BC,4
010E7D CD 60 72 01         A  1841    	CALL	__lmuls
010E81 01 4D 7B 01         A  1842    	LD	BC,_ramo
010E85 09                  A  1843    	ADD	HL,BC
010E86 DD2FDB              A  1844    	LD	(IX+-37),HL
010E89 3A EE 7F 01         A  1845    	LD	A,(_prof+3)
010E8D 5F                  A  1846    	LD	E,A
010E8E AF                  A  1847    	XOR	A,A
010E8F 2A EB 7F 01         A  1848    	LD	HL,(_prof)
010E93 01040000            A  1849    	LD	BC,4
010E97 CD 60 72 01         A  1850    	CALL	__lmuls
010E9B 01 4D 7B 01         A  1851    	LD	BC,_ramo
010E9F 09                  A  1852    	ADD	HL,BC
010EA0 3A EA 7F 01         A  1853    	LD	A,(_effe+3)
010EA4 5F                  A  1854    	LD	E,A
010EA5 E5FDE1              A  1855    	LD	IY,HL
010EA8 2A E7 7F 01         A  1856    	LD	HL,(_effe)
010EAC FD0700              A  1857    	LD	BC,(IY)
010EAF FD7E03              A  1858    	LD	A,(IY+3)
010EB2 CD 00 72 01         A  1859    	CALL	__fcmp
010EB6 F2 22 11 01         A  1860    	JP	P,L_154
010EBA                     A  1861    L_102:
010EBA DD27DB              A  1862    	LD	HL,(IX+-37)
010EBD ED4B E7 7F 01       A  1863    	LD	BC,(_effe)
010EC2 3A EA 7F 01         A  1864    	LD	A,(_effe+3)
010EC6 ED0F                A  1865    	LD	(HL),BC
010EC8 23                  A  1866    	INC	HL
010EC9 23                  A  1867    	INC	HL
010ECA 23                  A  1868    	INC	HL
010ECB 77                  A  1869    	LD	(HL),A
010ECC C3 22 11 01         A  1870    	JR	L_154
010ED0                     A  1871    L_121:
010ED0 3A EE 7F 01         A  1872    	LD	A,(_prof+3)
Zilog eZ80 Macro Assembler Version 4.1 (10060805) RELISTED26-Aug-11     11:07:39     page:  37


PC     Object              I  Line    Source C:\Users\fog76\Desktop\CHFIGH~2\Debug\main.src
010ED4 5F                  A  1873    	LD	E,A
010ED5 3E01                A  1874    	LD	A,1
010ED7 2A EB 7F 01         A  1875    	LD	HL,(_prof)
010EDB CD FC 6D 01         A  1876    	CALL	__ladd_b
010EDF 22 EB 7F 01         A  1877    	LD	(_prof),HL
010EE3 7B                  A  1878    	LD	A,E
010EE4 32 EE 7F 01         A  1879    	LD	(_prof+3),A
010EE8 2A E0 7F 01         A  1880    	LD	HL,(_col_prof)
010EEC 01000000            A  1881    	LD	BC,0
010EF0 B7                  A  1882    	OR	A,A
010EF1 ED42                A  1883    	SBC	HL,BC
010EF3 20 0B               A  1884    	JR	NZ,L_105
010EF5 01010000            A  1885    	LD	BC,1
010EF9 ED43 E0 7F 01       A  1886    	LD	(_col_prof),BC
010EFE 18 05               A  1887    	JR	L_106
010F00                     A  1888    L_105:
010F00 ED43 E0 7F 01       A  1889    	LD	(_col_prof),BC
010F05                     A  1890    L_106:
010F05 01000000            A  1891    	LD	BC,0
010F09 C5                  A  1892    	PUSH	BC
010F0A CD 06 21 01         A  1893    	CALL	_calcolamosse
010F0E C1                  A  1894    	POP	BC
010F0F 3A EE 7F 01         A  1895    	LD	A,(_prof+3)
010F13 5F                  A  1896    	LD	E,A
010F14 3EFF                A  1897    	LD	A,255
010F16 2A EB 7F 01         A  1898    	LD	HL,(_prof)
010F1A 01FFFFFF            A  1899    	LD	BC,16777215
010F1E CD 0B 6E 01         A  1900    	CALL	__ladd
010F22 22 EB 7F 01         A  1901    	LD	(_prof),HL
010F26 7B                  A  1902    	LD	A,E
010F27 32 EE 7F 01         A  1903    	LD	(_prof+3),A
010F2B 2A E0 7F 01         A  1904    	LD	HL,(_col_prof)
010F2F 01000000            A  1905    	LD	BC,0
010F33 B7                  A  1906    	OR	A,A
010F34 ED42                A  1907    	SBC	HL,BC
010F36 20 0B               A  1908    	JR	NZ,L_109
010F38 01010000            A  1909    	LD	BC,1
010F3C ED43 E0 7F 01       A  1910    	LD	(_col_prof),BC
010F41 18 05               A  1911    	JR	L_116
010F43                     A  1912    L_109:
010F43 ED43 E0 7F 01       A  1913    	LD	(_col_prof),BC
010F48                     A  1914    L_116:
010F48 01000000            A  1915    	LD	BC,0
010F4C 2A E0 7F 01         A  1916    	LD	HL,(_col_prof)
010F50 B7                  A  1917    	OR	A,A
010F51 ED42                A  1918    	SBC	HL,BC
010F53 28 04               A  1919    	JR	Z,L__79
010F55 3E01                A  1920    	LD	A,1
010F57 18 01               A  1921    	JR	L__80
010F59                     A  1922    L__79:
010F59 AF                  A  1923    	XOR	A,A
010F5A                     A  1924    L__80:
Zilog eZ80 Macro Assembler Version 4.1 (10060805) RELISTED26-Aug-11     11:07:39     page:  38


PC     Object              I  Line    Source C:\Users\fog76\Desktop\CHFIGH~2\Debug\main.src
010F5A DD77EA              A  1925    	LD	(IX+-22),A
010F5D B7                  A  1926    	OR	A,A
010F5E C2 ED 0F 01         A  1927    	JR	NZ,L_112
010F62 3A EE 7F 01         A  1928    	LD	A,(_prof+3)
010F66 5F                  A  1929    	LD	E,A
010F67 3E01                A  1930    	LD	A,1
010F69 2A EB 7F 01         A  1931    	LD	HL,(_prof)
010F6D CD FC 6D 01         A  1932    	CALL	__ladd_b
010F71 AF                  A  1933    	XOR	A,A
010F72 01040000            A  1934    	LD	BC,4
010F76 CD 60 72 01         A  1935    	CALL	__lmuls
010F7A 01 4D 7B 01         A  1936    	LD	BC,_ramo
010F7E 09                  A  1937    	ADD	HL,BC
010F7F DD2FDE              A  1938    	LD	(IX+-34),HL
010F82 3A EE 7F 01         A  1939    	LD	A,(_prof+3)
010F86 5F                  A  1940    	LD	E,A
010F87 AF                  A  1941    	XOR	A,A
010F88 2A EB 7F 01         A  1942    	LD	HL,(_prof)
010F8C 01040000            A  1943    	LD	BC,4
010F90 CD 60 72 01         A  1944    	CALL	__lmuls
010F94 01 4D 7B 01         A  1945    	LD	BC,_ramo
010F98 09                  A  1946    	ADD	HL,BC
010F99 DD2FD5              A  1947    	LD	(IX+-43),HL
010F9C 3A EE 7F 01         A  1948    	LD	A,(_prof+3)
010FA0 5F                  A  1949    	LD	E,A
010FA1 3E01                A  1950    	LD	A,1
010FA3 2A EB 7F 01         A  1951    	LD	HL,(_prof)
010FA7 CD FC 6D 01         A  1952    	CALL	__ladd_b
010FAB AF                  A  1953    	XOR	A,A
010FAC 01040000            A  1954    	LD	BC,4
010FB0 CD 60 72 01         A  1955    	CALL	__lmuls
010FB4 01 4D 7B 01         A  1956    	LD	BC,_ramo
010FB8 09                  A  1957    	ADD	HL,BC
010FB9 3A EE 7F 01         A  1958    	LD	A,(_prof+3)
010FBD 5F                  A  1959    	LD	E,A
010FBE DD2FC6              A  1960    	LD	(IX+-58),HL
010FC1 2A EB 7F 01         A  1961    	LD	HL,(_prof)
010FC5 AF                  A  1962    	XOR	A,A
010FC6 01040000            A  1963    	LD	BC,4
010FCA CD 60 72 01         A  1964    	CALL	__lmuls
010FCE 01 4D 7B 01         A  1965    	LD	BC,_ramo
010FD2 09                  A  1966    	ADD	HL,BC
010FD3 E5FDE1              A  1967    	LD	IY,HL
010FD6 FD2700              A  1968    	LD	HL,(IY)
010FD9 FD5E03              A  1969    	LD	E,(IY+3)
010FDC DD31C6              A  1970    	LD	IY,(IX+-58)
010FDF FD0700              A  1971    	LD	BC,(IY)
010FE2 FD7E03              A  1972    	LD	A,(IY+3)
010FE5 CD 00 72 01         A  1973    	CALL	__fcmp
010FE9 FA 86 10 01         A  1974    	JP	M,L_115
010FED                     A  1975    L_112:
010FED 01010000            A  1976    	LD	BC,1
Zilog eZ80 Macro Assembler Version 4.1 (10060805) RELISTED26-Aug-11     11:07:39     page:  39


PC     Object              I  Line    Source C:\Users\fog76\Desktop\CHFIGH~2\Debug\main.src
010FF1 2A E0 7F 01         A  1977    	LD	HL,(_col_prof)
010FF5 B7                  A  1978    	OR	A,A
010FF6 ED42                A  1979    	SBC	HL,BC
010FF8 C2 BE 10 01         A  1980    	JR	NZ,L_119
010FFC 3A EE 7F 01         A  1981    	LD	A,(_prof+3)
011000 5F                  A  1982    	LD	E,A
011001 3E01                A  1983    	LD	A,1
011003 2A EB 7F 01         A  1984    	LD	HL,(_prof)
011007 CD FC 6D 01         A  1985    	CALL	__ladd_b
01100B AF                  A  1986    	XOR	A,A
01100C 01040000            A  1987    	LD	BC,4
011010 CD 60 72 01         A  1988    	CALL	__lmuls
011014 01 4D 7B 01         A  1989    	LD	BC,_ramo
011018 09                  A  1990    	ADD	HL,BC
011019 DD2FDE              A  1991    	LD	(IX+-34),HL
01101C 3A EE 7F 01         A  1992    	LD	A,(_prof+3)
011020 5F                  A  1993    	LD	E,A
011021 AF                  A  1994    	XOR	A,A
011022 2A EB 7F 01         A  1995    	LD	HL,(_prof)
011026 01040000            A  1996    	LD	BC,4
01102A CD 60 72 01         A  1997    	CALL	__lmuls
01102E 01 4D 7B 01         A  1998    	LD	BC,_ramo
011032 09                  A  1999    	ADD	HL,BC
011033 DD2FD5              A  2000    	LD	(IX+-43),HL
011036 3A EE 7F 01         A  2001    	LD	A,(_prof+3)
01103A 5F                  A  2002    	LD	E,A
01103B 3E01                A  2003    	LD	A,1
01103D 2A EB 7F 01         A  2004    	LD	HL,(_prof)
011041 CD FC 6D 01         A  2005    	CALL	__ladd_b
011045 AF                  A  2006    	XOR	A,A
011046 01040000            A  2007    	LD	BC,4
01104A CD 60 72 01         A  2008    	CALL	__lmuls
01104E 01 4D 7B 01         A  2009    	LD	BC,_ramo
011052 09                  A  2010    	ADD	HL,BC
011053 3A EE 7F 01         A  2011    	LD	A,(_prof+3)
011057 5F                  A  2012    	LD	E,A
011058 E5FDE1              A  2013    	LD	IY,HL
01105B 2A EB 7F 01         A  2014    	LD	HL,(_prof)
01105F AF                  A  2015    	XOR	A,A
011060 01040000            A  2016    	LD	BC,4
011064 CD 60 72 01         A  2017    	CALL	__lmuls
011068 01 4D 7B 01         A  2018    	LD	BC,_ramo
01106C 09                  A  2019    	ADD	HL,BC
01106D E5C1                A  2020    	LD	BC,HL
01106F FD2700              A  2021    	LD	HL,(IY)
011072 FD5E03              A  2022    	LD	E,(IY+3)
011075 C5FDE1              A  2023    	LD	IY,BC
011078 FD0700              A  2024    	LD	BC,(IY)
01107B FD7E03              A  2025    	LD	A,(IY+3)
01107E CD 00 72 01         A  2026    	CALL	__fcmp
011082 F2 BE 10 01         A  2027    	JP	P,L_119
011086                     A  2028    L_115:
Zilog eZ80 Macro Assembler Version 4.1 (10060805) RELISTED26-Aug-11     11:07:39     page:  40


PC     Object              I  Line    Source C:\Users\fog76\Desktop\CHFIGH~2\Debug\main.src
011086 3A EE 7F 01         A  2029    	LD	A,(_prof+3)
01108A 5F                  A  2030    	LD	E,A
01108B AF                  A  2031    	XOR	A,A
01108C 2A EB 7F 01         A  2032    	LD	HL,(_prof)
011090 01000000            A  2033    	LD	BC,0
011094 CD B2 71 01         A  2034    	CALL	__lcmps
011098 20 12               A  2035    	JR	NZ,L_114
01109A ED4B DC 7F 01       A  2036    	LD	BC,(_mossa_in_analisi)
01109F 3A DF 7F 01         A  2037    	LD	A,(_mossa_in_analisi+3)
0110A3 ED43 D8 7F 01       A  2038    	LD	(_mossa_giocata),BC
0110A8 32 DB 7F 01         A  2039    	LD	(_mossa_giocata+3),A
0110AC                     A  2040    L_114:
0110AC DD27DE              A  2041    	LD	HL,(IX+-34)
0110AF ED07                A  2042    	LD	BC,(HL)
0110B1 23                  A  2043    	INC	HL
0110B2 23                  A  2044    	INC	HL
0110B3 23                  A  2045    	INC	HL
0110B4 7E                  A  2046    	LD	A,(HL)
0110B5 DD27D5              A  2047    	LD	HL,(IX+-43)
0110B8 ED0F                A  2048    	LD	(HL),BC
0110BA 23                  A  2049    	INC	HL
0110BB 23                  A  2050    	INC	HL
0110BC 23                  A  2051    	INC	HL
0110BD 77                  A  2052    	LD	(HL),A
0110BE                     A  2053    L_119:
0110BE DD7EEA              A  2054    	LD	A,(IX+-22)
0110C1 DD77EB              A  2055    	LD	(IX+-21),A
0110C4 DD7EEA              A  2056    	LD	A,(IX+-22)
0110C7 DD77E5              A  2057    	LD	(IX+-27),A
0110CA DD7EEA              A  2058    	LD	A,(IX+-22)
0110CD B7                  A  2059    	OR	A,A
0110CE 20 2A               A  2060    	JR	NZ,L_118
0110D0 3A EE 7F 01         A  2061    	LD	A,(_prof+3)
0110D4 5F                  A  2062    	LD	E,A
0110D5 3E01                A  2063    	LD	A,1
0110D7 2A EB 7F 01         A  2064    	LD	HL,(_prof)
0110DB CD FC 6D 01         A  2065    	CALL	__ladd_b
0110DF AF                  A  2066    	XOR	A,A
0110E0 01040000            A  2067    	LD	BC,4
0110E4 CD 60 72 01         A  2068    	CALL	__lmuls
0110E8 01 4D 7B 01         A  2069    	LD	BC,_ramo
0110EC 09                  A  2070    	ADD	HL,BC
0110ED 010000C8            A  2071    	LD	BC,13107200
0110F1 ED0F                A  2072    	LD	(HL),BC
0110F3 23                  A  2073    	INC	HL
0110F4 23                  A  2074    	INC	HL
0110F5 23                  A  2075    	INC	HL
0110F6 3642                A  2076    	LD	(HL),66
0110F8 18 28               A  2077    	JR	L_154
0110FA                     A  2078    L_118:
0110FA 3A EE 7F 01         A  2079    	LD	A,(_prof+3)
0110FE 5F                  A  2080    	LD	E,A
Zilog eZ80 Macro Assembler Version 4.1 (10060805) RELISTED26-Aug-11     11:07:39     page:  41


PC     Object              I  Line    Source C:\Users\fog76\Desktop\CHFIGH~2\Debug\main.src
0110FF 3E01                A  2081    	LD	A,1
011101 2A EB 7F 01         A  2082    	LD	HL,(_prof)
011105 CD FC 6D 01         A  2083    	CALL	__ladd_b
011109 AF                  A  2084    	XOR	A,A
01110A 01040000            A  2085    	LD	BC,4
01110E CD 60 72 01         A  2086    	CALL	__lmuls
011112 01 4D 7B 01         A  2087    	LD	BC,_ramo
011116 09                  A  2088    	ADD	HL,BC
011117 010000C8            A  2089    	LD	BC,13107200
01111B ED0F                A  2090    	LD	(HL),BC
01111D 23                  A  2091    	INC	HL
01111E 23                  A  2092    	INC	HL
01111F 23                  A  2093    	INC	HL
011120 36C2                A  2094    	LD	(HL),194
011122                     A  2095    L_154:
011122 3A E6 7F 01         A  2096    	LD	A,(_nmossa+3)
011126 5F                  A  2097    	LD	E,A
011127 AF                  A  2098    	XOR	A,A
011128 2A E3 7F 01         A  2099    	LD	HL,(_nmossa)
01112C 010D0000            A  2100    	LD	BC,13
011130 CD B2 71 01         A  2101    	CALL	__lcmps
011134 F2 2B 13 01         A  2102    	JP	P,L_161
011138 3A EE 7F 01         A  2103    	LD	A,(_prof+3)
01113C 5F                  A  2104    	LD	E,A
01113D AF                  A  2105    	XOR	A,A
01113E 2A EB 7F 01         A  2106    	LD	HL,(_prof)
011142 01000000            A  2107    	LD	BC,0
011146 CD B2 71 01         A  2108    	CALL	__lcmps
01114A C2 2B 13 01         A  2109    	JR	NZ,L_161
01114E DD7EEB              A  2110    	LD	A,(IX+-21)
011151 DD77E5              A  2111    	LD	(IX+-27),A
011154 B7                  A  2112    	OR	A,A
011155 C2 47 12 01         A  2113    	JR	NZ,L_152
011159 01030000            A  2114    	LD	BC,3
01115D DD27EF              A  2115    	LD	HL,(IX+-17)
011160 B7                  A  2116    	OR	A,A
011161 ED42                A  2117    	SBC	HL,BC
011163 28 24               A  2118    	JR	Z,L_126
011165 01060000            A  2119    	LD	BC,6
011169 DD27EF              A  2120    	LD	HL,(IX+-17)
01116C B7                  A  2121    	OR	A,A
01116D ED42                A  2122    	SBC	HL,BC
01116F 28 18               A  2123    	JR	Z,L_126
011171 01020000            A  2124    	LD	BC,2
011175 DD27FA              A  2125    	LD	HL,(IX+-6)
011178 B7                  A  2126    	OR	A,A
011179 ED42                A  2127    	SBC	HL,BC
01117B 28 0C               A  2128    	JR	Z,L_126
01117D 01030000            A  2129    	LD	BC,3
011181 DD27FA              A  2130    	LD	HL,(IX+-6)
011184 B7                  A  2131    	OR	A,A
011185 ED42                A  2132    	SBC	HL,BC
Zilog eZ80 Macro Assembler Version 4.1 (10060805) RELISTED26-Aug-11     11:07:39     page:  42


PC     Object              I  Line    Source C:\Users\fog76\Desktop\CHFIGH~2\Debug\main.src
011187 20 34               A  2133    	JR	NZ,L_131
011189                     A  2134    L_126:
011189 01040000            A  2135    	LD	BC,4
01118D DD27FD              A  2136    	LD	HL,(IX+-3)
011190 B7                  A  2137    	OR	A,A
011191 ED42                A  2138    	SBC	HL,BC
011193 20 28               A  2139    	JR	NZ,L_131
011195 01010000            A  2140    	LD	BC,1
011199 DD27F6              A  2141    	LD	HL,(IX+-10)
01119C B7                  A  2142    	OR	A,A
01119D ED42                A  2143    	SBC	HL,BC
01119F 20 1C               A  2144    	JR	NZ,L_131
0111A1 21CDCC4C            A  2145    	LD	HL,5033165
0111A5 1E3F                A  2146    	LD	E,63
0111A7 ED4B E7 7F 01       A  2147    	LD	BC,(_effe)
0111AC 3A EA 7F 01         A  2148    	LD	A,(_effe+3)
0111B0 CD 03 70 01         A  2149    	CALL	__fsub
0111B4 ED43 E7 7F 01       A  2150    	LD	(_effe),BC
0111B9 32 EA 7F 01         A  2151    	LD	(_effe+3),A
0111BD                     A  2152    L_131:
0111BD 01010000            A  2153    	LD	BC,1
0111C1 DD27F6              A  2154    	LD	HL,(IX+-10)
0111C4 B7                  A  2155    	OR	A,A
0111C5 ED42                A  2156    	SBC	HL,BC
0111C7 20 28               A  2157    	JR	NZ,L_136
0111C9 01030000            A  2158    	LD	BC,3
0111CD DD27FD              A  2159    	LD	HL,(IX+-3)
0111D0 B7                  A  2160    	OR	A,A
0111D1 ED42                A  2161    	SBC	HL,BC
0111D3 20 1C               A  2162    	JR	NZ,L_136
0111D5 21333333            A  2163    	LD	HL,3355443
0111D9 1E3F                A  2164    	LD	E,63
0111DB ED4B E7 7F 01       A  2165    	LD	BC,(_effe)
0111E0 3A EA 7F 01         A  2166    	LD	A,(_effe+3)
0111E4 CD 03 70 01         A  2167    	CALL	__fsub
0111E8 ED43 E7 7F 01       A  2168    	LD	(_effe),BC
0111ED 32 EA 7F 01         A  2169    	LD	(_effe+3),A
0111F1                     A  2170    L_136:
0111F1 01040000            A  2171    	LD	BC,4
0111F5 DD27F2              A  2172    	LD	HL,(IX+-14)
0111F8 B7                  A  2173    	OR	A,A
0111F9 ED42                A  2174    	SBC	HL,BC
0111FB 28 0E               A  2175    	JR	Z,L_133
0111FD 01050000            A  2176    	LD	BC,5
011201 DD27F2              A  2177    	LD	HL,(IX+-14)
011204 B7                  A  2178    	OR	A,A
011205 ED42                A  2179    	SBC	HL,BC
011207 C2 2B 13 01         A  2180    	JR	NZ,L_161
01120B                     A  2181    L_133:
01120B DD7EE6              A  2182    	LD	A,(IX+-26)
01120E DD77E4              A  2183    	LD	(IX+-28),A
011211 DD7EE6              A  2184    	LD	A,(IX+-26)
Zilog eZ80 Macro Assembler Version 4.1 (10060805) RELISTED26-Aug-11     11:07:39     page:  43


PC     Object              I  Line    Source C:\Users\fog76\Desktop\CHFIGH~2\Debug\main.src
011214 B7                  A  2185    	OR	A,A
011215 C2 2B 13 01         A  2186    	JR	NZ,L_161
011219 01020000            A  2187    	LD	BC,2
01121D DD27F6              A  2188    	LD	HL,(IX+-10)
011220 B7                  A  2189    	OR	A,A
011221 ED42                A  2190    	SBC	HL,BC
011223 C2 2B 13 01         A  2191    	JR	NZ,L_161
011227 21666666            A  2192    	LD	HL,6710886
01122B 1E3F                A  2193    	LD	E,63
01122D ED4B E7 7F 01       A  2194    	LD	BC,(_effe)
011232 3A EA 7F 01         A  2195    	LD	A,(_effe+3)
011236 CD 03 70 01         A  2196    	CALL	__fsub
01123A ED43 E7 7F 01       A  2197    	LD	(_effe),BC
01123F 32 EA 7F 01         A  2198    	LD	(_effe+3),A
011243 C3 2B 13 01         A  2199    	JR	L_161
011247                     A  2200    L_152:
011247 01030000            A  2201    	LD	BC,3
01124B DD27EF              A  2202    	LD	HL,(IX+-17)
01124E B7                  A  2203    	OR	A,A
01124F ED42                A  2204    	SBC	HL,BC
011251 28 24               A  2205    	JR	Z,L_140
011253 01060000            A  2206    	LD	BC,6
011257 DD27EF              A  2207    	LD	HL,(IX+-17)
01125A B7                  A  2208    	OR	A,A
01125B ED42                A  2209    	SBC	HL,BC
01125D 28 18               A  2210    	JR	Z,L_140
01125F 01070000            A  2211    	LD	BC,7
011263 DD27FA              A  2212    	LD	HL,(IX+-6)
011266 B7                  A  2213    	OR	A,A
011267 ED42                A  2214    	SBC	HL,BC
011269 28 0C               A  2215    	JR	Z,L_140
01126B 01060000            A  2216    	LD	BC,6
01126F DD27FA              A  2217    	LD	HL,(IX+-6)
011272 B7                  A  2218    	OR	A,A
011273 ED42                A  2219    	SBC	HL,BC
011275 20 34               A  2220    	JR	NZ,L_145
011277                     A  2221    L_140:
011277 010A0000            A  2222    	LD	BC,10
01127B DD27FD              A  2223    	LD	HL,(IX+-3)
01127E B7                  A  2224    	OR	A,A
01127F ED42                A  2225    	SBC	HL,BC
011281 20 28               A  2226    	JR	NZ,L_145
011283 01080000            A  2227    	LD	BC,8
011287 DD27F6              A  2228    	LD	HL,(IX+-10)
01128A B7                  A  2229    	OR	A,A
01128B ED42                A  2230    	SBC	HL,BC
01128D 20 1C               A  2231    	JR	NZ,L_145
01128F 21CDCC4C            A  2232    	LD	HL,5033165
011293 1E3F                A  2233    	LD	E,63
011295 ED4B E7 7F 01       A  2234    	LD	BC,(_effe)
01129A 3A EA 7F 01         A  2235    	LD	A,(_effe+3)
01129E CD FD 72 01         A  2236    	CALL	__fadd
Zilog eZ80 Macro Assembler Version 4.1 (10060805) RELISTED26-Aug-11     11:07:39     page:  44


PC     Object              I  Line    Source C:\Users\fog76\Desktop\CHFIGH~2\Debug\main.src
0112A2 ED43 E7 7F 01       A  2237    	LD	(_effe),BC
0112A7 32 EA 7F 01         A  2238    	LD	(_effe+3),A
0112AB                     A  2239    L_145:
0112AB 01080000            A  2240    	LD	BC,8
0112AF DD27F6              A  2241    	LD	HL,(IX+-10)
0112B2 B7                  A  2242    	OR	A,A
0112B3 ED42                A  2243    	SBC	HL,BC
0112B5 20 28               A  2244    	JR	NZ,L_150
0112B7 01090000            A  2245    	LD	BC,9
0112BB DD27FD              A  2246    	LD	HL,(IX+-3)
0112BE B7                  A  2247    	OR	A,A
0112BF ED42                A  2248    	SBC	HL,BC
0112C1 20 1C               A  2249    	JR	NZ,L_150
0112C3 21333333            A  2250    	LD	HL,3355443
0112C7 1E3F                A  2251    	LD	E,63
0112C9 ED4B E7 7F 01       A  2252    	LD	BC,(_effe)
0112CE 3A EA 7F 01         A  2253    	LD	A,(_effe+3)
0112D2 CD FD 72 01         A  2254    	CALL	__fadd
0112D6 ED43 E7 7F 01       A  2255    	LD	(_effe),BC
0112DB 32 EA 7F 01         A  2256    	LD	(_effe+3),A
0112DF                     A  2257    L_150:
0112DF 01040000            A  2258    	LD	BC,4
0112E3 DD27F2              A  2259    	LD	HL,(IX+-14)
0112E6 B7                  A  2260    	OR	A,A
0112E7 ED42                A  2261    	SBC	HL,BC
0112E9 28 0C               A  2262    	JR	Z,L_147
0112EB 01050000            A  2263    	LD	BC,5
0112EF DD27F2              A  2264    	LD	HL,(IX+-14)
0112F2 B7                  A  2265    	OR	A,A
0112F3 ED42                A  2266    	SBC	HL,BC
0112F5 20 34               A  2267    	JR	NZ,L_161
0112F7                     A  2268    L_147:
0112F7 010C0000            A  2269    	LD	BC,12
0112FB DD27FD              A  2270    	LD	HL,(IX+-3)
0112FE B7                  A  2271    	OR	A,A
0112FF ED42                A  2272    	SBC	HL,BC
011301 20 28               A  2273    	JR	NZ,L_161
011303 01070000            A  2274    	LD	BC,7
011307 DD27F6              A  2275    	LD	HL,(IX+-10)
01130A B7                  A  2276    	OR	A,A
01130B ED42                A  2277    	SBC	HL,BC
01130D 20 1C               A  2278    	JR	NZ,L_161
01130F 21666666            A  2279    	LD	HL,6710886
011313 1E3F                A  2280    	LD	E,63
011315 ED4B E7 7F 01       A  2281    	LD	BC,(_effe)
01131A 3A EA 7F 01         A  2282    	LD	A,(_effe+3)
01131E CD FD 72 01         A  2283    	CALL	__fadd
011322 ED43 E7 7F 01       A  2284    	LD	(_effe),BC
011327 32 EA 7F 01         A  2285    	LD	(_effe+3),A
01132B                     A  2286    L_161:
01132B 21350000            A  2287    	LD	HL,53
01132F 1E00                A  2288    	LD	E,0
Zilog eZ80 Macro Assembler Version 4.1 (10060805) RELISTED26-Aug-11     11:07:39     page:  45


PC     Object              I  Line    Source C:\Users\fog76\Desktop\CHFIGH~2\Debug\main.src
011331 ED4B E3 7F 01       A  2289    	LD	BC,(_nmossa)
011336 3A E6 7F 01         A  2290    	LD	A,(_nmossa+3)
01133A CD B2 71 01         A  2291    	CALL	__lcmps
01133E F2 AE 13 01         A  2292    	JP	P,L_162
011342 3A EE 7F 01         A  2293    	LD	A,(_prof+3)
011346 5F                  A  2294    	LD	E,A
011347 AF                  A  2295    	XOR	A,A
011348 2A EB 7F 01         A  2296    	LD	HL,(_prof)
01134C 01000000            A  2297    	LD	BC,0
011350 CD B2 71 01         A  2298    	CALL	__lcmps
011354 20 58               A  2299    	JR	NZ,L_162
011356 01060000            A  2300    	LD	BC,6
01135A DD27FD              A  2301    	LD	HL,(IX+-3)
01135D B7                  A  2302    	OR	A,A
01135E ED42                A  2303    	SBC	HL,BC
011360 28 0C               A  2304    	JR	Z,L_160
011362 010C0000            A  2305    	LD	BC,12
011366 DD27FD              A  2306    	LD	HL,(IX+-3)
011369 B7                  A  2307    	OR	A,A
01136A ED42                A  2308    	SBC	HL,BC
01136C 20 40               A  2309    	JR	NZ,L_162
01136E                     A  2310    L_160:
01136E DD7EE5              A  2311    	LD	A,(IX+-27)
011371 B7                  A  2312    	OR	A,A
011372 20 1E               A  2313    	JR	NZ,L_159
011374 21666666            A  2314    	LD	HL,6710886
011378 1E3F                A  2315    	LD	E,63
01137A ED4B E7 7F 01       A  2316    	LD	BC,(_effe)
01137F 3A EA 7F 01         A  2317    	LD	A,(_effe+3)
011383 CD 03 70 01         A  2318    	CALL	__fsub
011387 ED43 E7 7F 01       A  2319    	LD	(_effe),BC
01138C 32 EA 7F 01         A  2320    	LD	(_effe+3),A
011390 18 1C               A  2321    	JR	L_162
011392                     A  2322    L_159:
011392 21666666            A  2323    	LD	HL,6710886
011396 1E3F                A  2324    	LD	E,63
011398 ED4B E7 7F 01       A  2325    	LD	BC,(_effe)
01139D 3A EA 7F 01         A  2326    	LD	A,(_effe+3)
0113A1 CD FD 72 01         A  2327    	CALL	__fadd
0113A5 ED43 E7 7F 01       A  2328    	LD	(_effe),BC
0113AA 32 EA 7F 01         A  2329    	LD	(_effe+3),A
0113AE                     A  2330    L_162:
0113AE DD07FD              A  2331    	LD	BC,(IX+-3)
0113B1 CD AB 71 01         A  2332    	CALL	__itol
0113B5 DD31D8              A  2333    	LD	IY,(IX+-40)
0113B8 FD0F00              A  2334    	LD	(IY),BC
0113BB FD7703              A  2335    	LD	(IY+3),A
0113BE DD27EC              A  2336    	LD	HL,(IX+-20)
0113C1 01 D5 75 01         A  2337    	LD	BC,_scac
0113C5 09                  A  2338    	ADD	HL,BC
0113C6 DD2FC9              A  2339    	LD	(IX+-55),HL
0113C9 DD07E1              A  2340    	LD	BC,(IX+-31)
Zilog eZ80 Macro Assembler Version 4.1 (10060805) RELISTED26-Aug-11     11:07:39     page:  46


PC     Object              I  Line    Source C:\Users\fog76\Desktop\CHFIGH~2\Debug\main.src
0113CC DD27C9              A  2341    	LD	HL,(IX+-55)
0113CF 09                  A  2342    	ADD	HL,BC
0113D0 DD2FCC              A  2343    	LD	(IX+-52),HL
0113D3 DD2706              A  2344    	LD	HL,(IX+6)
0113D6 DD5E09              A  2345    	LD	E,(IX+9)
0113D9 AF                  A  2346    	XOR	A,A
0113DA 01102700            A  2347    	LD	BC,10000
0113DE CD 60 70 01         A  2348    	CALL	__ldivu
0113E2 01640000            A  2349    	LD	BC,100
0113E6 AF                  A  2350    	XOR	A,A
0113E7 CD 1D 72 01         A  2351    	CALL	__lremu
0113EB DD31CC              A  2352    	LD	IY,(IX+-52)
0113EE FD2F00              A  2353    	LD	(IY),HL
0113F1 FD7303              A  2354    	LD	(IY+3),E
0113F4 DD27CC              A  2355    	LD	HL,(IX+-52)
0113F7 ED27                A  2356    	LD	HL,(HL)
0113F9 CD C8 71 01         A  2357    	CALL	__seqcase
0113FD                     A  2358    L__119:
0113FD 0C00                A  2359    	DW	12
0113FF 0100                A  2360    	DW	1
011401 00                  A  2361    	DB	0
011402 811501              A  2362    	DW24	L_174	
                           A  2363    
011405 451501              A  2364    	DW24	L_172	
                           A  2365    
011408 271501              A  2366    	DW24	L_171	
                           A  2367    
01140B 091501              A  2368    	DW24	L_170	
                           A  2369    
01140E 631501              A  2370    	DW24	L_173	
                           A  2371    
011411 E91401              A  2372    	DW24	L_169	
                           A  2373    
011414 C91401              A  2374    	DW24	L_168	
                           A  2375    
011417 891401              A  2376    	DW24	L_166	
                           A  2377    
01141A 691401              A  2378    	DW24	L_165	
                           A  2379    
01141D 491401              A  2380    	DW24	L_164	
                           A  2381    
011420 A91401              A  2382    	DW24	L_167	
                           A  2383    
011423 291401              A  2384    	DW24	L_163	
                           A  2385    
011426 9D1501              A  2386    	DW24	L_177	
                           A  2387    
011429                     A  2388    L_163:
011429 21000080            A  2389    	LD	HL,8388608
01142D 1E3F                A  2390    	LD	E,63
01142F ED4B E7 7F 01       A  2391    	LD	BC,(_effe)
011434 3A EA 7F 01         A  2392    	LD	A,(_effe+3)
Zilog eZ80 Macro Assembler Version 4.1 (10060805) RELISTED26-Aug-11     11:07:39     page:  47


PC     Object              I  Line    Source C:\Users\fog76\Desktop\CHFIGH~2\Debug\main.src
011438 CD 03 70 01         A  2393    	CALL	__fsub
01143C ED43 E7 7F 01       A  2394    	LD	(_effe),BC
011441 32 EA 7F 01         A  2395    	LD	(_effe+3),A
011445 C3 9D 15 01         A  2396    	JR	L_177
011449                     A  2397    L_164:
011449 21000040            A  2398    	LD	HL,4194304
01144D 1E40                A  2399    	LD	E,64
01144F ED4B E7 7F 01       A  2400    	LD	BC,(_effe)
011454 3A EA 7F 01         A  2401    	LD	A,(_effe+3)
011458 CD 03 70 01         A  2402    	CALL	__fsub
01145C ED43 E7 7F 01       A  2403    	LD	(_effe),BC
011461 32 EA 7F 01         A  2404    	LD	(_effe+3),A
011465 C3 9D 15 01         A  2405    	JR	L_177
011469                     A  2406    L_165:
011469 21000040            A  2407    	LD	HL,4194304
01146D 1E40                A  2408    	LD	E,64
01146F ED4B E7 7F 01       A  2409    	LD	BC,(_effe)
011474 3A EA 7F 01         A  2410    	LD	A,(_effe+3)
011478 CD 03 70 01         A  2411    	CALL	__fsub
01147C ED43 E7 7F 01       A  2412    	LD	(_effe),BC
011481 32 EA 7F 01         A  2413    	LD	(_effe+3),A
011485 C3 9D 15 01         A  2414    	JR	L_177
011489                     A  2415    L_166:
011489 21000020            A  2416    	LD	HL,2097152
01148D 1E41                A  2417    	LD	E,65
01148F ED4B E7 7F 01       A  2418    	LD	BC,(_effe)
011494 3A EA 7F 01         A  2419    	LD	A,(_effe+3)
011498 CD 03 70 01         A  2420    	CALL	__fsub
01149C ED43 E7 7F 01       A  2421    	LD	(_effe),BC
0114A1 32 EA 7F 01         A  2422    	LD	(_effe+3),A
0114A5 C3 9D 15 01         A  2423    	JR	L_177
0114A9                     A  2424    L_167:
0114A9 210000A0            A  2425    	LD	HL,10485760
0114AD 1E40                A  2426    	LD	E,64
0114AF ED4B E7 7F 01       A  2427    	LD	BC,(_effe)
0114B4 3A EA 7F 01         A  2428    	LD	A,(_effe+3)
0114B8 CD 03 70 01         A  2429    	CALL	__fsub
0114BC ED43 E7 7F 01       A  2430    	LD	(_effe),BC
0114C1 32 EA 7F 01         A  2431    	LD	(_effe+3),A
0114C5 C3 9D 15 01         A  2432    	JR	L_177
0114C9                     A  2433    L_168:
0114C9 21000024            A  2434    	LD	HL,2359296
0114CD 1E42                A  2435    	LD	E,66
0114CF ED4B E7 7F 01       A  2436    	LD	BC,(_effe)
0114D4 3A EA 7F 01         A  2437    	LD	A,(_effe+3)
0114D8 CD 03 70 01         A  2438    	CALL	__fsub
0114DC ED43 E7 7F 01       A  2439    	LD	(_effe),BC
0114E1 32 EA 7F 01         A  2440    	LD	(_effe+3),A
0114E5 C3 9D 15 01         A  2441    	JR	L_177
0114E9                     A  2442    L_169:
0114E9 21000080            A  2443    	LD	HL,8388608
0114ED 1E3F                A  2444    	LD	E,63
Zilog eZ80 Macro Assembler Version 4.1 (10060805) RELISTED26-Aug-11     11:07:39     page:  48


PC     Object              I  Line    Source C:\Users\fog76\Desktop\CHFIGH~2\Debug\main.src
0114EF ED4B E7 7F 01       A  2445    	LD	BC,(_effe)
0114F4 3A EA 7F 01         A  2446    	LD	A,(_effe+3)
0114F8 CD FD 72 01         A  2447    	CALL	__fadd
0114FC ED43 E7 7F 01       A  2448    	LD	(_effe),BC
011501 32 EA 7F 01         A  2449    	LD	(_effe+3),A
011505 C3 9D 15 01         A  2450    	JR	L_177
011509                     A  2451    L_170:
011509 21000040            A  2452    	LD	HL,4194304
01150D 1E40                A  2453    	LD	E,64
01150F ED4B E7 7F 01       A  2454    	LD	BC,(_effe)
011514 3A EA 7F 01         A  2455    	LD	A,(_effe+3)
011518 CD FD 72 01         A  2456    	CALL	__fadd
01151C ED43 E7 7F 01       A  2457    	LD	(_effe),BC
011521 32 EA 7F 01         A  2458    	LD	(_effe+3),A
011525 18 76               A  2459    	JR	L_177
011527                     A  2460    L_171:
011527 21000040            A  2461    	LD	HL,4194304
01152B 1E40                A  2462    	LD	E,64
01152D ED4B E7 7F 01       A  2463    	LD	BC,(_effe)
011532 3A EA 7F 01         A  2464    	LD	A,(_effe+3)
011536 CD FD 72 01         A  2465    	CALL	__fadd
01153A ED43 E7 7F 01       A  2466    	LD	(_effe),BC
01153F 32 EA 7F 01         A  2467    	LD	(_effe+3),A
011543 18 58               A  2468    	JR	L_177
011545                     A  2469    L_172:
011545 21000020            A  2470    	LD	HL,2097152
011549 1E41                A  2471    	LD	E,65
01154B ED4B E7 7F 01       A  2472    	LD	BC,(_effe)
011550 3A EA 7F 01         A  2473    	LD	A,(_effe+3)
011554 CD FD 72 01         A  2474    	CALL	__fadd
011558 ED43 E7 7F 01       A  2475    	LD	(_effe),BC
01155D 32 EA 7F 01         A  2476    	LD	(_effe+3),A
011561 18 3A               A  2477    	JR	L_177
011563                     A  2478    L_173:
011563 210000A0            A  2479    	LD	HL,10485760
011567 1E40                A  2480    	LD	E,64
011569 ED4B E7 7F 01       A  2481    	LD	BC,(_effe)
01156E 3A EA 7F 01         A  2482    	LD	A,(_effe+3)
011572 CD FD 72 01         A  2483    	CALL	__fadd
011576 ED43 E7 7F 01       A  2484    	LD	(_effe),BC
01157B 32 EA 7F 01         A  2485    	LD	(_effe+3),A
01157F 18 1C               A  2486    	JR	L_177
011581                     A  2487    L_174:
011581 21000024            A  2488    	LD	HL,2359296
011585 1E42                A  2489    	LD	E,66
011587 ED4B E7 7F 01       A  2490    	LD	BC,(_effe)
01158C 3A EA 7F 01         A  2491    	LD	A,(_effe+3)
011590 CD FD 72 01         A  2492    	CALL	__fadd
011594 ED43 E7 7F 01       A  2493    	LD	(_effe),BC
011599 32 EA 7F 01         A  2494    	LD	(_effe+3),A
01159D                     A  2495    L_177:
01159D DD7EE4              A  2496    	LD	A,(IX+-28)
Zilog eZ80 Macro Assembler Version 4.1 (10060805) RELISTED26-Aug-11     11:07:39     page:  49


PC     Object              I  Line    Source C:\Users\fog76\Desktop\CHFIGH~2\Debug\main.src
0115A0 B7                  A  2497    	OR	A,A
0115A1 20 28               A  2498    	JR	NZ,L_180
0115A3 01080000            A  2499    	LD	BC,8
0115A7 DD27FA              A  2500    	LD	HL,(IX+-6)
0115AA B7                  A  2501    	OR	A,A
0115AB ED42                A  2502    	SBC	HL,BC
0115AD 20 1C               A  2503    	JR	NZ,L_180
0115AF 21000010            A  2504    	LD	HL,1048576
0115B3 1E41                A  2505    	LD	E,65
0115B5 ED4B E7 7F 01       A  2506    	LD	BC,(_effe)
0115BA 3A EA 7F 01         A  2507    	LD	A,(_effe+3)
0115BE CD 03 70 01         A  2508    	CALL	__fsub
0115C2 ED43 E7 7F 01       A  2509    	LD	(_effe),BC
0115C7 32 EA 7F 01         A  2510    	LD	(_effe+3),A
0115CB                     A  2511    L_180:
0115CB 010C0000            A  2512    	LD	BC,12
0115CF DD27FD              A  2513    	LD	HL,(IX+-3)
0115D2 B7                  A  2514    	OR	A,A
0115D3 ED42                A  2515    	SBC	HL,BC
0115D5 20 28               A  2516    	JR	NZ,L_181
0115D7 01010000            A  2517    	LD	BC,1
0115DB DD27FA              A  2518    	LD	HL,(IX+-6)
0115DE B7                  A  2519    	OR	A,A
0115DF ED42                A  2520    	SBC	HL,BC
0115E1 20 1C               A  2521    	JR	NZ,L_181
0115E3 21000010            A  2522    	LD	HL,1048576
0115E7 1E41                A  2523    	LD	E,65
0115E9 ED4B E7 7F 01       A  2524    	LD	BC,(_effe)
0115EE 3A EA 7F 01         A  2525    	LD	A,(_effe+3)
0115F2 CD FD 72 01         A  2526    	CALL	__fadd
0115F6 ED43 E7 7F 01       A  2527    	LD	(_effe),BC
0115FB 32 EA 7F 01         A  2528    	LD	(_effe+3),A
0115FF                     A  2529    L_181:
0115FF DDF9                A  2530    	LD	SP,IX
011601 DDE1                A  2531    	POP	IX
011603 C9                  A  2532    	RET	
                           A  2533    
                           A  2534    
                           A  2535    ;**************************** _sceglimossa ****
                           A  2536    ;Name                         Addr/Register   S
                           A  2537    ;_mossa_giocata                      STATIC    
                           A  2538    ;_mossa_in_analisi                   STATIC    
                           A  2539    ;_calcolamosse                       STATIC  --
                           A  2540    ;_ramo                               STATIC    
                           A  2541    ;_livello                            STATIC    
                           A  2542    ;_col_prof                           STATIC    
                           A  2543    ;_prof                               STATIC    
                           A  2544    ;_nmossa                             STATIC    
                           A  2545    ;_effe                               STATIC    
                           A  2546    ;_scac                               STATIC    
                           A  2547    ;m_d1000_m10                          IX-49    
                           A  2548    ;m_d100_m10                           IX-46    
Zilog eZ80 Macro Assembler Version 4.1 (10060805) RELISTED26-Aug-11     11:07:39     page:  50


PC     Object              I  Line    Source C:\Users\fog76\Desktop\CHFIGH~2\Debug\main.src
                           A  2549    ;G_12                                 IX-43    
                           A  2550    ;G_18                                 IX-40    
                           A  2551    ;G_10                                 IX-37    
                           A  2552    ;G_11                                 IX-34    
                           A  2553    ;G_20                                 IX-31    
                           A  2554    ;G_21                                 IX-28    
                           A  2555    ;G_16                                 IX-27    
                           A  2556    ;G_15                                 IX-26    
                           A  2557    ;G_5                                  IX-25    
                           A  2558    ;G_13                                 IX-22    
                           A  2559    ;G_14                                 IX-21    
                           A  2560    ;G_19                                 IX-20    
                           A  2561    ;m_d10_m10                            IX-17    
                           A  2562    ;G_2                                  IX-14    
                           A  2563    ;G_3                                  IX-10    
                           A  2564    ;m_m10                                 IX-6    
                           A  2565    ;m_d1M_m100                            IX-3    
                           A  2566    ;m                                     IX+6    
                           A  2567    
                           A  2568    
                           A  2569    ; Stack Frame Size: 70 (bytes)
                           A  2570    ;       Spill Code: 0 (instruction)
                           A  2571    
                           A  2572    
011604                     A  2573    _Set_PosScac:
011604 21F1FFFF            A  2574    	LD	HL,-15
011608 CD BF 70 01         A  2575    	CALL	__frameset
01160C 01010000            A  2576    	LD	BC,1
011610 DD0FFA              A  2577    	LD	(IX+-6),BC
011613 C3 A2 16 01         A  2578    	JR	L_189
011617                     A  2579    L_187:
011617 01010000            A  2580    	LD	BC,1
01161B DD0FFD              A  2581    	LD	(IX+-3),BC
01161E DD27FA              A  2582    	LD	HL,(IX+-6)
011621 DD07FA              A  2583    	LD	BC,(IX+-6)
011624 29                  A  2584    	ADD	HL,HL
011625 29                  A  2585    	ADD	HL,HL
011626 B7                  A  2586    	OR	A,A
011627 ED42                A  2587    	SBC	HL,BC
011629 29                  A  2588    	ADD	HL,HL
01162A DD2FF7              A  2589    	LD	(IX+-9),HL
01162D 18 5E               A  2590    	JR	L_186
01162F                     A  2591    L_184:
01162F DD27FD              A  2592    	LD	HL,(IX+-3)
011632 29                  A  2593    	ADD	HL,HL
011633 29                  A  2594    	ADD	HL,HL
011634 29                  A  2595    	ADD	HL,HL
011635 29                  A  2596    	ADD	HL,HL
011636 B7                  A  2597    	OR	A,A
011637 DD07FD              A  2598    	LD	BC,(IX+-3)
01163A ED42                A  2599    	SBC	HL,BC
01163C 29                  A  2600    	ADD	HL,HL
Zilog eZ80 Macro Assembler Version 4.1 (10060805) RELISTED26-Aug-11     11:07:39     page:  51


PC     Object              I  Line    Source C:\Users\fog76\Desktop\CHFIGH~2\Debug\main.src
01163D 29                  A  2601    	ADD	HL,HL
01163E 01 F5 78 01         A  2602    	LD	BC,_PosScac
011642 09                  A  2603    	ADD	HL,BC
011643 DD2FF1              A  2604    	LD	(IX+-15),HL
011646 DD07F7              A  2605    	LD	BC,(IX+-9)
011649 DD27F1              A  2606    	LD	HL,(IX+-15)
01164C 09                  A  2607    	ADD	HL,BC
01164D DD2FF4              A  2608    	LD	(IX+-12),HL
011650 DD07FD              A  2609    	LD	BC,(IX+-3)
011653 0B                  A  2610    	DEC	BC
011654 C5E1                A  2611    	LD	HL,BC
011656 29                  A  2612    	ADD	HL,HL
011657 29                  A  2613    	ADD	HL,HL
011658 B7                  A  2614    	OR	A,A
011659 ED42                A  2615    	SBC	HL,BC
01165B 29                  A  2616    	ADD	HL,HL
01165C 29                  A  2617    	ADD	HL,HL
01165D 29                  A  2618    	ADD	HL,HL
01165E 09                  A  2619    	ADD	HL,BC
01165F E5FDE1              A  2620    	LD	IY,HL
011662 ED030B              A  2621    	LEA	BC,IY+11
011665 DD31F4              A  2622    	LD	IY,(IX+-12)
011668 FD0F00              A  2623    	LD	(IY+0),BC
01166B DD07FA              A  2624    	LD	BC,(IX+-6)
01166E 0B                  A  2625    	DEC	BC
01166F C5E1                A  2626    	LD	HL,BC
011671 29                  A  2627    	ADD	HL,HL
011672 29                  A  2628    	ADD	HL,HL
011673 B7                  A  2629    	OR	A,A
011674 ED42                A  2630    	SBC	HL,BC
011676 29                  A  2631    	ADD	HL,HL
011677 29                  A  2632    	ADD	HL,HL
011678 29                  A  2633    	ADD	HL,HL
011679 09                  A  2634    	ADD	HL,BC
01167A E5C1                A  2635    	LD	BC,HL
01167C 21BB0000            A  2636    	LD	HL,187
011680 B7                  A  2637    	OR	A,A
011681 ED42                A  2638    	SBC	HL,BC
011683 FD2F03              A  2639    	LD	(IY+3),HL
011686 DD07FD              A  2640    	LD	BC,(IX+-3)
011689 03                  A  2641    	INC	BC
01168A DD0FFD              A  2642    	LD	(IX+-3),BC
01168D                     A  2643    L_186:
01168D DD07FD              A  2644    	LD	BC,(IX+-3)
011690 21080000            A  2645    	LD	HL,8
011694 B7                  A  2646    	OR	A,A
011695 ED42                A  2647    	SBC	HL,BC
011697 F2 2F 16 01         A  2648    	JP	P,L_184
01169B DD07FA              A  2649    	LD	BC,(IX+-6)
01169E 03                  A  2650    	INC	BC
01169F DD0FFA              A  2651    	LD	(IX+-6),BC
0116A2                     A  2652    L_189:
Zilog eZ80 Macro Assembler Version 4.1 (10060805) RELISTED26-Aug-11     11:07:39     page:  52


PC     Object              I  Line    Source C:\Users\fog76\Desktop\CHFIGH~2\Debug\main.src
0116A2 DD07FA              A  2653    	LD	BC,(IX+-6)
0116A5 21080000            A  2654    	LD	HL,8
0116A9 B7                  A  2655    	OR	A,A
0116AA ED42                A  2656    	SBC	HL,BC
0116AC F2 B6 16 01         A  2657    	JP	P,L__131
0116B0 EA 17 16 01         A  2658    	JP	PE,L_187
0116B4 18 04               A  2659    	JR	L__132
0116B6                     A  2660    L__131:
0116B6 E2 17 16 01         A  2661    	JP	PO,L_187
0116BA                     A  2662    L__132:
0116BA DDF9                A  2663    	LD	SP,IX
0116BC DDE1                A  2664    	POP	IX
0116BE C9                  A  2665    	RET	
                           A  2666    
                           A  2667    
                           A  2668    ;**************************** _Set_PosScac ****
                           A  2669    ;Name                         Addr/Register   S
                           A  2670    ;_PosScac                            STATIC    
                           A  2671    ;O_52                                  IX-9    
                           A  2672    ;j                                     IX-6    
                           A  2673    ;i                                     IX-3    
                           A  2674    
                           A  2675    
                           A  2676    ; Stack Frame Size: 21 (bytes)
                           A  2677    ;       Spill Code: 0 (instruction)
                           A  2678    
                           A  2679    
0116BF                     A  2680    _posiniz:
0116BF 21D6FFFF            A  2681    	LD	HL,-42
0116C3 CD BF 70 01         A  2682    	CALL	__frameset
0116C7 01000000            A  2683    	LD	BC,0
0116CB DD0FFD              A  2684    	LD	(IX+-3),BC
0116CE 18 6D               A  2685    	JR	L_198
0116D0                     A  2686    L_196:
0116D0 01000000            A  2687    	LD	BC,0
0116D4 DD0FFA              A  2688    	LD	(IX+-6),BC
0116D7 DD27FD              A  2689    	LD	HL,(IX+-3)
0116DA DD07FD              A  2690    	LD	BC,(IX+-3)
0116DD 29                  A  2691    	ADD	HL,HL
0116DE 29                  A  2692    	ADD	HL,HL
0116DF 09                  A  2693    	ADD	HL,BC
0116E0 29                  A  2694    	ADD	HL,HL
0116E1 29                  A  2695    	ADD	HL,HL
0116E2 29                  A  2696    	ADD	HL,HL
0116E3 DD2FF7              A  2697    	LD	(IX+-9),HL
0116E6 18 36               A  2698    	JR	L_195
0116E8                     A  2699    L_193:
0116E8 DD27FA              A  2700    	LD	HL,(IX+-6)
0116EB 29                  A  2701    	ADD	HL,HL
0116EC 29                  A  2702    	ADD	HL,HL
0116ED E5C1                A  2703    	LD	BC,HL
0116EF DD27F7              A  2704    	LD	HL,(IX+-9)
Zilog eZ80 Macro Assembler Version 4.1 (10060805) RELISTED26-Aug-11     11:07:39     page:  53


PC     Object              I  Line    Source C:\Users\fog76\Desktop\CHFIGH~2\Debug\main.src
0116F2 11 D5 75 01         A  2705    	LD	DE,_scac
0116F6 19                  A  2706    	ADD	HL,DE
0116F7 09                  A  2707    	ADD	HL,BC
0116F8 11000000            A  2708    	LD	DE,0
0116FC ED1F                A  2709    	LD	(HL),DE
0116FE 23                  A  2710    	INC	HL
0116FF 23                  A  2711    	INC	HL
011700 23                  A  2712    	INC	HL
011701 3600                A  2713    	LD	(HL),0
011703 DD27F7              A  2714    	LD	HL,(IX+-9)
011706 11 65 77 01         A  2715    	LD	DE,_oldscac
01170A 19                  A  2716    	ADD	HL,DE
01170B 09                  A  2717    	ADD	HL,BC
01170C 01FFFFFF            A  2718    	LD	BC,16777215
011710 ED0F                A  2719    	LD	(HL),BC
011712 23                  A  2720    	INC	HL
011713 23                  A  2721    	INC	HL
011714 23                  A  2722    	INC	HL
011715 36FF                A  2723    	LD	(HL),255
011717 DD07FA              A  2724    	LD	BC,(IX+-6)
01171A 03                  A  2725    	INC	BC
01171B DD0FFA              A  2726    	LD	(IX+-6),BC
01171E                     A  2727    L_195:
01171E 010A0000            A  2728    	LD	BC,10
011722 DD27FA              A  2729    	LD	HL,(IX+-6)
011725 B7                  A  2730    	OR	A,A
011726 ED42                A  2731    	SBC	HL,BC
011728 FA 32 17 01         A  2732    	JP	M,L__138
01172C EA E8 16 01         A  2733    	JP	PE,L_193
011730 18 04               A  2734    	JR	L__139
011732                     A  2735    L__138:
011732 E2 E8 16 01         A  2736    	JP	PO,L_193
011736                     A  2737    L__139:
011736 DD07FD              A  2738    	LD	BC,(IX+-3)
011739 03                  A  2739    	INC	BC
01173A DD0FFD              A  2740    	LD	(IX+-3),BC
01173D                     A  2741    L_198:
01173D 010A0000            A  2742    	LD	BC,10
011741 DD27FD              A  2743    	LD	HL,(IX+-3)
011744 B7                  A  2744    	OR	A,A
011745 ED42                A  2745    	SBC	HL,BC
011747 FA 51 17 01         A  2746    	JP	M,L__140
01174B EA D0 16 01         A  2747    	JP	PE,L_196
01174F 18 04               A  2748    	JR	L__141
011751                     A  2749    L__140:
011751 E2 D0 16 01         A  2750    	JP	PO,L_196
011755                     A  2751    L__141:
011755 FD21 D5 75 01       A  2752    	LD	IY,_scac
01175A ED232C              A  2753    	LEA	HL,IY+44
01175D 01050000            A  2754    	LD	BC,5
011761 ED0F                A  2755    	LD	(HL),BC
011763 23                  A  2756    	INC	HL
Zilog eZ80 Macro Assembler Version 4.1 (10060805) RELISTED26-Aug-11     11:07:39     page:  54


PC     Object              I  Line    Source C:\Users\fog76\Desktop\CHFIGH~2\Debug\main.src
011764 23                  A  2757    	INC	HL
011765 23                  A  2758    	INC	HL
011766 3600                A  2759    	LD	(HL),0
011768 ED2354              A  2760    	LEA	HL,IY+84
01176B 01040000            A  2761    	LD	BC,4
01176F ED0F                A  2762    	LD	(HL),BC
011771 23                  A  2763    	INC	HL
011772 23                  A  2764    	INC	HL
011773 23                  A  2765    	INC	HL
011774 3600                A  2766    	LD	(HL),0
011776 21 51 76 01         A  2767    	LD	HL,_scac+124
01177A DD2FE2              A  2768    	LD	(IX+-30),HL	; spill
01177D 01030000            A  2769    	LD	BC,3
011781 DD27E2              A  2770    	LD	HL,(IX+-30)	; unspill
011784 ED0F                A  2771    	LD	(HL),BC
011786 DD27E2              A  2772    	LD	HL,(IX+-30)	; unspill
011789 23                  A  2773    	INC	HL
01178A DD2FE2              A  2774    	LD	(IX+-30),HL	; spill
01178D 23                  A  2775    	INC	HL
01178E DD2FE2              A  2776    	LD	(IX+-30),HL	; spill
011791 23                  A  2777    	INC	HL
011792 DD2FE2              A  2778    	LD	(IX+-30),HL	; spill
011795 01A00000            A  2779    	LD	BC,160
011799 21 D5 75 01         A  2780    	LD	HL,_scac
01179D 09                  A  2781    	ADD	HL,BC
01179E E5FDE1              A  2782    	LD	IY,HL
0117A1 DD27E2              A  2783    	LD	HL,(IX+-30)	; unspill
0117A4 3600                A  2784    	LD	(HL),0
0117A6 ED2304              A  2785    	LEA	HL,IY+4
0117A9 DD2FDF              A  2786    	LD	(IX+-33),HL	; spill
0117AC 01020000            A  2787    	LD	BC,2
0117B0 DD27DF              A  2788    	LD	HL,(IX+-33)	; unspill
0117B3 ED0F                A  2789    	LD	(HL),BC
0117B5 DD27DF              A  2790    	LD	HL,(IX+-33)	; unspill
0117B8 23                  A  2791    	INC	HL
0117B9 DD2FDF              A  2792    	LD	(IX+-33),HL	; spill
0117BC 23                  A  2793    	INC	HL
0117BD DD2FDF              A  2794    	LD	(IX+-33),HL	; spill
0117C0 23                  A  2795    	INC	HL
0117C1 DD2FDF              A  2796    	LD	(IX+-33),HL	; spill
0117C4 21 D5 75 01         A  2797    	LD	HL,_scac
0117C8 01C80000            A  2798    	LD	BC,200
0117CC 09                  A  2799    	ADD	HL,BC
0117CD E5FDE1              A  2800    	LD	IY,HL
0117D0 DD2FF4              A  2801    	LD	(IX+-12),HL	; spill
0117D3 DD27DF              A  2802    	LD	HL,(IX+-33)	; unspill
0117D6 3600                A  2803    	LD	(HL),0
0117D8 DD27F4              A  2804    	LD	HL,(IX+-12)	; unspill
0117DB DD2FF4              A  2805    	LD	(IX+-12),HL	; spill
0117DE ED2304              A  2806    	LEA	HL,IY+4
0117E1 DD2FDC              A  2807    	LD	(IX+-36),HL	; spill
0117E4 DD27F4              A  2808    	LD	HL,(IX+-12)	; unspill
Zilog eZ80 Macro Assembler Version 4.1 (10060805) RELISTED26-Aug-11     11:07:39     page:  55


PC     Object              I  Line    Source C:\Users\fog76\Desktop\CHFIGH~2\Debug\main.src
0117E7 01010000            A  2809    	LD	BC,1
0117EB DD2FF4              A  2810    	LD	(IX+-12),HL	; spill
0117EE DD27DC              A  2811    	LD	HL,(IX+-36)	; unspill
0117F1 ED0F                A  2812    	LD	(HL),BC
0117F3 DD27F4              A  2813    	LD	HL,(IX+-12)	; unspill
0117F6 DD2FF4              A  2814    	LD	(IX+-12),HL	; spill
0117F9 DD27DC              A  2815    	LD	HL,(IX+-36)	; unspill
0117FC 23                  A  2816    	INC	HL
0117FD DD2FDC              A  2817    	LD	(IX+-36),HL	; spill
011800 DD27F4              A  2818    	LD	HL,(IX+-12)	; unspill
011803 DD2FF4              A  2819    	LD	(IX+-12),HL	; spill
011806 DD27DC              A  2820    	LD	HL,(IX+-36)	; unspill
011809 23                  A  2821    	INC	HL
01180A DD2FDC              A  2822    	LD	(IX+-36),HL	; spill
01180D DD27F4              A  2823    	LD	HL,(IX+-12)	; unspill
011810 DD2FF4              A  2824    	LD	(IX+-12),HL	; spill
011813 DD27DC              A  2825    	LD	HL,(IX+-36)	; unspill
011816 23                  A  2826    	INC	HL
011817 DD2FDC              A  2827    	LD	(IX+-36),HL	; spill
01181A 21 D5 75 01         A  2828    	LD	HL,_scac
01181E 01F00000            A  2829    	LD	BC,240
011822 09                  A  2830    	ADD	HL,BC
011823 E5FDE1              A  2831    	LD	IY,HL
011826 DD27DC              A  2832    	LD	HL,(IX+-36)	; unspill
011829 3600                A  2833    	LD	(HL),0
01182B ED2304              A  2834    	LEA	HL,IY+4
01182E DD2FD9              A  2835    	LD	(IX+-39),HL	; spill
011831 01030000            A  2836    	LD	BC,3
011835 DD27D9              A  2837    	LD	HL,(IX+-39)	; unspill
011838 ED0F                A  2838    	LD	(HL),BC
01183A DD27D9              A  2839    	LD	HL,(IX+-39)	; unspill
01183D 23                  A  2840    	INC	HL
01183E DD2FD9              A  2841    	LD	(IX+-39),HL	; spill
011841 23                  A  2842    	INC	HL
011842 DD2FD9              A  2843    	LD	(IX+-39),HL	; spill
011845 23                  A  2844    	INC	HL
011846 DD2FD9              A  2845    	LD	(IX+-39),HL	; spill
011849 21 D5 75 01         A  2846    	LD	HL,_scac
01184D 01180100            A  2847    	LD	BC,280
011851 09                  A  2848    	ADD	HL,BC
011852 E5FDE1              A  2849    	LD	IY,HL
011855 DD2FF4              A  2850    	LD	(IX+-12),HL	; spill
011858 DD27D9              A  2851    	LD	HL,(IX+-39)	; unspill
01185B 3600                A  2852    	LD	(HL),0
01185D DD27F4              A  2853    	LD	HL,(IX+-12)	; unspill
011860 DD2FF4              A  2854    	LD	(IX+-12),HL	; spill
011863 ED2304              A  2855    	LEA	HL,IY+4
011866 DD2FD6              A  2856    	LD	(IX+-42),HL	; spill
011869 DD27F4              A  2857    	LD	HL,(IX+-12)	; unspill
01186C 01040000            A  2858    	LD	BC,4
011870 DD2FF4              A  2859    	LD	(IX+-12),HL	; spill
011873 DD27D6              A  2860    	LD	HL,(IX+-42)	; unspill
Zilog eZ80 Macro Assembler Version 4.1 (10060805) RELISTED26-Aug-11     11:07:39     page:  56


PC     Object              I  Line    Source C:\Users\fog76\Desktop\CHFIGH~2\Debug\main.src
011876 ED0F                A  2861    	LD	(HL),BC
011878 DD27F4              A  2862    	LD	HL,(IX+-12)	; unspill
01187B DD2FF4              A  2863    	LD	(IX+-12),HL	; spill
01187E DD27D6              A  2864    	LD	HL,(IX+-42)	; unspill
011881 23                  A  2865    	INC	HL
011882 DD2FD6              A  2866    	LD	(IX+-42),HL	; spill
011885 DD27F4              A  2867    	LD	HL,(IX+-12)	; unspill
011888 DD2FF4              A  2868    	LD	(IX+-12),HL	; spill
01188B DD27D6              A  2869    	LD	HL,(IX+-42)	; unspill
01188E 23                  A  2870    	INC	HL
01188F DD2FD6              A  2871    	LD	(IX+-42),HL	; spill
011892 DD27F4              A  2872    	LD	HL,(IX+-12)	; unspill
011895 DD2FF4              A  2873    	LD	(IX+-12),HL	; spill
011898 DD27D6              A  2874    	LD	HL,(IX+-42)	; unspill
01189B 23                  A  2875    	INC	HL
01189C DD2FD6              A  2876    	LD	(IX+-42),HL	; spill
01189F 21 D5 75 01         A  2877    	LD	HL,_scac
0118A3 01400100            A  2878    	LD	BC,320
0118A7 09                  A  2879    	ADD	HL,BC
0118A8 E5FDE1              A  2880    	LD	IY,HL
0118AB DD27D6              A  2881    	LD	HL,(IX+-42)	; unspill
0118AE 3600                A  2882    	LD	(HL),0
0118B0 ED2304              A  2883    	LEA	HL,IY+4
0118B3 01050000            A  2884    	LD	BC,5
0118B7 ED0F                A  2885    	LD	(HL),BC
0118B9 23                  A  2886    	INC	HL
0118BA 23                  A  2887    	INC	HL
0118BB 23                  A  2888    	INC	HL
0118BC 3600                A  2889    	LD	(HL),0
0118BE 01010000            A  2890    	LD	BC,1
0118C2 DD0FFD              A  2891    	LD	(IX+-3),BC
0118C5 18 29               A  2892    	JR	L_203
0118C7                     A  2893    L_201:
0118C7 DD27FD              A  2894    	LD	HL,(IX+-3)
0118CA DD07FD              A  2895    	LD	BC,(IX+-3)
0118CD 11060000            A  2896    	LD	DE,6
0118D1 29                  A  2897    	ADD	HL,HL
0118D2 29                  A  2898    	ADD	HL,HL
0118D3 09                  A  2899    	ADD	HL,BC
0118D4 29                  A  2900    	ADD	HL,HL
0118D5 29                  A  2901    	ADD	HL,HL
0118D6 29                  A  2902    	ADD	HL,HL
0118D7 01 D5 75 01         A  2903    	LD	BC,_scac
0118DB 09                  A  2904    	ADD	HL,BC
0118DC E5FDE1              A  2905    	LD	IY,HL
0118DF ED2308              A  2906    	LEA	HL,IY+8
0118E2 ED1F                A  2907    	LD	(HL),DE
0118E4 23                  A  2908    	INC	HL
0118E5 23                  A  2909    	INC	HL
0118E6 23                  A  2910    	INC	HL
0118E7 3600                A  2911    	LD	(HL),0
0118E9 DD07FD              A  2912    	LD	BC,(IX+-3)
Zilog eZ80 Macro Assembler Version 4.1 (10060805) RELISTED26-Aug-11     11:07:39     page:  57


PC     Object              I  Line    Source C:\Users\fog76\Desktop\CHFIGH~2\Debug\main.src
0118EC 03                  A  2913    	INC	BC
0118ED DD0FFD              A  2914    	LD	(IX+-3),BC
0118F0                     A  2915    L_203:
0118F0 DD07FD              A  2916    	LD	BC,(IX+-3)
0118F3 21080000            A  2917    	LD	HL,8
0118F7 B7                  A  2918    	OR	A,A
0118F8 ED42                A  2919    	SBC	HL,BC
0118FA F2 04 19 01         A  2920    	JP	P,L__142
0118FE EA C7 18 01         A  2921    	JP	PE,L_201
011902 18 04               A  2922    	JR	L__143
011904                     A  2923    L__142:
011904 E2 C7 18 01         A  2924    	JP	PO,L_201
011908                     A  2925    L__143:
011908 FD21 D5 75 01       A  2926    	LD	IY,_scac
01190D ED2348              A  2927    	LEA	HL,IY+72
011910 010B0000            A  2928    	LD	BC,11
011914 ED0F                A  2929    	LD	(HL),BC
011916 23                  A  2930    	INC	HL
011917 23                  A  2931    	INC	HL
011918 23                  A  2932    	INC	HL
011919 3600                A  2933    	LD	(HL),0
01191B ED2370              A  2934    	LEA	HL,IY+112
01191E 010A0000            A  2935    	LD	BC,10
011922 ED0F                A  2936    	LD	(HL),BC
011924 23                  A  2937    	INC	HL
011925 23                  A  2938    	INC	HL
011926 ED3378              A  2939    	LEA	IY,IY+120
011929 23                  A  2940    	INC	HL
01192A 3600                A  2941    	LD	(HL),0
01192C ED2320              A  2942    	LEA	HL,IY+32
01192F DD2FF1              A  2943    	LD	(IX+-15),HL	; spill
011932 01090000            A  2944    	LD	BC,9
011936 DD27F1              A  2945    	LD	HL,(IX+-15)	; unspill
011939 ED0F                A  2946    	LD	(HL),BC
01193B DD27F1              A  2947    	LD	HL,(IX+-15)	; unspill
01193E 23                  A  2948    	INC	HL
01193F DD2FF1              A  2949    	LD	(IX+-15),HL	; spill
011942 23                  A  2950    	INC	HL
011943 DD2FF1              A  2951    	LD	(IX+-15),HL	; spill
011946 23                  A  2952    	INC	HL
011947 DD2FF1              A  2953    	LD	(IX+-15),HL	; spill
01194A 01A00000            A  2954    	LD	BC,160
01194E 21 D5 75 01         A  2955    	LD	HL,_scac
011952 09                  A  2956    	ADD	HL,BC
011953 E5FDE1              A  2957    	LD	IY,HL
011956 DD27F1              A  2958    	LD	HL,(IX+-15)	; unspill
011959 3600                A  2959    	LD	(HL),0
01195B ED2320              A  2960    	LEA	HL,IY+32
01195E DD2FEE              A  2961    	LD	(IX+-18),HL	; spill
011961 01080000            A  2962    	LD	BC,8
011965 DD27EE              A  2963    	LD	HL,(IX+-18)	; unspill
011968 ED0F                A  2964    	LD	(HL),BC
Zilog eZ80 Macro Assembler Version 4.1 (10060805) RELISTED26-Aug-11     11:07:39     page:  58


PC     Object              I  Line    Source C:\Users\fog76\Desktop\CHFIGH~2\Debug\main.src
01196A DD27EE              A  2965    	LD	HL,(IX+-18)	; unspill
01196D 23                  A  2966    	INC	HL
01196E DD2FEE              A  2967    	LD	(IX+-18),HL	; spill
011971 23                  A  2968    	INC	HL
011972 DD2FEE              A  2969    	LD	(IX+-18),HL	; spill
011975 23                  A  2970    	INC	HL
011976 DD2FEE              A  2971    	LD	(IX+-18),HL	; spill
011979 21 D5 75 01         A  2972    	LD	HL,_scac
01197D 01C80000            A  2973    	LD	BC,200
011981 09                  A  2974    	ADD	HL,BC
011982 E5FDE1              A  2975    	LD	IY,HL
011985 DD2FF4              A  2976    	LD	(IX+-12),HL	; spill
011988 DD27EE              A  2977    	LD	HL,(IX+-18)	; unspill
01198B 3600                A  2978    	LD	(HL),0
01198D DD27F4              A  2979    	LD	HL,(IX+-12)	; unspill
011990 DD2FF4              A  2980    	LD	(IX+-12),HL	; spill
011993 ED2320              A  2981    	LEA	HL,IY+32
011996 DD2FEB              A  2982    	LD	(IX+-21),HL	; spill
011999 DD27F4              A  2983    	LD	HL,(IX+-12)	; unspill
01199C 01070000            A  2984    	LD	BC,7
0119A0 DD2FF4              A  2985    	LD	(IX+-12),HL	; spill
0119A3 DD27EB              A  2986    	LD	HL,(IX+-21)	; unspill
0119A6 ED0F                A  2987    	LD	(HL),BC
0119A8 DD27F4              A  2988    	LD	HL,(IX+-12)	; unspill
0119AB DD2FF4              A  2989    	LD	(IX+-12),HL	; spill
0119AE DD27EB              A  2990    	LD	HL,(IX+-21)	; unspill
0119B1 23                  A  2991    	INC	HL
0119B2 DD2FEB              A  2992    	LD	(IX+-21),HL	; spill
0119B5 DD27F4              A  2993    	LD	HL,(IX+-12)	; unspill
0119B8 DD2FF4              A  2994    	LD	(IX+-12),HL	; spill
0119BB DD27EB              A  2995    	LD	HL,(IX+-21)	; unspill
0119BE 23                  A  2996    	INC	HL
0119BF DD2FEB              A  2997    	LD	(IX+-21),HL	; spill
0119C2 DD27F4              A  2998    	LD	HL,(IX+-12)	; unspill
0119C5 DD2FF4              A  2999    	LD	(IX+-12),HL	; spill
0119C8 DD27EB              A  3000    	LD	HL,(IX+-21)	; unspill
0119CB 23                  A  3001    	INC	HL
0119CC DD2FEB              A  3002    	LD	(IX+-21),HL	; spill
0119CF 21 D5 75 01         A  3003    	LD	HL,_scac
0119D3 01F00000            A  3004    	LD	BC,240
0119D7 09                  A  3005    	ADD	HL,BC
0119D8 E5FDE1              A  3006    	LD	IY,HL
0119DB DD27EB              A  3007    	LD	HL,(IX+-21)	; unspill
0119DE 3600                A  3008    	LD	(HL),0
0119E0 ED2320              A  3009    	LEA	HL,IY+32
0119E3 DD2FE8              A  3010    	LD	(IX+-24),HL	; spill
0119E6 01090000            A  3011    	LD	BC,9
0119EA DD27E8              A  3012    	LD	HL,(IX+-24)	; unspill
0119ED ED0F                A  3013    	LD	(HL),BC
0119EF DD27E8              A  3014    	LD	HL,(IX+-24)	; unspill
0119F2 23                  A  3015    	INC	HL
0119F3 DD2FE8              A  3016    	LD	(IX+-24),HL	; spill
Zilog eZ80 Macro Assembler Version 4.1 (10060805) RELISTED26-Aug-11     11:07:39     page:  59


PC     Object              I  Line    Source C:\Users\fog76\Desktop\CHFIGH~2\Debug\main.src
0119F6 23                  A  3017    	INC	HL
0119F7 DD2FE8              A  3018    	LD	(IX+-24),HL	; spill
0119FA 23                  A  3019    	INC	HL
0119FB DD2FE8              A  3020    	LD	(IX+-24),HL	; spill
0119FE 21 D5 75 01         A  3021    	LD	HL,_scac
011A02 01180100            A  3022    	LD	BC,280
011A06 09                  A  3023    	ADD	HL,BC
011A07 E5FDE1              A  3024    	LD	IY,HL
011A0A DD2FF4              A  3025    	LD	(IX+-12),HL	; spill
011A0D DD27E8              A  3026    	LD	HL,(IX+-24)	; unspill
011A10 3600                A  3027    	LD	(HL),0
011A12 DD27F4              A  3028    	LD	HL,(IX+-12)	; unspill
011A15 DD2FF4              A  3029    	LD	(IX+-12),HL	; spill
011A18 ED2320              A  3030    	LEA	HL,IY+32
011A1B DD2FE5              A  3031    	LD	(IX+-27),HL	; spill
011A1E DD27F4              A  3032    	LD	HL,(IX+-12)	; unspill
011A21 010A0000            A  3033    	LD	BC,10
011A25 DD2FF4              A  3034    	LD	(IX+-12),HL	; spill
011A28 DD27E5              A  3035    	LD	HL,(IX+-27)	; unspill
011A2B ED0F                A  3036    	LD	(HL),BC
011A2D DD27F4              A  3037    	LD	HL,(IX+-12)	; unspill
011A30 DD2FF4              A  3038    	LD	(IX+-12),HL	; spill
011A33 DD27E5              A  3039    	LD	HL,(IX+-27)	; unspill
011A36 23                  A  3040    	INC	HL
011A37 DD2FE5              A  3041    	LD	(IX+-27),HL	; spill
011A3A DD27F4              A  3042    	LD	HL,(IX+-12)	; unspill
011A3D DD2FF4              A  3043    	LD	(IX+-12),HL	; spill
011A40 DD27E5              A  3044    	LD	HL,(IX+-27)	; unspill
011A43 23                  A  3045    	INC	HL
011A44 DD2FE5              A  3046    	LD	(IX+-27),HL	; spill
011A47 DD27F4              A  3047    	LD	HL,(IX+-12)	; unspill
011A4A DD2FF4              A  3048    	LD	(IX+-12),HL	; spill
011A4D DD27E5              A  3049    	LD	HL,(IX+-27)	; unspill
011A50 23                  A  3050    	INC	HL
011A51 DD2FE5              A  3051    	LD	(IX+-27),HL	; spill
011A54 21 D5 75 01         A  3052    	LD	HL,_scac
011A58 01400100            A  3053    	LD	BC,320
011A5C 09                  A  3054    	ADD	HL,BC
011A5D E5FDE1              A  3055    	LD	IY,HL
011A60 DD27E5              A  3056    	LD	HL,(IX+-27)	; unspill
011A63 3600                A  3057    	LD	(HL),0
011A65 ED2320              A  3058    	LEA	HL,IY+32
011A68 010B0000            A  3059    	LD	BC,11
011A6C ED0F                A  3060    	LD	(HL),BC
011A6E 23                  A  3061    	INC	HL
011A6F 23                  A  3062    	INC	HL
011A70 23                  A  3063    	INC	HL
011A71 3600                A  3064    	LD	(HL),0
011A73 01010000            A  3065    	LD	BC,1
011A77 DD0FFD              A  3066    	LD	(IX+-3),BC
011A7A 18 29               A  3067    	JR	L_208
011A7C                     A  3068    L_206:
Zilog eZ80 Macro Assembler Version 4.1 (10060805) RELISTED26-Aug-11     11:07:39     page:  60


PC     Object              I  Line    Source C:\Users\fog76\Desktop\CHFIGH~2\Debug\main.src
011A7C DD27FD              A  3069    	LD	HL,(IX+-3)
011A7F DD07FD              A  3070    	LD	BC,(IX+-3)
011A82 110C0000            A  3071    	LD	DE,12
011A86 29                  A  3072    	ADD	HL,HL
011A87 29                  A  3073    	ADD	HL,HL
011A88 09                  A  3074    	ADD	HL,BC
011A89 29                  A  3075    	ADD	HL,HL
011A8A 29                  A  3076    	ADD	HL,HL
011A8B 29                  A  3077    	ADD	HL,HL
011A8C 01 D5 75 01         A  3078    	LD	BC,_scac
011A90 09                  A  3079    	ADD	HL,BC
011A91 E5FDE1              A  3080    	LD	IY,HL
011A94 ED231C              A  3081    	LEA	HL,IY+28
011A97 ED1F                A  3082    	LD	(HL),DE
011A99 23                  A  3083    	INC	HL
011A9A 23                  A  3084    	INC	HL
011A9B 23                  A  3085    	INC	HL
011A9C 3600                A  3086    	LD	(HL),0
011A9E DD07FD              A  3087    	LD	BC,(IX+-3)
011AA1 03                  A  3088    	INC	BC
011AA2 DD0FFD              A  3089    	LD	(IX+-3),BC
011AA5                     A  3090    L_208:
011AA5 DD07FD              A  3091    	LD	BC,(IX+-3)
011AA8 21080000            A  3092    	LD	HL,8
011AAC B7                  A  3093    	OR	A,A
011AAD ED42                A  3094    	SBC	HL,BC
011AAF F2 B9 1A 01         A  3095    	JP	P,L__144
011AB3 EA 7C 1A 01         A  3096    	JP	PE,L_206
011AB7 18 04               A  3097    	JR	L__145
011AB9                     A  3098    L__144:
011AB9 E2 7C 1A 01         A  3099    	JP	PO,L_206
011ABD                     A  3100    L__145:
011ABD CD 04 16 01         A  3101    	CALL	_Set_PosScac
011AC1 DDF9                A  3102    	LD	SP,IX
011AC3 DDE1                A  3103    	POP	IX
011AC5 C9                  A  3104    	RET	
                           A  3105    
                           A  3106    
                           A  3107    ;**************************** _posiniz ********
                           A  3108    ;Name                         Addr/Register   S
                           A  3109    ;_oldscac                            STATIC    
                           A  3110    ;_scac                               STATIC    
                           A  3111    ;O_55                                  IX-9    
                           A  3112    ;j                                     IX-6    
                           A  3113    ;i                                     IX-3    
                           A  3114    
                           A  3115    
                           A  3116    ; Stack Frame Size: 48 (bytes)
                           A  3117    ;       Spill Code: 122 (instruction)
                           A  3118    
                           A  3119    
011AC6                     A  3120    _stampap:
Zilog eZ80 Macro Assembler Version 4.1 (10060805) RELISTED26-Aug-11     11:07:39     page:  61


PC     Object              I  Line    Source C:\Users\fog76\Desktop\CHFIGH~2\Debug\main.src
011AC6 21DBFFFF            A  3121    	LD	HL,-37
011ACA CD BF 70 01         A  3122    	CALL	__frameset
011ACE 01000000            A  3123    	LD	BC,0
011AD2 DD0FFD              A  3124    	LD	(IX+-3),BC
011AD5 DD36E700            A  3125    	LD	(IX+-25),0
011AD9 01080000            A  3126    	LD	BC,8
011ADD DD0FEE              A  3127    	LD	(IX+-18),BC
011AE0 C3 6F 1E 01         A  3128    	JR	L_286
011AE4                     A  3129    L_284:
011AE4 01010000            A  3130    	LD	BC,1
011AE8 DD0FEB              A  3131    	LD	(IX+-21),BC
011AEB C3 5A 1E 01         A  3132    	JR	L_283
011AEF                     A  3133    L_281:
011AEF DD27EB              A  3134    	LD	HL,(IX+-21)
011AF2 29                  A  3135    	ADD	HL,HL
011AF3 29                  A  3136    	ADD	HL,HL
011AF4 DD07EB              A  3137    	LD	BC,(IX+-21)
011AF7 09                  A  3138    	ADD	HL,BC
011AF8 29                  A  3139    	ADD	HL,HL
011AF9 29                  A  3140    	ADD	HL,HL
011AFA 29                  A  3141    	ADD	HL,HL
011AFB DD2FF4              A  3142    	LD	(IX+-12),HL
011AFE DD27EE              A  3143    	LD	HL,(IX+-18)
011B01 29                  A  3144    	ADD	HL,HL
011B02 29                  A  3145    	ADD	HL,HL
011B03 DD2FF1              A  3146    	LD	(IX+-15),HL
011B06 DD27F4              A  3147    	LD	HL,(IX+-12)
011B09 01 D5 75 01         A  3148    	LD	BC,_scac
011B0D 09                  A  3149    	ADD	HL,BC
011B0E DD07F1              A  3150    	LD	BC,(IX+-15)
011B11 09                  A  3151    	ADD	HL,BC
011B12 E5FDE1              A  3152    	LD	IY,HL
011B15 DD27F4              A  3153    	LD	HL,(IX+-12)
011B18 01 65 77 01         A  3154    	LD	BC,_oldscac
011B1C 09                  A  3155    	ADD	HL,BC
011B1D DD07F1              A  3156    	LD	BC,(IX+-15)
011B20 09                  A  3157    	ADD	HL,BC
011B21 E5C1                A  3158    	LD	BC,HL
011B23 FD2700              A  3159    	LD	HL,(IY)
011B26 FD5E03              A  3160    	LD	E,(IY+3)
011B29 C5FDE1              A  3161    	LD	IY,BC
011B2C FD0700              A  3162    	LD	BC,(IY)
011B2F FD7E03              A  3163    	LD	A,(IY+3)
011B32 CD B2 71 01         A  3164    	CALL	__lcmps
011B36 CA 53 1E 01         A  3165    	JR	Z,L_282
011B3A 01 D5 75 01         A  3166    	LD	BC,_scac
011B3E DD27F4              A  3167    	LD	HL,(IX+-12)
011B41 09                  A  3168    	ADD	HL,BC
011B42 DD07F1              A  3169    	LD	BC,(IX+-15)
011B45 09                  A  3170    	ADD	HL,BC
011B46 E5FDE1              A  3171    	LD	IY,HL
011B49 FD0700              A  3172    	LD	BC,(IY)
Zilog eZ80 Macro Assembler Version 4.1 (10060805) RELISTED26-Aug-11     11:07:39     page:  62


PC     Object              I  Line    Source C:\Users\fog76\Desktop\CHFIGH~2\Debug\main.src
011B4C DD27F4              A  3173    	LD	HL,(IX+-12)
011B4F 11 65 77 01         A  3174    	LD	DE,_oldscac
011B53 19                  A  3175    	ADD	HL,DE
011B54 DD17F1              A  3176    	LD	DE,(IX+-15)
011B57 19                  A  3177    	ADD	HL,DE
011B58 FD7E03              A  3178    	LD	A,(IY+3)
011B5B ED0F                A  3179    	LD	(HL),BC
011B5D 23                  A  3180    	INC	HL
011B5E 23                  A  3181    	INC	HL
011B5F 23                  A  3182    	INC	HL
011B60 77                  A  3183    	LD	(HL),A
011B61 DD27EB              A  3184    	LD	HL,(IX+-21)
011B64 DD07EB              A  3185    	LD	BC,(IX+-21)
011B67 29                  A  3186    	ADD	HL,HL
011B68 29                  A  3187    	ADD	HL,HL
011B69 29                  A  3188    	ADD	HL,HL
011B6A 29                  A  3189    	ADD	HL,HL
011B6B B7                  A  3190    	OR	A,A
011B6C ED42                A  3191    	SBC	HL,BC
011B6E 29                  A  3192    	ADD	HL,HL
011B6F 29                  A  3193    	ADD	HL,HL
011B70 01 F5 78 01         A  3194    	LD	BC,_PosScac
011B74 09                  A  3195    	ADD	HL,BC
011B75 DD2FE1              A  3196    	LD	(IX+-31),HL
011B78 DD27EE              A  3197    	LD	HL,(IX+-18)
011B7B 29                  A  3198    	ADD	HL,HL
011B7C DD17EE              A  3199    	LD	DE,(IX+-18)
011B7F DD07E1              A  3200    	LD	BC,(IX+-31)
011B82 29                  A  3201    	ADD	HL,HL
011B83 B7                  A  3202    	OR	A,A
011B84 ED52                A  3203    	SBC	HL,DE
011B86 29                  A  3204    	ADD	HL,HL
011B87 09                  A  3205    	ADD	HL,BC
011B88 DD2FE4              A  3206    	LD	(IX+-28),HL
011B8B DD31E4              A  3207    	LD	IY,(IX+-28)
011B8E FD0700              A  3208    	LD	BC,(IY+0)
011B91 03                  A  3209    	INC	BC
011B92 DD0FF7              A  3210    	LD	(IX+-9),BC
011B95 FD0703              A  3211    	LD	BC,(IY+3)
011B98 03                  A  3212    	INC	BC
011B99 DD0FFA              A  3213    	LD	(IX+-6),BC
011B9C DD7E06              A  3214    	LD	A,(IX+6)
011B9F B7                  A  3215    	OR	A,A
011BA0 28 4A               A  3216    	JR	Z,L_272
011BA2 DD07F7              A  3217    	LD	BC,(IX+-9)
011BA5 0B                  A  3218    	DEC	BC
011BA6 DD0FF7              A  3219    	LD	(IX+-9),BC
011BA9 DD07FA              A  3220    	LD	BC,(IX+-6)
011BAC 0B                  A  3221    	DEC	BC
011BAD DD0FFA              A  3222    	LD	(IX+-6),BC
011BB0 C5E1                A  3223    	LD	HL,BC
011BB2 3E08                A  3224    	LD	A,8
Zilog eZ80 Macro Assembler Version 4.1 (10060805) RELISTED26-Aug-11     11:07:39     page:  63


PC     Object              I  Line    Source C:\Users\fog76\Desktop\CHFIGH~2\Debug\main.src
011BB4 CD 4E 72 01         A  3225    	CALL	__ishl_b
011BB8 E5C1                A  3226    	LD	BC,HL
011BBA DD27FA              A  3227    	LD	HL,(IX+-6)
011BBD DD17F7              A  3228    	LD	DE,(IX+-9)
011BC0 DD1FDE              A  3229    	LD	(IX+-34),DE	; spill
011BC3 ED5B D2 7F 01       A  3230    	LD	DE,(_VideoMem)
011BC8 DD1FDB              A  3231    	LD	(IX+-37),DE	; spill
011BCB DD17DE              A  3232    	LD	DE,(IX+-34)	; unspill
011BCE 29                  A  3233    	ADD	HL,HL
011BCF 29                  A  3234    	ADD	HL,HL
011BD0 29                  A  3235    	ADD	HL,HL
011BD1 29                  A  3236    	ADD	HL,HL
011BD2 29                  A  3237    	ADD	HL,HL
011BD3 29                  A  3238    	ADD	HL,HL
011BD4 09                  A  3239    	ADD	HL,BC
011BD5 19                  A  3240    	ADD	HL,DE
011BD6 DD17DB              A  3241    	LD	DE,(IX+-37)	; unspill
011BD9 19                  A  3242    	ADD	HL,DE
011BDA 7E                  A  3243    	LD	A,(HL)
011BDB DD77E7              A  3244    	LD	(IX+-25),A
011BDE DD07F7              A  3245    	LD	BC,(IX+-9)
011BE1 03                  A  3246    	INC	BC
011BE2 DD0FF7              A  3247    	LD	(IX+-9),BC
011BE5 DD07FA              A  3248    	LD	BC,(IX+-6)
011BE8 03                  A  3249    	INC	BC
011BE9 DD0FFA              A  3250    	LD	(IX+-6),BC
011BEC                     A  3251    L_272:
011BEC 01 D5 75 01         A  3252    	LD	BC,_scac
011BF0 DD27F4              A  3253    	LD	HL,(IX+-12)
011BF3 09                  A  3254    	ADD	HL,BC
011BF4 DD07F1              A  3255    	LD	BC,(IX+-15)
011BF7 09                  A  3256    	ADD	HL,BC
011BF8 ED27                A  3257    	LD	HL,(HL)
011BFA CD C8 71 01         A  3258    	CALL	__seqcase
011BFE                     A  3259    L__149:
011BFE 0D00                A  3260    	DW	13
011C00 0000                A  3261    	DW	0
011C02 00                  A  3262    	DB	0
011C03 2D1C01              A  3263    	DW24	L_218	
                           A  3264    
011C06 741C01              A  3265    	DW24	L_224	
                           A  3266    
011C09 951C01              A  3267    	DW24	L_228	
                           A  3268    
011C0C B61C01              A  3269    	DW24	L_232	
                           A  3270    
011C0F D71C01              A  3271    	DW24	L_236	
                           A  3272    
011C12 F81C01              A  3273    	DW24	L_240	
                           A  3274    
011C15 191D01              A  3275    	DW24	L_244	
                           A  3276    
Zilog eZ80 Macro Assembler Version 4.1 (10060805) RELISTED26-Aug-11     11:07:39     page:  64


PC     Object              I  Line    Source C:\Users\fog76\Desktop\CHFIGH~2\Debug\main.src
011C18 381D01              A  3277    	DW24	L_248	
                           A  3278    
011C1B 591D01              A  3279    	DW24	L_252	
                           A  3280    
011C1E 761D01              A  3281    	DW24	L_256	
                           A  3282    
011C21 931D01              A  3283    	DW24	L_260	
                           A  3284    
011C24 B01D01              A  3285    	DW24	L_264	
                           A  3286    
011C27 CD1D01              A  3287    	DW24	L_268	
                           A  3288    
011C2A E61D01              A  3289    	DW24	L_279	
                           A  3290    
011C2D                     A  3291    L_218:
011C2D DD7E06              A  3292    	LD	A,(IX+6)
011C30 B7                  A  3293    	OR	A,A
011C31 28 36               A  3294    	JR	Z,L_223
011C33 DD7EE7              A  3295    	LD	A,(IX+-25)
011C36 FE0D                A  3296    	CP	A,13
011C38 20 0A               A  3297    	JR	NZ,L_220
011C3A ED4B 90 7D 01       A  3298    	LD	BC,(_bPiece)
011C3F DD0FE8              A  3299    	LD	(IX+-24),BC
011C42 18 08               A  3300    	JR	L_221
011C44                     A  3301    L_220:
011C44 ED4B 8D 7D 01       A  3302    	LD	BC,(_wPiece)
011C49 DD0FE8              A  3303    	LD	(IX+-24),BC
011C4C                     A  3304    L_221:
011C4C DD07E8              A  3305    	LD	BC,(IX+-24)
011C4F C5                  A  3306    	PUSH	BC
011C50 01190000            A  3307    	LD	BC,25
011C54 C5                  A  3308    	PUSH	BC
011C55 C5                  A  3309    	PUSH	BC
011C56 DD07FA              A  3310    	LD	BC,(IX+-6)
011C59 0B                  A  3311    	DEC	BC
011C5A C5                  A  3312    	PUSH	BC
011C5B DD07F7              A  3313    	LD	BC,(IX+-9)
011C5E 0B                  A  3314    	DEC	BC
011C5F C5                  A  3315    	PUSH	BC
011C60 CD C4 64 01         A  3316    	CALL	_Draw_Image
011C64 C1                  A  3317    	POP	BC
011C65 C1                  A  3318    	POP	BC
011C66 C1                  A  3319    	POP	BC
011C67 C1                  A  3320    	POP	BC
011C68 C1                  A  3321    	POP	BC
011C69                     A  3322    L_223:
011C69 01000000            A  3323    	LD	BC,0
011C6D DD0FFD              A  3324    	LD	(IX+-3),BC
011C70 C3 E6 1D 01         A  3325    	JR	L_279
011C74                     A  3326    L_224:
011C74 3A F7 7F 01         A  3327    	LD	A,(_mColore)
011C78 B7                  A  3328    	OR	A,A
Zilog eZ80 Macro Assembler Version 4.1 (10060805) RELISTED26-Aug-11     11:07:39     page:  65


PC     Object              I  Line    Source C:\Users\fog76\Desktop\CHFIGH~2\Debug\main.src
011C79 20 0D               A  3329    	JR	NZ,L_226
011C7B 21 A2 7D 01         A  3330    	LD	HL,_Bianchi+15
011C7F ED07                A  3331    	LD	BC,(HL)
011C81 DD0FFD              A  3332    	LD	(IX+-3),BC
011C84 C3 E6 1D 01         A  3333    	JR	L_279
011C88                     A  3334    L_226:
011C88 21 B4 7D 01         A  3335    	LD	HL,_Neri+15
011C8C ED07                A  3336    	LD	BC,(HL)
011C8E DD0FFD              A  3337    	LD	(IX+-3),BC
011C91 C3 E6 1D 01         A  3338    	JR	L_279
011C95                     A  3339    L_228:
011C95 3A F7 7F 01         A  3340    	LD	A,(_mColore)
011C99 B7                  A  3341    	OR	A,A
011C9A 20 0D               A  3342    	JR	NZ,L_230
011C9C 21 9F 7D 01         A  3343    	LD	HL,_Bianchi+12
011CA0 ED07                A  3344    	LD	BC,(HL)
011CA2 DD0FFD              A  3345    	LD	(IX+-3),BC
011CA5 C3 E6 1D 01         A  3346    	JR	L_279
011CA9                     A  3347    L_230:
011CA9 21 B1 7D 01         A  3348    	LD	HL,_Neri+12
011CAD ED07                A  3349    	LD	BC,(HL)
011CAF DD0FFD              A  3350    	LD	(IX+-3),BC
011CB2 C3 E6 1D 01         A  3351    	JR	L_279
011CB6                     A  3352    L_232:
011CB6 3A F7 7F 01         A  3353    	LD	A,(_mColore)
011CBA B7                  A  3354    	OR	A,A
011CBB 20 0D               A  3355    	JR	NZ,L_234
011CBD 21 99 7D 01         A  3356    	LD	HL,_Bianchi+6
011CC1 ED07                A  3357    	LD	BC,(HL)
011CC3 DD0FFD              A  3358    	LD	(IX+-3),BC
011CC6 C3 E6 1D 01         A  3359    	JR	L_279
011CCA                     A  3360    L_234:
011CCA 21 AB 7D 01         A  3361    	LD	HL,_Neri+6
011CCE ED07                A  3362    	LD	BC,(HL)
011CD0 DD0FFD              A  3363    	LD	(IX+-3),BC
011CD3 C3 E6 1D 01         A  3364    	JR	L_279
011CD7                     A  3365    L_236:
011CD7 3A F7 7F 01         A  3366    	LD	A,(_mColore)
011CDB B7                  A  3367    	OR	A,A
011CDC 20 0D               A  3368    	JR	NZ,L_238
011CDE 21 96 7D 01         A  3369    	LD	HL,_Bianchi+3
011CE2 ED07                A  3370    	LD	BC,(HL)
011CE4 DD0FFD              A  3371    	LD	(IX+-3),BC
011CE7 C3 E6 1D 01         A  3372    	JR	L_279
011CEB                     A  3373    L_238:
011CEB 21 A8 7D 01         A  3374    	LD	HL,_Neri+3
011CEF ED07                A  3375    	LD	BC,(HL)
011CF1 DD0FFD              A  3376    	LD	(IX+-3),BC
011CF4 C3 E6 1D 01         A  3377    	JR	L_279
011CF8                     A  3378    L_240:
011CF8 3A F7 7F 01         A  3379    	LD	A,(_mColore)
011CFC B7                  A  3380    	OR	A,A
Zilog eZ80 Macro Assembler Version 4.1 (10060805) RELISTED26-Aug-11     11:07:39     page:  66


PC     Object              I  Line    Source C:\Users\fog76\Desktop\CHFIGH~2\Debug\main.src
011CFD 20 0D               A  3381    	JR	NZ,L_242
011CFF 21 9C 7D 01         A  3382    	LD	HL,_Bianchi+9
011D03 ED07                A  3383    	LD	BC,(HL)
011D05 DD0FFD              A  3384    	LD	(IX+-3),BC
011D08 C3 E6 1D 01         A  3385    	JR	L_279
011D0C                     A  3386    L_242:
011D0C 21 AE 7D 01         A  3387    	LD	HL,_Neri+9
011D10 ED07                A  3388    	LD	BC,(HL)
011D12 DD0FFD              A  3389    	LD	(IX+-3),BC
011D15 C3 E6 1D 01         A  3390    	JR	L_279
011D19                     A  3391    L_244:
011D19 3A F7 7F 01         A  3392    	LD	A,(_mColore)
011D1D B7                  A  3393    	OR	A,A
011D1E 20 0C               A  3394    	JR	NZ,L_246
011D20 ED4B 93 7D 01       A  3395    	LD	BC,(_Bianchi)
011D25 DD0FFD              A  3396    	LD	(IX+-3),BC
011D28 C3 E6 1D 01         A  3397    	JR	L_279
011D2C                     A  3398    L_246:
011D2C ED4B A5 7D 01       A  3399    	LD	BC,(_Neri)
011D31 DD0FFD              A  3400    	LD	(IX+-3),BC
011D34 C3 E6 1D 01         A  3401    	JR	L_279
011D38                     A  3402    L_248:
011D38 3A F7 7F 01         A  3403    	LD	A,(_mColore)
011D3C B7                  A  3404    	OR	A,A
011D3D 20 0D               A  3405    	JR	NZ,L_250
011D3F 21 B4 7D 01         A  3406    	LD	HL,_Neri+15
011D43 ED07                A  3407    	LD	BC,(HL)
011D45 DD0FFD              A  3408    	LD	(IX+-3),BC
011D48 C3 E6 1D 01         A  3409    	JR	L_279
011D4C                     A  3410    L_250:
011D4C 21 A2 7D 01         A  3411    	LD	HL,_Bianchi+15
011D50 ED07                A  3412    	LD	BC,(HL)
011D52 DD0FFD              A  3413    	LD	(IX+-3),BC
011D55 C3 E6 1D 01         A  3414    	JR	L_279
011D59                     A  3415    L_252:
011D59 3A F7 7F 01         A  3416    	LD	A,(_mColore)
011D5D B7                  A  3417    	OR	A,A
011D5E 20 0B               A  3418    	JR	NZ,L_254
011D60 21 B1 7D 01         A  3419    	LD	HL,_Neri+12
011D64 ED07                A  3420    	LD	BC,(HL)
011D66 DD0FFD              A  3421    	LD	(IX+-3),BC
011D69 18 7B               A  3422    	JR	L_279
011D6B                     A  3423    L_254:
011D6B 21 9F 7D 01         A  3424    	LD	HL,_Bianchi+12
011D6F ED07                A  3425    	LD	BC,(HL)
011D71 DD0FFD              A  3426    	LD	(IX+-3),BC
011D74 18 70               A  3427    	JR	L_279
011D76                     A  3428    L_256:
011D76 3A F7 7F 01         A  3429    	LD	A,(_mColore)
011D7A B7                  A  3430    	OR	A,A
011D7B 20 0B               A  3431    	JR	NZ,L_258
011D7D 21 AB 7D 01         A  3432    	LD	HL,_Neri+6
Zilog eZ80 Macro Assembler Version 4.1 (10060805) RELISTED26-Aug-11     11:07:39     page:  67


PC     Object              I  Line    Source C:\Users\fog76\Desktop\CHFIGH~2\Debug\main.src
011D81 ED07                A  3433    	LD	BC,(HL)
011D83 DD0FFD              A  3434    	LD	(IX+-3),BC
011D86 18 5E               A  3435    	JR	L_279
011D88                     A  3436    L_258:
011D88 21 99 7D 01         A  3437    	LD	HL,_Bianchi+6
011D8C ED07                A  3438    	LD	BC,(HL)
011D8E DD0FFD              A  3439    	LD	(IX+-3),BC
011D91 18 53               A  3440    	JR	L_279
011D93                     A  3441    L_260:
011D93 3A F7 7F 01         A  3442    	LD	A,(_mColore)
011D97 B7                  A  3443    	OR	A,A
011D98 20 0B               A  3444    	JR	NZ,L_262
011D9A 21 A8 7D 01         A  3445    	LD	HL,_Neri+3
011D9E ED07                A  3446    	LD	BC,(HL)
011DA0 DD0FFD              A  3447    	LD	(IX+-3),BC
011DA3 18 41               A  3448    	JR	L_279
011DA5                     A  3449    L_262:
011DA5 21 96 7D 01         A  3450    	LD	HL,_Bianchi+3
011DA9 ED07                A  3451    	LD	BC,(HL)
011DAB DD0FFD              A  3452    	LD	(IX+-3),BC
011DAE 18 36               A  3453    	JR	L_279
011DB0                     A  3454    L_264:
011DB0 3A F7 7F 01         A  3455    	LD	A,(_mColore)
011DB4 B7                  A  3456    	OR	A,A
011DB5 20 0B               A  3457    	JR	NZ,L_266
011DB7 21 AE 7D 01         A  3458    	LD	HL,_Neri+9
011DBB ED07                A  3459    	LD	BC,(HL)
011DBD DD0FFD              A  3460    	LD	(IX+-3),BC
011DC0 18 24               A  3461    	JR	L_279
011DC2                     A  3462    L_266:
011DC2 21 9C 7D 01         A  3463    	LD	HL,_Bianchi+9
011DC6 ED07                A  3464    	LD	BC,(HL)
011DC8 DD0FFD              A  3465    	LD	(IX+-3),BC
011DCB 18 19               A  3466    	JR	L_279
011DCD                     A  3467    L_268:
011DCD 3A F7 7F 01         A  3468    	LD	A,(_mColore)
011DD1 B7                  A  3469    	OR	A,A
011DD2 20 0A               A  3470    	JR	NZ,L_270
011DD4 ED4B A5 7D 01       A  3471    	LD	BC,(_Neri)
011DD9 DD0FFD              A  3472    	LD	(IX+-3),BC
011DDC 18 08               A  3473    	JR	L_279
011DDE                     A  3474    L_270:
011DDE ED4B 93 7D 01       A  3475    	LD	BC,(_Bianchi)
011DE3 DD0FFD              A  3476    	LD	(IX+-3),BC
011DE6                     A  3477    L_279:
011DE6 01000000            A  3478    	LD	BC,0
011DEA DD27FD              A  3479    	LD	HL,(IX+-3)
011DED B7                  A  3480    	OR	A,A
011DEE ED42                A  3481    	SBC	HL,BC
011DF0 28 61               A  3482    	JR	Z,L_282
011DF2 DD7E06              A  3483    	LD	A,(IX+6)
011DF5 B7                  A  3484    	OR	A,A
Zilog eZ80 Macro Assembler Version 4.1 (10060805) RELISTED26-Aug-11     11:07:39     page:  68


PC     Object              I  Line    Source C:\Users\fog76\Desktop\CHFIGH~2\Debug\main.src
011DF6 28 36               A  3485    	JR	Z,L_277
011DF8 DD7EE7              A  3486    	LD	A,(IX+-25)
011DFB FE0D                A  3487    	CP	A,13
011DFD 20 0A               A  3488    	JR	NZ,L_274
011DFF ED4B 90 7D 01       A  3489    	LD	BC,(_bPiece)
011E04 DD0FE8              A  3490    	LD	(IX+-24),BC
011E07 18 08               A  3491    	JR	L_275
011E09                     A  3492    L_274:
011E09 ED4B 8D 7D 01       A  3493    	LD	BC,(_wPiece)
011E0E DD0FE8              A  3494    	LD	(IX+-24),BC
011E11                     A  3495    L_275:
011E11 DD07E8              A  3496    	LD	BC,(IX+-24)
011E14 C5                  A  3497    	PUSH	BC
011E15 01190000            A  3498    	LD	BC,25
011E19 C5                  A  3499    	PUSH	BC
011E1A C5                  A  3500    	PUSH	BC
011E1B DD07FA              A  3501    	LD	BC,(IX+-6)
011E1E 0B                  A  3502    	DEC	BC
011E1F C5                  A  3503    	PUSH	BC
011E20 DD07F7              A  3504    	LD	BC,(IX+-9)
011E23 0B                  A  3505    	DEC	BC
011E24 C5                  A  3506    	PUSH	BC
011E25 CD C4 64 01         A  3507    	CALL	_Draw_Image
011E29 C1                  A  3508    	POP	BC
011E2A C1                  A  3509    	POP	BC
011E2B C1                  A  3510    	POP	BC
011E2C C1                  A  3511    	POP	BC
011E2D C1                  A  3512    	POP	BC
011E2E                     A  3513    L_277:
011E2E 01000000            A  3514    	LD	BC,0
011E32 C5                  A  3515    	PUSH	BC
011E33 DD07FD              A  3516    	LD	BC,(IX+-3)
011E36 C5                  A  3517    	PUSH	BC
011E37 01170000            A  3518    	LD	BC,23
011E3B C5                  A  3519    	PUSH	BC
011E3C 01160000            A  3520    	LD	BC,22
011E40 C5                  A  3521    	PUSH	BC
011E41 DD07FA              A  3522    	LD	BC,(IX+-6)
011E44 C5                  A  3523    	PUSH	BC
011E45 DD07F7              A  3524    	LD	BC,(IX+-9)
011E48 C5                  A  3525    	PUSH	BC
011E49 CD 4C 65 01         A  3526    	CALL	_Draw_Trans_Image
011E4D C1                  A  3527    	POP	BC
011E4E C1                  A  3528    	POP	BC
011E4F C1                  A  3529    	POP	BC
011E50 C1                  A  3530    	POP	BC
011E51 C1                  A  3531    	POP	BC
011E52 C1                  A  3532    	POP	BC
011E53                     A  3533    L_282:
011E53 DD07EB              A  3534    	LD	BC,(IX+-21)
011E56 03                  A  3535    	INC	BC
011E57 DD0FEB              A  3536    	LD	(IX+-21),BC
Zilog eZ80 Macro Assembler Version 4.1 (10060805) RELISTED26-Aug-11     11:07:39     page:  69


PC     Object              I  Line    Source C:\Users\fog76\Desktop\CHFIGH~2\Debug\main.src
011E5A                     A  3537    L_283:
011E5A 01090000            A  3538    	LD	BC,9
011E5E DD27EB              A  3539    	LD	HL,(IX+-21)
011E61 B7                  A  3540    	OR	A,A
011E62 ED42                A  3541    	SBC	HL,BC
011E64 FA EF 1A 01         A  3542    	JP	M,L_281
011E68 DD07EE              A  3543    	LD	BC,(IX+-18)
011E6B 0B                  A  3544    	DEC	BC
011E6C DD0FEE              A  3545    	LD	(IX+-18),BC
011E6F                     A  3546    L_286:
011E6F DD07EE              A  3547    	LD	BC,(IX+-18)
011E72 B7                  A  3548    	OR	A,A
011E73 ED62                A  3549    	SBC	HL,HL
011E75 B7                  A  3550    	OR	A,A
011E76 ED42                A  3551    	SBC	HL,BC
011E78 FA 82 1E 01         A  3552    	JP	M,L__170
011E7C EA E4 1A 01         A  3553    	JP	PE,L_284
011E80 18 04               A  3554    	JR	L__171
011E82                     A  3555    L__170:
011E82 E2 E4 1A 01         A  3556    	JP	PO,L_284
011E86                     A  3557    L__171:
011E86 3A F9 7F 01         A  3558    	LD	A,(_DeleteBack)
011E8A B7                  A  3559    	OR	A,A
011E8B 20 06               A  3560    	JR	NZ,L_289
011E8D 3E01                A  3561    	LD	A,1
011E8F 32 F9 7F 01         A  3562    	LD	(_DeleteBack),A
011E93                     A  3563    L_289:
011E93 DDF9                A  3564    	LD	SP,IX
011E95 DDE1                A  3565    	POP	IX
011E97 C9                  A  3566    	RET	
                           A  3567    
                           A  3568    
                           A  3569    ;**************************** _stampap ********
                           A  3570    ;Name                         Addr/Register   S
                           A  3571    ;_DeleteBack                         STATIC    
                           A  3572    ;_Draw_Trans_Image                   IMPORT  --
                           A  3573    ;_Neri                               STATIC    
                           A  3574    ;_Bianchi                            STATIC    
                           A  3575    ;_mColore                            STATIC    
                           A  3576    ;_Draw_Image                         IMPORT  --
                           A  3577    ;_wPiece                             STATIC    
                           A  3578    ;_bPiece                             STATIC    
                           A  3579    ;_VideoMem                           STATIC    
                           A  3580    ;_PosScac                            STATIC    
                           A  3581    ;_oldscac                            STATIC    
                           A  3582    ;_scac                               STATIC    
                           A  3583    ;Val                                  IX-25    
                           A  3584    ;pBack                                IX-24    
                           A  3585    ;let                                  IX-21    
                           A  3586    ;num                                  IX-18    
                           A  3587    ;G_23                                 IX-15    
                           A  3588    ;G_22                                 IX-12    
Zilog eZ80 Macro Assembler Version 4.1 (10060805) RELISTED26-Aug-11     11:07:39     page:  70


PC     Object              I  Line    Source C:\Users\fog76\Desktop\CHFIGH~2\Debug\main.src
                           A  3589    ;PosX                                  IX-9    
                           A  3590    ;PosY                                  IX-6    
                           A  3591    ;pImg                                  IX-3    
                           A  3592    ;EraseBack                             IX+6    
                           A  3593    
                           A  3594    
                           A  3595    ; Stack Frame Size: 46 (bytes)
                           A  3596    ;       Spill Code: 4 (instruction)
                           A  3597    
                           A  3598    
011E98                     A  3599    _mossaimposs:
011E98 21E8FFFF            A  3600    	LD	HL,-24
011E9C CD BF 70 01         A  3601    	CALL	__frameset
011EA0 DD2706              A  3602    	LD	HL,(IX+6)
011EA3 DD5E09              A  3603    	LD	E,(IX+9)
011EA6 010A0000            A  3604    	LD	BC,10
011EAA AF                  A  3605    	XOR	A,A
011EAB CD 60 70 01         A  3606    	CALL	__ldivu
011EAF 010A0000            A  3607    	LD	BC,10
011EB3 AF                  A  3608    	XOR	A,A
011EB4 CD 1D 72 01         A  3609    	CALL	__lremu
011EB8 DD2FFA              A  3610    	LD	(IX+-6),HL
011EBB DD2706              A  3611    	LD	HL,(IX+6)
011EBE DD5E09              A  3612    	LD	E,(IX+9)
011EC1 010A0000            A  3613    	LD	BC,10
011EC5 AF                  A  3614    	XOR	A,A
011EC6 CD 1D 72 01         A  3615    	CALL	__lremu
011ECA DD2FF1              A  3616    	LD	(IX+-15),HL
011ECD DD2706              A  3617    	LD	HL,(IX+6)
011ED0 DD5E09              A  3618    	LD	E,(IX+9)
011ED3 01E80300            A  3619    	LD	BC,1000
011ED7 AF                  A  3620    	XOR	A,A
011ED8 CD 60 70 01         A  3621    	CALL	__ldivu
011EDC 010A0000            A  3622    	LD	BC,10
011EE0 AF                  A  3623    	XOR	A,A
011EE1 CD 1D 72 01         A  3624    	CALL	__lremu
011EE5 DD2FF7              A  3625    	LD	(IX+-9),HL
011EE8 DD2706              A  3626    	LD	HL,(IX+6)
011EEB DD5E09              A  3627    	LD	E,(IX+9)
011EEE 01640000            A  3628    	LD	BC,100
011EF2 AF                  A  3629    	XOR	A,A
011EF3 CD 60 70 01         A  3630    	CALL	__ldivu
011EF7 010A0000            A  3631    	LD	BC,10
011EFB AF                  A  3632    	XOR	A,A
011EFC CD 1D 72 01         A  3633    	CALL	__lremu
011F00 DD2FEE              A  3634    	LD	(IX+-18),HL
011F03 DD07FA              A  3635    	LD	BC,(IX+-6)
011F06 21080000            A  3636    	LD	HL,8
011F0A B7                  A  3637    	OR	A,A
011F0B ED42                A  3638    	SBC	HL,BC
011F0D FA 29 1F 01         A  3639    	JP	M,L_291
011F11 01010000            A  3640    	LD	BC,1
Zilog eZ80 Macro Assembler Version 4.1 (10060805) RELISTED26-Aug-11     11:07:39     page:  71


PC     Object              I  Line    Source C:\Users\fog76\Desktop\CHFIGH~2\Debug\main.src
011F15 DD27FA              A  3641    	LD	HL,(IX+-6)
011F18 B7                  A  3642    	OR	A,A
011F19 ED42                A  3643    	SBC	HL,BC
011F1B F2 25 1F 01         A  3644    	JP	P,L__187
011F1F EA 31 1F 01         A  3645    	JP	PE,L_294
011F23 18 04               A  3646    	JR	L__188
011F25                     A  3647    L__187:
011F25 E2 31 1F 01         A  3648    	JP	PO,L_294
011F29                     A  3649    L__188:
011F29                     A  3650    L_291:
011F29 21020000            A  3651    	LD	HL,2
011F2D C3 01 21 01         A  3652    	JR	L_311
011F31                     A  3653    L_294:
011F31 DD07F1              A  3654    	LD	BC,(IX+-15)
011F34 21080000            A  3655    	LD	HL,8
011F38 B7                  A  3656    	OR	A,A
011F39 ED42                A  3657    	SBC	HL,BC
011F3B FA 45 1F 01         A  3658    	JP	M,L__189
011F3F EA 61 1F 01         A  3659    	JP	PE,L_293
011F43 18 04               A  3660    	JR	L__190
011F45                     A  3661    L__189:
011F45 E2 61 1F 01         A  3662    	JP	PO,L_293
011F49                     A  3663    L__190:
011F49 01010000            A  3664    	LD	BC,1
011F4D DD27F1              A  3665    	LD	HL,(IX+-15)
011F50 B7                  A  3666    	OR	A,A
011F51 ED42                A  3667    	SBC	HL,BC
011F53 F2 5D 1F 01         A  3668    	JP	P,L__191
011F57 EA 69 1F 01         A  3669    	JP	PE,L_298
011F5B 18 04               A  3670    	JR	L__192
011F5D                     A  3671    L__191:
011F5D E2 69 1F 01         A  3672    	JP	PO,L_298
011F61                     A  3673    L__192:
011F61                     A  3674    L_293:
011F61 21020000            A  3675    	LD	HL,2
011F65 C3 01 21 01         A  3676    	JR	L_311
011F69                     A  3677    L_298:
011F69 DD27FA              A  3678    	LD	HL,(IX+-6)
011F6C 29                  A  3679    	ADD	HL,HL
011F6D 29                  A  3680    	ADD	HL,HL
011F6E DD07FA              A  3681    	LD	BC,(IX+-6)
011F71 09                  A  3682    	ADD	HL,BC
011F72 29                  A  3683    	ADD	HL,HL
011F73 29                  A  3684    	ADD	HL,HL
011F74 29                  A  3685    	ADD	HL,HL
011F75 01 D5 75 01         A  3686    	LD	BC,_scac
011F79 09                  A  3687    	ADD	HL,BC
011F7A E5C1                A  3688    	LD	BC,HL
011F7C DD27F1              A  3689    	LD	HL,(IX+-15)
011F7F 29                  A  3690    	ADD	HL,HL
011F80 29                  A  3691    	ADD	HL,HL
011F81 09                  A  3692    	ADD	HL,BC
Zilog eZ80 Macro Assembler Version 4.1 (10060805) RELISTED26-Aug-11     11:07:39     page:  72


PC     Object              I  Line    Source C:\Users\fog76\Desktop\CHFIGH~2\Debug\main.src
011F82 DD2FF4              A  3693    	LD	(IX+-12),HL
011F85 DD2FE8              A  3694    	LD	(IX+-24),HL
011F88 DD31F4              A  3695    	LD	IY,(IX+-12)
011F8B FD0700              A  3696    	LD	BC,(IY)
011F8E FD7E03              A  3697    	LD	A,(IY+3)
011F91 21060000            A  3698    	LD	HL,6
011F95 1E00                A  3699    	LD	E,0
011F97 CD B2 71 01         A  3700    	CALL	__lcmps
011F9B FA A5 1F 01         A  3701    	JP	M,L__193
011F9F EA 05 20 01         A  3702    	JP	PE,L_301
011FA3 18 04               A  3703    	JR	L__194
011FA5                     A  3704    L__193:
011FA5 E2 05 20 01         A  3705    	JP	PO,L_301
011FA9                     A  3706    L__194:
011FA9 DD07F4              A  3707    	LD	BC,(IX+-12)
011FAC DD0FE8              A  3708    	LD	(IX+-24),BC
011FAF DD31F4              A  3709    	LD	IY,(IX+-12)
011FB2 FD2700              A  3710    	LD	HL,(IY)
011FB5 FD5E03              A  3711    	LD	E,(IY+3)
011FB8 01000000            A  3712    	LD	BC,0
011FBC AF                  A  3713    	XOR	A,A
011FBD CD B2 71 01         A  3714    	CALL	__lcmps
011FC1 28 42               A  3715    	JR	Z,L_301
011FC3 DD27F7              A  3716    	LD	HL,(IX+-9)
011FC6 29                  A  3717    	ADD	HL,HL
011FC7 29                  A  3718    	ADD	HL,HL
011FC8 DD07F7              A  3719    	LD	BC,(IX+-9)
011FCB 09                  A  3720    	ADD	HL,BC
011FCC 29                  A  3721    	ADD	HL,HL
011FCD 29                  A  3722    	ADD	HL,HL
011FCE 29                  A  3723    	ADD	HL,HL
011FCF 01 D5 75 01         A  3724    	LD	BC,_scac
011FD3 09                  A  3725    	ADD	HL,BC
011FD4 E5C1                A  3726    	LD	BC,HL
011FD6 DD27EE              A  3727    	LD	HL,(IX+-18)
011FD9 29                  A  3728    	ADD	HL,HL
011FDA 29                  A  3729    	ADD	HL,HL
011FDB 09                  A  3730    	ADD	HL,BC
011FDC E5FDE1              A  3731    	LD	IY,HL
011FDF FD0700              A  3732    	LD	BC,(IY)
011FE2 FD7E03              A  3733    	LD	A,(IY+3)
011FE5 21060000            A  3734    	LD	HL,6
011FE9 1E00                A  3735    	LD	E,0
011FEB CD B2 71 01         A  3736    	CALL	__lcmps
011FEF FA F9 1F 01         A  3737    	JP	M,L__195
011FF3 EA 05 20 01         A  3738    	JP	PE,L_301
011FF7 18 04               A  3739    	JR	L__196
011FF9                     A  3740    L__195:
011FF9 E2 05 20 01         A  3741    	JP	PO,L_301
011FFD                     A  3742    L__196:
011FFD 21020000            A  3743    	LD	HL,2
012001 C3 01 21 01         A  3744    	JR	L_311
Zilog eZ80 Macro Assembler Version 4.1 (10060805) RELISTED26-Aug-11     11:07:39     page:  73


PC     Object              I  Line    Source C:\Users\fog76\Desktop\CHFIGH~2\Debug\main.src
012005                     A  3745    L_301:
012005 DD07E8              A  3746    	LD	BC,(IX+-24)
012008 DD0FEB              A  3747    	LD	(IX+-21),BC
01200B DD31EB              A  3748    	LD	IY,(IX+-21)
01200E FD2700              A  3749    	LD	HL,(IY)
012011 FD5E03              A  3750    	LD	E,(IY+3)
012014 01070000            A  3751    	LD	BC,7
012018 AF                  A  3752    	XOR	A,A
012019 CD B2 71 01         A  3753    	CALL	__lcmps
01201D FA 27 20 01         A  3754    	JP	M,L__197
012021 EA 6C 20 01         A  3755    	JP	PE,L_304
012025 18 04               A  3756    	JR	L__198
012027                     A  3757    L__197:
012027 E2 6C 20 01         A  3758    	JP	PO,L_304
01202B                     A  3759    L__198:
01202B DD27F7              A  3760    	LD	HL,(IX+-9)
01202E 29                  A  3761    	ADD	HL,HL
01202F 29                  A  3762    	ADD	HL,HL
012030 DD07F7              A  3763    	LD	BC,(IX+-9)
012033 09                  A  3764    	ADD	HL,BC
012034 29                  A  3765    	ADD	HL,HL
012035 29                  A  3766    	ADD	HL,HL
012036 29                  A  3767    	ADD	HL,HL
012037 01 D5 75 01         A  3768    	LD	BC,_scac
01203B 09                  A  3769    	ADD	HL,BC
01203C E5C1                A  3770    	LD	BC,HL
01203E DD27EE              A  3771    	LD	HL,(IX+-18)
012041 29                  A  3772    	ADD	HL,HL
012042 29                  A  3773    	ADD	HL,HL
012043 09                  A  3774    	ADD	HL,BC
012044 E5FDE1              A  3775    	LD	IY,HL
012047 FD2700              A  3776    	LD	HL,(IY)
01204A FD5E03              A  3777    	LD	E,(IY+3)
01204D 01070000            A  3778    	LD	BC,7
012051 AF                  A  3779    	XOR	A,A
012052 CD B2 71 01         A  3780    	CALL	__lcmps
012056 FA 60 20 01         A  3781    	JP	M,L__199
01205A EA 6C 20 01         A  3782    	JP	PE,L_304
01205E 18 04               A  3783    	JR	L__200
012060                     A  3784    L__199:
012060 E2 6C 20 01         A  3785    	JP	PO,L_304
012064                     A  3786    L__200:
012064 21020000            A  3787    	LD	HL,2
012068 C3 01 21 01         A  3788    	JR	L_311
01206C                     A  3789    L_304:
01206C DD27F7              A  3790    	LD	HL,(IX+-9)
01206F 29                  A  3791    	ADD	HL,HL
012070 29                  A  3792    	ADD	HL,HL
012071 DD07F7              A  3793    	LD	BC,(IX+-9)
012074 09                  A  3794    	ADD	HL,BC
012075 29                  A  3795    	ADD	HL,HL
012076 29                  A  3796    	ADD	HL,HL
Zilog eZ80 Macro Assembler Version 4.1 (10060805) RELISTED26-Aug-11     11:07:39     page:  74


PC     Object              I  Line    Source C:\Users\fog76\Desktop\CHFIGH~2\Debug\main.src
012077 29                  A  3797    	ADD	HL,HL
012078 01 D5 75 01         A  3798    	LD	BC,_scac
01207C 09                  A  3799    	ADD	HL,BC
01207D E5C1                A  3800    	LD	BC,HL
01207F DD27EE              A  3801    	LD	HL,(IX+-18)
012082 29                  A  3802    	ADD	HL,HL
012083 29                  A  3803    	ADD	HL,HL
012084 09                  A  3804    	ADD	HL,BC
012085 DD2FFD              A  3805    	LD	(IX+-3),HL
012088 DD31FD              A  3806    	LD	IY,(IX+-3)
01208B FD2700              A  3807    	LD	HL,(IY)
01208E FD5E03              A  3808    	LD	E,(IY+3)
012091 01040000            A  3809    	LD	BC,4
012095 AF                  A  3810    	XOR	A,A
012096 CD B2 71 01         A  3811    	CALL	__lcmps
01209A 28 14               A  3812    	JR	Z,L_303
01209C DD31FD              A  3813    	LD	IY,(IX+-3)
01209F FD2700              A  3814    	LD	HL,(IY)
0120A2 FD5E03              A  3815    	LD	E,(IY+3)
0120A5 010A0000            A  3816    	LD	BC,10
0120A9 AF                  A  3817    	XOR	A,A
0120AA CD B2 71 01         A  3818    	CALL	__lcmps
0120AE 20 06               A  3819    	JR	NZ,L_306
0120B0                     A  3820    L_303:
0120B0 21010000            A  3821    	LD	HL,1
0120B4 18 4B               A  3822    	JR	L_311
0120B6                     A  3823    L_306:
0120B6 DD31EB              A  3824    	LD	IY,(IX+-21)
0120B9 FD2700              A  3825    	LD	HL,(IY)
0120BC FD5E03              A  3826    	LD	E,(IY+3)
0120BF 01000000            A  3827    	LD	BC,0
0120C3 AF                  A  3828    	XOR	A,A
0120C4 CD B2 71 01         A  3829    	CALL	__lcmps
0120C8 28 06               A  3830    	JR	Z,L_309
0120CA 21010000            A  3831    	LD	HL,1
0120CE 18 31               A  3832    	JR	L_311
0120D0                     A  3833    L_309:
0120D0 DD31FD              A  3834    	LD	IY,(IX+-3)
0120D3 FD2700              A  3835    	LD	HL,(IY)
0120D6 FD5E03              A  3836    	LD	E,(IY+3)
0120D9 01010000            A  3837    	LD	BC,1
0120DD AF                  A  3838    	XOR	A,A
0120DE CD B2 71 01         A  3839    	CALL	__lcmps
0120E2 28 14               A  3840    	JR	Z,L_308
0120E4 DD31FD              A  3841    	LD	IY,(IX+-3)
0120E7 FD2700              A  3842    	LD	HL,(IY)
0120EA FD5E03              A  3843    	LD	E,(IY+3)
0120ED 01070000            A  3844    	LD	BC,7
0120F1 AF                  A  3845    	XOR	A,A
0120F2 CD B2 71 01         A  3846    	CALL	__lcmps
0120F6 20 06               A  3847    	JR	NZ,L_310
0120F8                     A  3848    L_308:
Zilog eZ80 Macro Assembler Version 4.1 (10060805) RELISTED26-Aug-11     11:07:39     page:  75


PC     Object              I  Line    Source C:\Users\fog76\Desktop\CHFIGH~2\Debug\main.src
0120F8 21010000            A  3849    	LD	HL,1
0120FC 18 03               A  3850    	JR	L_311
0120FE                     A  3851    L_310:
0120FE B7                  A  3852    	OR	A,A
0120FF ED62                A  3853    	SBC	HL,HL
012101                     A  3854    L_311:
012101 DDF9                A  3855    	LD	SP,IX
012103 DDE1                A  3856    	POP	IX
012105 C9                  A  3857    	RET	
                           A  3858    
                           A  3859    
                           A  3860    ;**************************** _mossaimposs ****
                           A  3861    ;Name                         Addr/Register   S
                           A  3862    ;_scac                               STATIC    
                           A  3863    ;G_29                                 IX-24    
                           A  3864    ;G_33                                 IX-21    
                           A  3865    ;m_d100_m10                           IX-18    
                           A  3866    ;m_m10                                IX-15    
                           A  3867    ;G_27                                 IX-12    
                           A  3868    ;m_d1000_m10                           IX-9    
                           A  3869    ;m_d10_m10                             IX-6    
                           A  3870    ;G_31                                  IX-3    
                           A  3871    ;m                                     IX+6    
                           A  3872    
                           A  3873    
                           A  3874    ; Stack Frame Size: 36 (bytes)
                           A  3875    ;       Spill Code: 0 (instruction)
                           A  3876    
                           A  3877    
012106                     A  3878    _calcolamosse:
012106 2125FFFF            A  3879    	LD	HL,-219
01210A CD BF 70 01         A  3880    	CALL	__frameset
01210E 01010000            A  3881    	LD	BC,1
012112 DD0FF3              A  3882    	LD	(IX+-13),BC
012115 C3 10 56 01         A  3883    	JR	L_532
012119                     A  3884    L_530:
012119 01010000            A  3885    	LD	BC,1
01211D DD0FF0              A  3886    	LD	(IX+-16),BC
012120 C3 FB 55 01         A  3887    	JR	L_529
012124                     A  3888    L_527:
012124 01000000            A  3889    	LD	BC,0
012128 2A E0 7F 01         A  3890    	LD	HL,(_col_prof)
01212C B7                  A  3891    	OR	A,A
01212D ED42                A  3892    	SBC	HL,BC
01212F 20 60               A  3893    	JR	NZ,L_320
012131 DD27F0              A  3894    	LD	HL,(IX+-16)
012134 29                  A  3895    	ADD	HL,HL
012135 29                  A  3896    	ADD	HL,HL
012136 DD07F0              A  3897    	LD	BC,(IX+-16)
012139 09                  A  3898    	ADD	HL,BC
01213A 29                  A  3899    	ADD	HL,HL
01213B 29                  A  3900    	ADD	HL,HL
Zilog eZ80 Macro Assembler Version 4.1 (10060805) RELISTED26-Aug-11     11:07:39     page:  76


PC     Object              I  Line    Source C:\Users\fog76\Desktop\CHFIGH~2\Debug\main.src
01213C 29                  A  3901    	ADD	HL,HL
01213D 01 D5 75 01         A  3902    	LD	BC,_scac
012141 09                  A  3903    	ADD	HL,BC
012142 DD2FC7              A  3904    	LD	(IX+-57),HL
012145 DD27F3              A  3905    	LD	HL,(IX+-13)
012148 29                  A  3906    	ADD	HL,HL
012149 29                  A  3907    	ADD	HL,HL
01214A DD07C7              A  3908    	LD	BC,(IX+-57)
01214D 09                  A  3909    	ADD	HL,BC
01214E DD2FDA              A  3910    	LD	(IX+-38),HL
012151 DD31DA              A  3911    	LD	IY,(IX+-38)
012154 FD2700              A  3912    	LD	HL,(IY)
012157 FD5E03              A  3913    	LD	E,(IY+3)
01215A 01020000            A  3914    	LD	BC,2
01215E AF                  A  3915    	XOR	A,A
01215F CD B2 71 01         A  3916    	CALL	__lcmps
012163 CA FE 21 01         A  3917    	JR	Z,L_352
012167 DD31DA              A  3918    	LD	IY,(IX+-38)
01216A FD2700              A  3919    	LD	HL,(IY)
01216D FD5E03              A  3920    	LD	E,(IY+3)
012170 01010000            A  3921    	LD	BC,1
012174 AF                  A  3922    	XOR	A,A
012175 CD B2 71 01         A  3923    	CALL	__lcmps
012179 CA FE 21 01         A  3924    	JR	Z,L_352
01217D DD31DA              A  3925    	LD	IY,(IX+-38)
012180 FD2700              A  3926    	LD	HL,(IY)
012183 FD5E03              A  3927    	LD	E,(IY+3)
012186 01050000            A  3928    	LD	BC,5
01218A AF                  A  3929    	XOR	A,A
01218B CD B2 71 01         A  3930    	CALL	__lcmps
01218F 28 6D               A  3931    	JR	Z,L_352
012191                     A  3932    L_320:
012191 01010000            A  3933    	LD	BC,1
012195 2A E0 7F 01         A  3934    	LD	HL,(_col_prof)
012199 B7                  A  3935    	OR	A,A
01219A ED42                A  3936    	SBC	HL,BC
01219C C2 A4 29 01         A  3937    	JR	NZ,L_392
0121A0 DD27F0              A  3938    	LD	HL,(IX+-16)
0121A3 29                  A  3939    	ADD	HL,HL
0121A4 29                  A  3940    	ADD	HL,HL
0121A5 DD07F0              A  3941    	LD	BC,(IX+-16)
0121A8 09                  A  3942    	ADD	HL,BC
0121A9 29                  A  3943    	ADD	HL,HL
0121AA 29                  A  3944    	ADD	HL,HL
0121AB 29                  A  3945    	ADD	HL,HL
0121AC 01 D5 75 01         A  3946    	LD	BC,_scac
0121B0 09                  A  3947    	ADD	HL,BC
0121B1 DD2FCD              A  3948    	LD	(IX+-51),HL
0121B4 DD27F3              A  3949    	LD	HL,(IX+-13)
0121B7 29                  A  3950    	ADD	HL,HL
0121B8 29                  A  3951    	ADD	HL,HL
0121B9 DD07CD              A  3952    	LD	BC,(IX+-51)
Zilog eZ80 Macro Assembler Version 4.1 (10060805) RELISTED26-Aug-11     11:07:39     page:  77


PC     Object              I  Line    Source C:\Users\fog76\Desktop\CHFIGH~2\Debug\main.src
0121BC 09                  A  3953    	ADD	HL,BC
0121BD DD2FE3              A  3954    	LD	(IX+-29),HL
0121C0 DD31E3              A  3955    	LD	IY,(IX+-29)
0121C3 FD2700              A  3956    	LD	HL,(IY)
0121C6 FD5E03              A  3957    	LD	E,(IY+3)
0121C9 01080000            A  3958    	LD	BC,8
0121CD AF                  A  3959    	XOR	A,A
0121CE CD B2 71 01         A  3960    	CALL	__lcmps
0121D2 28 2A               A  3961    	JR	Z,L_352
0121D4 DD31E3              A  3962    	LD	IY,(IX+-29)
0121D7 FD2700              A  3963    	LD	HL,(IY)
0121DA FD5E03              A  3964    	LD	E,(IY+3)
0121DD 01070000            A  3965    	LD	BC,7
0121E1 AF                  A  3966    	XOR	A,A
0121E2 CD B2 71 01         A  3967    	CALL	__lcmps
0121E6 28 16               A  3968    	JR	Z,L_352
0121E8 DD31E3              A  3969    	LD	IY,(IX+-29)
0121EB FD2700              A  3970    	LD	HL,(IY)
0121EE FD5E03              A  3971    	LD	E,(IY+3)
0121F1 010B0000            A  3972    	LD	BC,11
0121F5 AF                  A  3973    	XOR	A,A
0121F6 CD B2 71 01         A  3974    	CALL	__lcmps
0121FA C2 A4 29 01         A  3975    	JR	NZ,L_392
0121FE                     A  3976    L_352:
0121FE DD07F0              A  3977    	LD	BC,(IX+-16)
012201 DD0FF6              A  3978    	LD	(IX+-10),BC
012204 DD07F3              A  3979    	LD	BC,(IX+-13)
012207 DD0FF9              A  3980    	LD	(IX+-7),BC
01220A                     A  3981    L_326:
01220A DD27F0              A  3982    	LD	HL,(IX+-16)
01220D 29                  A  3983    	ADD	HL,HL
01220E 29                  A  3984    	ADD	HL,HL
01220F 29                  A  3985    	ADD	HL,HL
012210 29                  A  3986    	ADD	HL,HL
012211 29                  A  3987    	ADD	HL,HL
012212 B7                  A  3988    	OR	A,A
012213 DD07F0              A  3989    	LD	BC,(IX+-16)
012216 ED42                A  3990    	SBC	HL,BC
012218 29                  A  3991    	ADD	HL,HL
012219 29                  A  3992    	ADD	HL,HL
01221A DD07F0              A  3993    	LD	BC,(IX+-16)
01221D 09                  A  3994    	ADD	HL,BC
01221E 29                  A  3995    	ADD	HL,HL
01221F 29                  A  3996    	ADD	HL,HL
012220 29                  A  3997    	ADD	HL,HL
012221 E5C1                A  3998    	LD	BC,HL
012223 CD AB 71 01         A  3999    	CALL	__itol
012227 DD0FFC              A  4000    	LD	(IX+-4),BC
01222A DD77FF              A  4001    	LD	(IX+-1),A
01222D DD27F3              A  4002    	LD	HL,(IX+-13)
012230 29                  A  4003    	ADD	HL,HL
012231 29                  A  4004    	ADD	HL,HL
Zilog eZ80 Macro Assembler Version 4.1 (10060805) RELISTED26-Aug-11     11:07:39     page:  78


PC     Object              I  Line    Source C:\Users\fog76\Desktop\CHFIGH~2\Debug\main.src
012232 B7                  A  4005    	OR	A,A
012233 DD07F3              A  4006    	LD	BC,(IX+-13)
012236 ED42                A  4007    	SBC	HL,BC
012238 29                  A  4008    	ADD	HL,HL
012239 29                  A  4009    	ADD	HL,HL
01223A 29                  A  4010    	ADD	HL,HL
01223B DD07F3              A  4011    	LD	BC,(IX+-13)
01223E 09                  A  4012    	ADD	HL,BC
01223F 29                  A  4013    	ADD	HL,HL
012240 29                  A  4014    	ADD	HL,HL
012241 E5C1                A  4015    	LD	BC,HL
012243 CD AB 71 01         A  4016    	CALL	__itol
012247 5F                  A  4017    	LD	E,A
012248 C5E1                A  4018    	LD	HL,BC
01224A DD07FC              A  4019    	LD	BC,(IX+-4)
01224D DD7EFF              A  4020    	LD	A,(IX+-1)
012250 CD 0B 6E 01         A  4021    	CALL	__ladd
012254 DD2FFC              A  4022    	LD	(IX+-4),HL
012257 DD73FF              A  4023    	LD	(IX+-1),E
01225A DD07F9              A  4024    	LD	BC,(IX+-7)
01225D 03                  A  4025    	INC	BC
01225E DD0FF9              A  4026    	LD	(IX+-7),BC
012261 CD AB 71 01         A  4027    	CALL	__itol
012265 DD27FC              A  4028    	LD	HL,(IX+-4)
012268 DD5EFF              A  4029    	LD	E,(IX+-1)
01226B CD 0B 6E 01         A  4030    	CALL	__ladd
01226F DD2FFC              A  4031    	LD	(IX+-4),HL
012272 DD73FF              A  4032    	LD	(IX+-1),E
012275 DD27F6              A  4033    	LD	HL,(IX+-10)
012278 29                  A  4034    	ADD	HL,HL
012279 29                  A  4035    	ADD	HL,HL
01227A DD07F6              A  4036    	LD	BC,(IX+-10)
01227D 09                  A  4037    	ADD	HL,BC
01227E 29                  A  4038    	ADD	HL,HL
01227F E5C1                A  4039    	LD	BC,HL
012281 CD AB 71 01         A  4040    	CALL	__itol
012285 5F                  A  4041    	LD	E,A
012286 C5E1                A  4042    	LD	HL,BC
012288 DD07FC              A  4043    	LD	BC,(IX+-4)
01228B DD7EFF              A  4044    	LD	A,(IX+-1)
01228E CD 0B 6E 01         A  4045    	CALL	__ladd
012292 DD2FFC              A  4046    	LD	(IX+-4),HL
012295 DD73FF              A  4047    	LD	(IX+-1),E
012298 DD4EFF              A  4048    	LD	C,(IX+-1)
01229B 0600                A  4049    	LD	B,0
01229D C5                  A  4050    	PUSH	BC
01229E DD07FC              A  4051    	LD	BC,(IX+-4)
0122A1 C5                  A  4052    	PUSH	BC
0122A2 CD 98 1E 01         A  4053    	CALL	_mossaimposs
0122A6 C1                  A  4054    	POP	BC
0122A7 C1                  A  4055    	POP	BC
0122A8 DD2FED              A  4056    	LD	(IX+-19),HL
Zilog eZ80 Macro Assembler Version 4.1 (10060805) RELISTED26-Aug-11     11:07:39     page:  79


PC     Object              I  Line    Source C:\Users\fog76\Desktop\CHFIGH~2\Debug\main.src
0122AB 01020000            A  4057    	LD	BC,2
0122AF B7                  A  4058    	OR	A,A
0122B0 ED42                A  4059    	SBC	HL,BC
0122B2 CA D8 23 01         A  4060    	JR	Z,L_327
0122B6 DD27FC              A  4061    	LD	HL,(IX+-4)
0122B9 DD5EFF              A  4062    	LD	E,(IX+-1)
0122BC 010A0000            A  4063    	LD	BC,10
0122C0 AF                  A  4064    	XOR	A,A
0122C1 CD 60 70 01         A  4065    	CALL	__ldivu
0122C5 010A0000            A  4066    	LD	BC,10
0122C9 AF                  A  4067    	XOR	A,A
0122CA CD 1D 72 01         A  4068    	CALL	__lremu
0122CE 01280000            A  4069    	LD	BC,40
0122D2 AF                  A  4070    	XOR	A,A
0122D3 CD 60 72 01         A  4071    	CALL	__lmulu
0122D7 01 D5 75 01         A  4072    	LD	BC,_scac
0122DB 09                  A  4073    	ADD	HL,BC
0122DC DD2F8B              A  4074    	LD	(IX+-117),HL	; spill
0122DF DD27FC              A  4075    	LD	HL,(IX+-4)
0122E2 DD5EFF              A  4076    	LD	E,(IX+-1)
0122E5 010A0000            A  4077    	LD	BC,10
0122E9 AF                  A  4078    	XOR	A,A
0122EA CD 1D 72 01         A  4079    	CALL	__lremu
0122EE 01040000            A  4080    	LD	BC,4
0122F2 AF                  A  4081    	XOR	A,A
0122F3 CD 60 72 01         A  4082    	CALL	__lmulu
0122F7 DD078B              A  4083    	LD	BC,(IX+-117)	; unspill
0122FA 09                  A  4084    	ADD	HL,BC
0122FB E5FDE1              A  4085    	LD	IY,HL
0122FE FD2700              A  4086    	LD	HL,(IY)
012301 FD5E03              A  4087    	LD	E,(IY+3)
012304 01102700            A  4088    	LD	BC,10000
012308 AF                  A  4089    	XOR	A,A
012309 CD 60 72 01         A  4090    	CALL	__lmuls
01230D DD07FC              A  4091    	LD	BC,(IX+-4)
012310 DD7EFF              A  4092    	LD	A,(IX+-1)
012313 CD 0B 6E 01         A  4093    	CALL	__ladd
012317 DD2FFC              A  4094    	LD	(IX+-4),HL
01231A DD73FF              A  4095    	LD	(IX+-1),E
01231D DD27FC              A  4096    	LD	HL,(IX+-4)
012320 DD5EFF              A  4097    	LD	E,(IX+-1)
012323 01E80300            A  4098    	LD	BC,1000
012327 AF                  A  4099    	XOR	A,A
012328 CD 60 70 01         A  4100    	CALL	__ldivu
01232C 010A0000            A  4101    	LD	BC,10
012330 AF                  A  4102    	XOR	A,A
012331 CD 1D 72 01         A  4103    	CALL	__lremu
012335 01280000            A  4104    	LD	BC,40
012339 AF                  A  4105    	XOR	A,A
01233A CD 60 72 01         A  4106    	CALL	__lmulu
01233E 01 D5 75 01         A  4107    	LD	BC,_scac
012342 09                  A  4108    	ADD	HL,BC
Zilog eZ80 Macro Assembler Version 4.1 (10060805) RELISTED26-Aug-11     11:07:39     page:  80


PC     Object              I  Line    Source C:\Users\fog76\Desktop\CHFIGH~2\Debug\main.src
012343 DD2F88              A  4109    	LD	(IX+-120),HL	; spill
012346 DD27FC              A  4110    	LD	HL,(IX+-4)
012349 DD5EFF              A  4111    	LD	E,(IX+-1)
01234C 01640000            A  4112    	LD	BC,100
012350 AF                  A  4113    	XOR	A,A
012351 CD 60 70 01         A  4114    	CALL	__ldivu
012355 010A0000            A  4115    	LD	BC,10
012359 AF                  A  4116    	XOR	A,A
01235A CD 1D 72 01         A  4117    	CALL	__lremu
01235E 01040000            A  4118    	LD	BC,4
012362 AF                  A  4119    	XOR	A,A
012363 CD 60 72 01         A  4120    	CALL	__lmulu
012367 DD0788              A  4121    	LD	BC,(IX+-120)	; unspill
01236A 09                  A  4122    	ADD	HL,BC
01236B E5FDE1              A  4123    	LD	IY,HL
01236E FD2700              A  4124    	LD	HL,(IY)
012371 FD5E03              A  4125    	LD	E,(IY+3)
012374 0140420F            A  4126    	LD	BC,1000000
012378 AF                  A  4127    	XOR	A,A
012379 CD 60 72 01         A  4128    	CALL	__lmuls
01237D DD07FC              A  4129    	LD	BC,(IX+-4)
012380 DD7EFF              A  4130    	LD	A,(IX+-1)
012383 CD 0B 6E 01         A  4131    	CALL	__ladd
012387 DD2FFC              A  4132    	LD	(IX+-4),HL
01238A DD73FF              A  4133    	LD	(IX+-1),E
01238D 2A EB 7F 01         A  4134    	LD	HL,(_prof)
012391 3A EE 7F 01         A  4135    	LD	A,(_prof+3)
012395 5F                  A  4136    	LD	E,A
012396 AF                  A  4137    	XOR	A,A
012397 01000000            A  4138    	LD	BC,0
01239B CD B2 71 01         A  4139    	CALL	__lcmps
01239F 20 0F               A  4140    	JR	NZ,L_324
0123A1 DD07FC              A  4141    	LD	BC,(IX+-4)
0123A4 ED43 DC 7F 01       A  4142    	LD	(_mossa_in_analisi),BC
0123A9 DD7EFF              A  4143    	LD	A,(IX+-1)
0123AC 32 DF 7F 01         A  4144    	LD	(_mossa_in_analisi+3),A
0123B0                     A  4145    L_324:
0123B0 DD7E06              A  4146    	LD	A,(IX+6)
0123B3 B7                  A  4147    	OR	A,A
0123B4 20 12               A  4148    	JR	NZ,L_323
0123B6 DD4EFF              A  4149    	LD	C,(IX+-1)
0123B9 0600                A  4150    	LD	B,0
0123BB C5                  A  4151    	PUSH	BC
0123BC DD07FC              A  4152    	LD	BC,(IX+-4)
0123BF C5                  A  4153    	PUSH	BC
0123C0 CD 03 08 01         A  4154    	CALL	_sceglimossa
0123C4 C1                  A  4155    	POP	BC
0123C5 C1                  A  4156    	POP	BC
0123C6 18 10               A  4157    	JR	L_327
0123C8                     A  4158    L_323:
0123C8 DD4EFF              A  4159    	LD	C,(IX+-1)
0123CB 0600                A  4160    	LD	B,0
Zilog eZ80 Macro Assembler Version 4.1 (10060805) RELISTED26-Aug-11     11:07:39     page:  81


PC     Object              I  Line    Source C:\Users\fog76\Desktop\CHFIGH~2\Debug\main.src
0123CD C5                  A  4161    	PUSH	BC
0123CE DD07FC              A  4162    	LD	BC,(IX+-4)
0123D1 C5                  A  4163    	PUSH	BC
0123D2 CD 3D 06 01         A  4164    	CALL	_raccogli
0123D6 C1                  A  4165    	POP	BC
0123D7 C1                  A  4166    	POP	BC
0123D8                     A  4167    L_327:
0123D8 01000000            A  4168    	LD	BC,0
0123DC DD27ED              A  4169    	LD	HL,(IX+-19)
0123DF B7                  A  4170    	OR	A,A
0123E0 ED42                A  4171    	SBC	HL,BC
0123E2 CA 0A 22 01         A  4172    	JR	Z,L_326
0123E6 DD07F0              A  4173    	LD	BC,(IX+-16)
0123E9 DD0FF6              A  4174    	LD	(IX+-10),BC
0123EC DD07F3              A  4175    	LD	BC,(IX+-13)
0123EF DD0FF9              A  4176    	LD	(IX+-7),BC
0123F2                     A  4177    L_334:
0123F2 DD27F0              A  4178    	LD	HL,(IX+-16)
0123F5 29                  A  4179    	ADD	HL,HL
0123F6 29                  A  4180    	ADD	HL,HL
0123F7 29                  A  4181    	ADD	HL,HL
0123F8 29                  A  4182    	ADD	HL,HL
0123F9 29                  A  4183    	ADD	HL,HL
0123FA B7                  A  4184    	OR	A,A
0123FB DD07F0              A  4185    	LD	BC,(IX+-16)
0123FE ED42                A  4186    	SBC	HL,BC
012400 29                  A  4187    	ADD	HL,HL
012401 29                  A  4188    	ADD	HL,HL
012402 DD07F0              A  4189    	LD	BC,(IX+-16)
012405 09                  A  4190    	ADD	HL,BC
012406 29                  A  4191    	ADD	HL,HL
012407 29                  A  4192    	ADD	HL,HL
012408 29                  A  4193    	ADD	HL,HL
012409 E5C1                A  4194    	LD	BC,HL
01240B CD AB 71 01         A  4195    	CALL	__itol
01240F DD0FFC              A  4196    	LD	(IX+-4),BC
012412 DD77FF              A  4197    	LD	(IX+-1),A
012415 DD27F3              A  4198    	LD	HL,(IX+-13)
012418 29                  A  4199    	ADD	HL,HL
012419 29                  A  4200    	ADD	HL,HL
01241A B7                  A  4201    	OR	A,A
01241B DD07F3              A  4202    	LD	BC,(IX+-13)
01241E ED42                A  4203    	SBC	HL,BC
012420 29                  A  4204    	ADD	HL,HL
012421 29                  A  4205    	ADD	HL,HL
012422 29                  A  4206    	ADD	HL,HL
012423 DD07F3              A  4207    	LD	BC,(IX+-13)
012426 09                  A  4208    	ADD	HL,BC
012427 29                  A  4209    	ADD	HL,HL
012428 29                  A  4210    	ADD	HL,HL
012429 E5C1                A  4211    	LD	BC,HL
01242B CD AB 71 01         A  4212    	CALL	__itol
Zilog eZ80 Macro Assembler Version 4.1 (10060805) RELISTED26-Aug-11     11:07:39     page:  82


PC     Object              I  Line    Source C:\Users\fog76\Desktop\CHFIGH~2\Debug\main.src
01242F 5F                  A  4213    	LD	E,A
012430 C5E1                A  4214    	LD	HL,BC
012432 DD07FC              A  4215    	LD	BC,(IX+-4)
012435 DD7EFF              A  4216    	LD	A,(IX+-1)
012438 CD 0B 6E 01         A  4217    	CALL	__ladd
01243C DD2FFC              A  4218    	LD	(IX+-4),HL
01243F DD73FF              A  4219    	LD	(IX+-1),E
012442 DD07F9              A  4220    	LD	BC,(IX+-7)
012445 0B                  A  4221    	DEC	BC
012446 DD0FF9              A  4222    	LD	(IX+-7),BC
012449 CD AB 71 01         A  4223    	CALL	__itol
01244D DD27FC              A  4224    	LD	HL,(IX+-4)
012450 DD5EFF              A  4225    	LD	E,(IX+-1)
012453 CD 0B 6E 01         A  4226    	CALL	__ladd
012457 DD2FFC              A  4227    	LD	(IX+-4),HL
01245A DD73FF              A  4228    	LD	(IX+-1),E
01245D DD27F6              A  4229    	LD	HL,(IX+-10)
012460 29                  A  4230    	ADD	HL,HL
012461 29                  A  4231    	ADD	HL,HL
012462 DD07F6              A  4232    	LD	BC,(IX+-10)
012465 09                  A  4233    	ADD	HL,BC
012466 29                  A  4234    	ADD	HL,HL
012467 E5C1                A  4235    	LD	BC,HL
012469 CD AB 71 01         A  4236    	CALL	__itol
01246D 5F                  A  4237    	LD	E,A
01246E C5E1                A  4238    	LD	HL,BC
012470 DD07FC              A  4239    	LD	BC,(IX+-4)
012473 DD7EFF              A  4240    	LD	A,(IX+-1)
012476 CD 0B 6E 01         A  4241    	CALL	__ladd
01247A DD2FFC              A  4242    	LD	(IX+-4),HL
01247D DD73FF              A  4243    	LD	(IX+-1),E
012480 DD4EFF              A  4244    	LD	C,(IX+-1)
012483 0600                A  4245    	LD	B,0
012485 C5                  A  4246    	PUSH	BC
012486 DD07FC              A  4247    	LD	BC,(IX+-4)
012489 C5                  A  4248    	PUSH	BC
01248A CD 98 1E 01         A  4249    	CALL	_mossaimposs
01248E C1                  A  4250    	POP	BC
01248F C1                  A  4251    	POP	BC
012490 DD2FED              A  4252    	LD	(IX+-19),HL
012493 01020000            A  4253    	LD	BC,2
012497 B7                  A  4254    	OR	A,A
012498 ED42                A  4255    	SBC	HL,BC
01249A CA C0 25 01         A  4256    	JR	Z,L_335
01249E DD27FC              A  4257    	LD	HL,(IX+-4)
0124A1 DD5EFF              A  4258    	LD	E,(IX+-1)
0124A4 010A0000            A  4259    	LD	BC,10
0124A8 AF                  A  4260    	XOR	A,A
0124A9 CD 60 70 01         A  4261    	CALL	__ldivu
0124AD 010A0000            A  4262    	LD	BC,10
0124B1 AF                  A  4263    	XOR	A,A
0124B2 CD 1D 72 01         A  4264    	CALL	__lremu
Zilog eZ80 Macro Assembler Version 4.1 (10060805) RELISTED26-Aug-11     11:07:39     page:  83


PC     Object              I  Line    Source C:\Users\fog76\Desktop\CHFIGH~2\Debug\main.src
0124B6 01280000            A  4265    	LD	BC,40
0124BA AF                  A  4266    	XOR	A,A
0124BB CD 60 72 01         A  4267    	CALL	__lmulu
0124BF 01 D5 75 01         A  4268    	LD	BC,_scac
0124C3 09                  A  4269    	ADD	HL,BC
0124C4 DD2F91              A  4270    	LD	(IX+-111),HL	; spill
0124C7 DD27FC              A  4271    	LD	HL,(IX+-4)
0124CA DD5EFF              A  4272    	LD	E,(IX+-1)
0124CD 010A0000            A  4273    	LD	BC,10
0124D1 AF                  A  4274    	XOR	A,A
0124D2 CD 1D 72 01         A  4275    	CALL	__lremu
0124D6 01040000            A  4276    	LD	BC,4
0124DA AF                  A  4277    	XOR	A,A
0124DB CD 60 72 01         A  4278    	CALL	__lmulu
0124DF DD0791              A  4279    	LD	BC,(IX+-111)	; unspill
0124E2 09                  A  4280    	ADD	HL,BC
0124E3 E5FDE1              A  4281    	LD	IY,HL
0124E6 FD2700              A  4282    	LD	HL,(IY)
0124E9 FD5E03              A  4283    	LD	E,(IY+3)
0124EC 01102700            A  4284    	LD	BC,10000
0124F0 AF                  A  4285    	XOR	A,A
0124F1 CD 60 72 01         A  4286    	CALL	__lmuls
0124F5 DD07FC              A  4287    	LD	BC,(IX+-4)
0124F8 DD7EFF              A  4288    	LD	A,(IX+-1)
0124FB CD 0B 6E 01         A  4289    	CALL	__ladd
0124FF DD2FFC              A  4290    	LD	(IX+-4),HL
012502 DD73FF              A  4291    	LD	(IX+-1),E
012505 DD27FC              A  4292    	LD	HL,(IX+-4)
012508 DD5EFF              A  4293    	LD	E,(IX+-1)
01250B 01E80300            A  4294    	LD	BC,1000
01250F AF                  A  4295    	XOR	A,A
012510 CD 60 70 01         A  4296    	CALL	__ldivu
012514 010A0000            A  4297    	LD	BC,10
012518 AF                  A  4298    	XOR	A,A
012519 CD 1D 72 01         A  4299    	CALL	__lremu
01251D 01280000            A  4300    	LD	BC,40
012521 AF                  A  4301    	XOR	A,A
012522 CD 60 72 01         A  4302    	CALL	__lmulu
012526 01 D5 75 01         A  4303    	LD	BC,_scac
01252A 09                  A  4304    	ADD	HL,BC
01252B DD2F8E              A  4305    	LD	(IX+-114),HL	; spill
01252E DD27FC              A  4306    	LD	HL,(IX+-4)
012531 DD5EFF              A  4307    	LD	E,(IX+-1)
012534 01640000            A  4308    	LD	BC,100
012538 AF                  A  4309    	XOR	A,A
012539 CD 60 70 01         A  4310    	CALL	__ldivu
01253D 010A0000            A  4311    	LD	BC,10
012541 AF                  A  4312    	XOR	A,A
012542 CD 1D 72 01         A  4313    	CALL	__lremu
012546 01040000            A  4314    	LD	BC,4
01254A AF                  A  4315    	XOR	A,A
01254B CD 60 72 01         A  4316    	CALL	__lmulu
Zilog eZ80 Macro Assembler Version 4.1 (10060805) RELISTED26-Aug-11     11:07:39     page:  84


PC     Object              I  Line    Source C:\Users\fog76\Desktop\CHFIGH~2\Debug\main.src
01254F DD078E              A  4317    	LD	BC,(IX+-114)	; unspill
012552 09                  A  4318    	ADD	HL,BC
012553 E5FDE1              A  4319    	LD	IY,HL
012556 FD2700              A  4320    	LD	HL,(IY)
012559 FD5E03              A  4321    	LD	E,(IY+3)
01255C 0140420F            A  4322    	LD	BC,1000000
012560 AF                  A  4323    	XOR	A,A
012561 CD 60 72 01         A  4324    	CALL	__lmuls
012565 DD07FC              A  4325    	LD	BC,(IX+-4)
012568 DD7EFF              A  4326    	LD	A,(IX+-1)
01256B CD 0B 6E 01         A  4327    	CALL	__ladd
01256F DD2FFC              A  4328    	LD	(IX+-4),HL
012572 DD73FF              A  4329    	LD	(IX+-1),E
012575 2A EB 7F 01         A  4330    	LD	HL,(_prof)
012579 3A EE 7F 01         A  4331    	LD	A,(_prof+3)
01257D 5F                  A  4332    	LD	E,A
01257E AF                  A  4333    	XOR	A,A
01257F 01000000            A  4334    	LD	BC,0
012583 CD B2 71 01         A  4335    	CALL	__lcmps
012587 20 0F               A  4336    	JR	NZ,L_332
012589 DD07FC              A  4337    	LD	BC,(IX+-4)
01258C ED43 DC 7F 01       A  4338    	LD	(_mossa_in_analisi),BC
012591 DD7EFF              A  4339    	LD	A,(IX+-1)
012594 32 DF 7F 01         A  4340    	LD	(_mossa_in_analisi+3),A
012598                     A  4341    L_332:
012598 DD7E06              A  4342    	LD	A,(IX+6)
01259B B7                  A  4343    	OR	A,A
01259C 20 12               A  4344    	JR	NZ,L_331
01259E DD4EFF              A  4345    	LD	C,(IX+-1)
0125A1 0600                A  4346    	LD	B,0
0125A3 C5                  A  4347    	PUSH	BC
0125A4 DD07FC              A  4348    	LD	BC,(IX+-4)
0125A7 C5                  A  4349    	PUSH	BC
0125A8 CD 03 08 01         A  4350    	CALL	_sceglimossa
0125AC C1                  A  4351    	POP	BC
0125AD C1                  A  4352    	POP	BC
0125AE 18 10               A  4353    	JR	L_335
0125B0                     A  4354    L_331:
0125B0 DD4EFF              A  4355    	LD	C,(IX+-1)
0125B3 0600                A  4356    	LD	B,0
0125B5 C5                  A  4357    	PUSH	BC
0125B6 DD07FC              A  4358    	LD	BC,(IX+-4)
0125B9 C5                  A  4359    	PUSH	BC
0125BA CD 3D 06 01         A  4360    	CALL	_raccogli
0125BE C1                  A  4361    	POP	BC
0125BF C1                  A  4362    	POP	BC
0125C0                     A  4363    L_335:
0125C0 01000000            A  4364    	LD	BC,0
0125C4 DD27ED              A  4365    	LD	HL,(IX+-19)
0125C7 B7                  A  4366    	OR	A,A
0125C8 ED42                A  4367    	SBC	HL,BC
0125CA CA F2 23 01         A  4368    	JR	Z,L_334
Zilog eZ80 Macro Assembler Version 4.1 (10060805) RELISTED26-Aug-11     11:07:39     page:  85


PC     Object              I  Line    Source C:\Users\fog76\Desktop\CHFIGH~2\Debug\main.src
0125CE DD07F0              A  4369    	LD	BC,(IX+-16)
0125D1 DD0FF6              A  4370    	LD	(IX+-10),BC
0125D4 DD07F3              A  4371    	LD	BC,(IX+-13)
0125D7 DD0FF9              A  4372    	LD	(IX+-7),BC
0125DA                     A  4373    L_342:
0125DA DD27F0              A  4374    	LD	HL,(IX+-16)
0125DD 29                  A  4375    	ADD	HL,HL
0125DE 29                  A  4376    	ADD	HL,HL
0125DF 29                  A  4377    	ADD	HL,HL
0125E0 29                  A  4378    	ADD	HL,HL
0125E1 29                  A  4379    	ADD	HL,HL
0125E2 B7                  A  4380    	OR	A,A
0125E3 DD07F0              A  4381    	LD	BC,(IX+-16)
0125E6 ED42                A  4382    	SBC	HL,BC
0125E8 29                  A  4383    	ADD	HL,HL
0125E9 29                  A  4384    	ADD	HL,HL
0125EA DD07F0              A  4385    	LD	BC,(IX+-16)
0125ED 09                  A  4386    	ADD	HL,BC
0125EE 29                  A  4387    	ADD	HL,HL
0125EF 29                  A  4388    	ADD	HL,HL
0125F0 29                  A  4389    	ADD	HL,HL
0125F1 E5C1                A  4390    	LD	BC,HL
0125F3 CD AB 71 01         A  4391    	CALL	__itol
0125F7 DD0FFC              A  4392    	LD	(IX+-4),BC
0125FA DD77FF              A  4393    	LD	(IX+-1),A
0125FD DD27F3              A  4394    	LD	HL,(IX+-13)
012600 29                  A  4395    	ADD	HL,HL
012601 29                  A  4396    	ADD	HL,HL
012602 B7                  A  4397    	OR	A,A
012603 DD07F3              A  4398    	LD	BC,(IX+-13)
012606 ED42                A  4399    	SBC	HL,BC
012608 29                  A  4400    	ADD	HL,HL
012609 29                  A  4401    	ADD	HL,HL
01260A 29                  A  4402    	ADD	HL,HL
01260B DD07F3              A  4403    	LD	BC,(IX+-13)
01260E 09                  A  4404    	ADD	HL,BC
01260F 29                  A  4405    	ADD	HL,HL
012610 29                  A  4406    	ADD	HL,HL
012611 E5C1                A  4407    	LD	BC,HL
012613 CD AB 71 01         A  4408    	CALL	__itol
012617 5F                  A  4409    	LD	E,A
012618 C5E1                A  4410    	LD	HL,BC
01261A DD07FC              A  4411    	LD	BC,(IX+-4)
01261D DD7EFF              A  4412    	LD	A,(IX+-1)
012620 CD 0B 6E 01         A  4413    	CALL	__ladd
012624 DD2FFC              A  4414    	LD	(IX+-4),HL
012627 DD73FF              A  4415    	LD	(IX+-1),E
01262A DD07F6              A  4416    	LD	BC,(IX+-10)
01262D 03                  A  4417    	INC	BC
01262E DD0FF6              A  4418    	LD	(IX+-10),BC
012631 DD07F9              A  4419    	LD	BC,(IX+-7)
012634 CD AB 71 01         A  4420    	CALL	__itol
Zilog eZ80 Macro Assembler Version 4.1 (10060805) RELISTED26-Aug-11     11:07:39     page:  86


PC     Object              I  Line    Source C:\Users\fog76\Desktop\CHFIGH~2\Debug\main.src
012638 DD27FC              A  4421    	LD	HL,(IX+-4)
01263B DD5EFF              A  4422    	LD	E,(IX+-1)
01263E CD 0B 6E 01         A  4423    	CALL	__ladd
012642 DD2FFC              A  4424    	LD	(IX+-4),HL
012645 DD73FF              A  4425    	LD	(IX+-1),E
012648 DD27F6              A  4426    	LD	HL,(IX+-10)
01264B 29                  A  4427    	ADD	HL,HL
01264C 29                  A  4428    	ADD	HL,HL
01264D DD07F6              A  4429    	LD	BC,(IX+-10)
012650 09                  A  4430    	ADD	HL,BC
012651 29                  A  4431    	ADD	HL,HL
012652 E5C1                A  4432    	LD	BC,HL
012654 CD AB 71 01         A  4433    	CALL	__itol
012658 5F                  A  4434    	LD	E,A
012659 C5E1                A  4435    	LD	HL,BC
01265B DD07FC              A  4436    	LD	BC,(IX+-4)
01265E DD7EFF              A  4437    	LD	A,(IX+-1)
012661 CD 0B 6E 01         A  4438    	CALL	__ladd
012665 DD2FFC              A  4439    	LD	(IX+-4),HL
012668 DD73FF              A  4440    	LD	(IX+-1),E
01266B DD4EFF              A  4441    	LD	C,(IX+-1)
01266E 0600                A  4442    	LD	B,0
012670 C5                  A  4443    	PUSH	BC
012671 DD07FC              A  4444    	LD	BC,(IX+-4)
012674 C5                  A  4445    	PUSH	BC
012675 CD 98 1E 01         A  4446    	CALL	_mossaimposs
012679 C1                  A  4447    	POP	BC
01267A C1                  A  4448    	POP	BC
01267B DD2FED              A  4449    	LD	(IX+-19),HL
01267E 01020000            A  4450    	LD	BC,2
012682 B7                  A  4451    	OR	A,A
012683 ED42                A  4452    	SBC	HL,BC
012685 CA AB 27 01         A  4453    	JR	Z,L_343
012689 DD27FC              A  4454    	LD	HL,(IX+-4)
01268C DD5EFF              A  4455    	LD	E,(IX+-1)
01268F 010A0000            A  4456    	LD	BC,10
012693 AF                  A  4457    	XOR	A,A
012694 CD 60 70 01         A  4458    	CALL	__ldivu
012698 010A0000            A  4459    	LD	BC,10
01269C AF                  A  4460    	XOR	A,A
01269D CD 1D 72 01         A  4461    	CALL	__lremu
0126A1 01280000            A  4462    	LD	BC,40
0126A5 AF                  A  4463    	XOR	A,A
0126A6 CD 60 72 01         A  4464    	CALL	__lmulu
0126AA 01 D5 75 01         A  4465    	LD	BC,_scac
0126AE 09                  A  4466    	ADD	HL,BC
0126AF DD2F97              A  4467    	LD	(IX+-105),HL	; spill
0126B2 DD27FC              A  4468    	LD	HL,(IX+-4)
0126B5 DD5EFF              A  4469    	LD	E,(IX+-1)
0126B8 010A0000            A  4470    	LD	BC,10
0126BC AF                  A  4471    	XOR	A,A
0126BD CD 1D 72 01         A  4472    	CALL	__lremu
Zilog eZ80 Macro Assembler Version 4.1 (10060805) RELISTED26-Aug-11     11:07:39     page:  87


PC     Object              I  Line    Source C:\Users\fog76\Desktop\CHFIGH~2\Debug\main.src
0126C1 01040000            A  4473    	LD	BC,4
0126C5 AF                  A  4474    	XOR	A,A
0126C6 CD 60 72 01         A  4475    	CALL	__lmulu
0126CA DD0797              A  4476    	LD	BC,(IX+-105)	; unspill
0126CD 09                  A  4477    	ADD	HL,BC
0126CE E5FDE1              A  4478    	LD	IY,HL
0126D1 FD2700              A  4479    	LD	HL,(IY)
0126D4 FD5E03              A  4480    	LD	E,(IY+3)
0126D7 01102700            A  4481    	LD	BC,10000
0126DB AF                  A  4482    	XOR	A,A
0126DC CD 60 72 01         A  4483    	CALL	__lmuls
0126E0 DD07FC              A  4484    	LD	BC,(IX+-4)
0126E3 DD7EFF              A  4485    	LD	A,(IX+-1)
0126E6 CD 0B 6E 01         A  4486    	CALL	__ladd
0126EA DD2FFC              A  4487    	LD	(IX+-4),HL
0126ED DD73FF              A  4488    	LD	(IX+-1),E
0126F0 DD27FC              A  4489    	LD	HL,(IX+-4)
0126F3 DD5EFF              A  4490    	LD	E,(IX+-1)
0126F6 01E80300            A  4491    	LD	BC,1000
0126FA AF                  A  4492    	XOR	A,A
0126FB CD 60 70 01         A  4493    	CALL	__ldivu
0126FF 010A0000            A  4494    	LD	BC,10
012703 AF                  A  4495    	XOR	A,A
012704 CD 1D 72 01         A  4496    	CALL	__lremu
012708 01280000            A  4497    	LD	BC,40
01270C AF                  A  4498    	XOR	A,A
01270D CD 60 72 01         A  4499    	CALL	__lmulu
012711 01 D5 75 01         A  4500    	LD	BC,_scac
012715 09                  A  4501    	ADD	HL,BC
012716 DD2F94              A  4502    	LD	(IX+-108),HL	; spill
012719 DD27FC              A  4503    	LD	HL,(IX+-4)
01271C DD5EFF              A  4504    	LD	E,(IX+-1)
01271F 01640000            A  4505    	LD	BC,100
012723 AF                  A  4506    	XOR	A,A
012724 CD 60 70 01         A  4507    	CALL	__ldivu
012728 010A0000            A  4508    	LD	BC,10
01272C AF                  A  4509    	XOR	A,A
01272D CD 1D 72 01         A  4510    	CALL	__lremu
012731 01040000            A  4511    	LD	BC,4
012735 AF                  A  4512    	XOR	A,A
012736 CD 60 72 01         A  4513    	CALL	__lmulu
01273A DD0794              A  4514    	LD	BC,(IX+-108)	; unspill
01273D 09                  A  4515    	ADD	HL,BC
01273E E5FDE1              A  4516    	LD	IY,HL
012741 FD2700              A  4517    	LD	HL,(IY)
012744 FD5E03              A  4518    	LD	E,(IY+3)
012747 0140420F            A  4519    	LD	BC,1000000
01274B AF                  A  4520    	XOR	A,A
01274C CD 60 72 01         A  4521    	CALL	__lmuls
012750 DD07FC              A  4522    	LD	BC,(IX+-4)
012753 DD7EFF              A  4523    	LD	A,(IX+-1)
012756 CD 0B 6E 01         A  4524    	CALL	__ladd
Zilog eZ80 Macro Assembler Version 4.1 (10060805) RELISTED26-Aug-11     11:07:39     page:  88


PC     Object              I  Line    Source C:\Users\fog76\Desktop\CHFIGH~2\Debug\main.src
01275A DD2FFC              A  4525    	LD	(IX+-4),HL
01275D DD73FF              A  4526    	LD	(IX+-1),E
012760 2A EB 7F 01         A  4527    	LD	HL,(_prof)
012764 3A EE 7F 01         A  4528    	LD	A,(_prof+3)
012768 5F                  A  4529    	LD	E,A
012769 AF                  A  4530    	XOR	A,A
01276A 01000000            A  4531    	LD	BC,0
01276E CD B2 71 01         A  4532    	CALL	__lcmps
012772 20 0F               A  4533    	JR	NZ,L_340
012774 DD07FC              A  4534    	LD	BC,(IX+-4)
012777 ED43 DC 7F 01       A  4535    	LD	(_mossa_in_analisi),BC
01277C DD7EFF              A  4536    	LD	A,(IX+-1)
01277F 32 DF 7F 01         A  4537    	LD	(_mossa_in_analisi+3),A
012783                     A  4538    L_340:
012783 DD7E06              A  4539    	LD	A,(IX+6)
012786 B7                  A  4540    	OR	A,A
012787 20 12               A  4541    	JR	NZ,L_339
012789 DD4EFF              A  4542    	LD	C,(IX+-1)
01278C 0600                A  4543    	LD	B,0
01278E C5                  A  4544    	PUSH	BC
01278F DD07FC              A  4545    	LD	BC,(IX+-4)
012792 C5                  A  4546    	PUSH	BC
012793 CD 03 08 01         A  4547    	CALL	_sceglimossa
012797 C1                  A  4548    	POP	BC
012798 C1                  A  4549    	POP	BC
012799 18 10               A  4550    	JR	L_343
01279B                     A  4551    L_339:
01279B DD4EFF              A  4552    	LD	C,(IX+-1)
01279E 0600                A  4553    	LD	B,0
0127A0 C5                  A  4554    	PUSH	BC
0127A1 DD07FC              A  4555    	LD	BC,(IX+-4)
0127A4 C5                  A  4556    	PUSH	BC
0127A5 CD 3D 06 01         A  4557    	CALL	_raccogli
0127A9 C1                  A  4558    	POP	BC
0127AA C1                  A  4559    	POP	BC
0127AB                     A  4560    L_343:
0127AB 01000000            A  4561    	LD	BC,0
0127AF DD27ED              A  4562    	LD	HL,(IX+-19)
0127B2 B7                  A  4563    	OR	A,A
0127B3 ED42                A  4564    	SBC	HL,BC
0127B5 CA DA 25 01         A  4565    	JR	Z,L_342
0127B9 DD07F0              A  4566    	LD	BC,(IX+-16)
0127BC DD0FF6              A  4567    	LD	(IX+-10),BC
0127BF DD07F3              A  4568    	LD	BC,(IX+-13)
0127C2 DD0FF9              A  4569    	LD	(IX+-7),BC
0127C5                     A  4570    L_350:
0127C5 DD27F0              A  4571    	LD	HL,(IX+-16)
0127C8 29                  A  4572    	ADD	HL,HL
0127C9 29                  A  4573    	ADD	HL,HL
0127CA 29                  A  4574    	ADD	HL,HL
0127CB 29                  A  4575    	ADD	HL,HL
0127CC 29                  A  4576    	ADD	HL,HL
Zilog eZ80 Macro Assembler Version 4.1 (10060805) RELISTED26-Aug-11     11:07:39     page:  89


PC     Object              I  Line    Source C:\Users\fog76\Desktop\CHFIGH~2\Debug\main.src
0127CD B7                  A  4577    	OR	A,A
0127CE DD07F0              A  4578    	LD	BC,(IX+-16)
0127D1 ED42                A  4579    	SBC	HL,BC
0127D3 29                  A  4580    	ADD	HL,HL
0127D4 29                  A  4581    	ADD	HL,HL
0127D5 DD07F0              A  4582    	LD	BC,(IX+-16)
0127D8 09                  A  4583    	ADD	HL,BC
0127D9 29                  A  4584    	ADD	HL,HL
0127DA 29                  A  4585    	ADD	HL,HL
0127DB 29                  A  4586    	ADD	HL,HL
0127DC E5C1                A  4587    	LD	BC,HL
0127DE CD AB 71 01         A  4588    	CALL	__itol
0127E2 DD0FFC              A  4589    	LD	(IX+-4),BC
0127E5 DD77FF              A  4590    	LD	(IX+-1),A
0127E8 DD27F3              A  4591    	LD	HL,(IX+-13)
0127EB 29                  A  4592    	ADD	HL,HL
0127EC 29                  A  4593    	ADD	HL,HL
0127ED B7                  A  4594    	OR	A,A
0127EE DD07F3              A  4595    	LD	BC,(IX+-13)
0127F1 ED42                A  4596    	SBC	HL,BC
0127F3 29                  A  4597    	ADD	HL,HL
0127F4 29                  A  4598    	ADD	HL,HL
0127F5 29                  A  4599    	ADD	HL,HL
0127F6 DD07F3              A  4600    	LD	BC,(IX+-13)
0127F9 09                  A  4601    	ADD	HL,BC
0127FA 29                  A  4602    	ADD	HL,HL
0127FB 29                  A  4603    	ADD	HL,HL
0127FC E5C1                A  4604    	LD	BC,HL
0127FE CD AB 71 01         A  4605    	CALL	__itol
012802 5F                  A  4606    	LD	E,A
012803 C5E1                A  4607    	LD	HL,BC
012805 DD07FC              A  4608    	LD	BC,(IX+-4)
012808 DD7EFF              A  4609    	LD	A,(IX+-1)
01280B CD 0B 6E 01         A  4610    	CALL	__ladd
01280F DD2FFC              A  4611    	LD	(IX+-4),HL
012812 DD73FF              A  4612    	LD	(IX+-1),E
012815 DD07F6              A  4613    	LD	BC,(IX+-10)
012818 0B                  A  4614    	DEC	BC
012819 DD0FF6              A  4615    	LD	(IX+-10),BC
01281C DD07F9              A  4616    	LD	BC,(IX+-7)
01281F CD AB 71 01         A  4617    	CALL	__itol
012823 DD27FC              A  4618    	LD	HL,(IX+-4)
012826 DD5EFF              A  4619    	LD	E,(IX+-1)
012829 CD 0B 6E 01         A  4620    	CALL	__ladd
01282D DD2FFC              A  4621    	LD	(IX+-4),HL
012830 DD73FF              A  4622    	LD	(IX+-1),E
012833 DD27F6              A  4623    	LD	HL,(IX+-10)
012836 29                  A  4624    	ADD	HL,HL
012837 29                  A  4625    	ADD	HL,HL
012838 DD07F6              A  4626    	LD	BC,(IX+-10)
01283B 09                  A  4627    	ADD	HL,BC
01283C 29                  A  4628    	ADD	HL,HL
Zilog eZ80 Macro Assembler Version 4.1 (10060805) RELISTED26-Aug-11     11:07:39     page:  90


PC     Object              I  Line    Source C:\Users\fog76\Desktop\CHFIGH~2\Debug\main.src
01283D E5C1                A  4629    	LD	BC,HL
01283F CD AB 71 01         A  4630    	CALL	__itol
012843 5F                  A  4631    	LD	E,A
012844 C5E1                A  4632    	LD	HL,BC
012846 DD07FC              A  4633    	LD	BC,(IX+-4)
012849 DD7EFF              A  4634    	LD	A,(IX+-1)
01284C CD 0B 6E 01         A  4635    	CALL	__ladd
012850 DD2FFC              A  4636    	LD	(IX+-4),HL
012853 DD73FF              A  4637    	LD	(IX+-1),E
012856 DD4EFF              A  4638    	LD	C,(IX+-1)
012859 0600                A  4639    	LD	B,0
01285B C5                  A  4640    	PUSH	BC
01285C DD07FC              A  4641    	LD	BC,(IX+-4)
01285F C5                  A  4642    	PUSH	BC
012860 CD 98 1E 01         A  4643    	CALL	_mossaimposs
012864 C1                  A  4644    	POP	BC
012865 C1                  A  4645    	POP	BC
012866 DD2FED              A  4646    	LD	(IX+-19),HL
012869 01020000            A  4647    	LD	BC,2
01286D B7                  A  4648    	OR	A,A
01286E ED42                A  4649    	SBC	HL,BC
012870 CA 96 29 01         A  4650    	JR	Z,L_351
012874 DD27FC              A  4651    	LD	HL,(IX+-4)
012877 DD5EFF              A  4652    	LD	E,(IX+-1)
01287A 010A0000            A  4653    	LD	BC,10
01287E AF                  A  4654    	XOR	A,A
01287F CD 60 70 01         A  4655    	CALL	__ldivu
012883 010A0000            A  4656    	LD	BC,10
012887 AF                  A  4657    	XOR	A,A
012888 CD 1D 72 01         A  4658    	CALL	__lremu
01288C 01280000            A  4659    	LD	BC,40
012890 AF                  A  4660    	XOR	A,A
012891 CD 60 72 01         A  4661    	CALL	__lmulu
012895 01 D5 75 01         A  4662    	LD	BC,_scac
012899 09                  A  4663    	ADD	HL,BC
01289A DD2F9D              A  4664    	LD	(IX+-99),HL	; spill
01289D DD27FC              A  4665    	LD	HL,(IX+-4)
0128A0 DD5EFF              A  4666    	LD	E,(IX+-1)
0128A3 010A0000            A  4667    	LD	BC,10
0128A7 AF                  A  4668    	XOR	A,A
0128A8 CD 1D 72 01         A  4669    	CALL	__lremu
0128AC 01040000            A  4670    	LD	BC,4
0128B0 AF                  A  4671    	XOR	A,A
0128B1 CD 60 72 01         A  4672    	CALL	__lmulu
0128B5 DD079D              A  4673    	LD	BC,(IX+-99)	; unspill
0128B8 09                  A  4674    	ADD	HL,BC
0128B9 E5FDE1              A  4675    	LD	IY,HL
0128BC FD2700              A  4676    	LD	HL,(IY)
0128BF FD5E03              A  4677    	LD	E,(IY+3)
0128C2 01102700            A  4678    	LD	BC,10000
0128C6 AF                  A  4679    	XOR	A,A
0128C7 CD 60 72 01         A  4680    	CALL	__lmuls
Zilog eZ80 Macro Assembler Version 4.1 (10060805) RELISTED26-Aug-11     11:07:39     page:  91


PC     Object              I  Line    Source C:\Users\fog76\Desktop\CHFIGH~2\Debug\main.src
0128CB DD07FC              A  4681    	LD	BC,(IX+-4)
0128CE DD7EFF              A  4682    	LD	A,(IX+-1)
0128D1 CD 0B 6E 01         A  4683    	CALL	__ladd
0128D5 DD2FFC              A  4684    	LD	(IX+-4),HL
0128D8 DD73FF              A  4685    	LD	(IX+-1),E
0128DB DD27FC              A  4686    	LD	HL,(IX+-4)
0128DE DD5EFF              A  4687    	LD	E,(IX+-1)
0128E1 01E80300            A  4688    	LD	BC,1000
0128E5 AF                  A  4689    	XOR	A,A
0128E6 CD 60 70 01         A  4690    	CALL	__ldivu
0128EA 010A0000            A  4691    	LD	BC,10
0128EE AF                  A  4692    	XOR	A,A
0128EF CD 1D 72 01         A  4693    	CALL	__lremu
0128F3 01280000            A  4694    	LD	BC,40
0128F7 AF                  A  4695    	XOR	A,A
0128F8 CD 60 72 01         A  4696    	CALL	__lmulu
0128FC 01 D5 75 01         A  4697    	LD	BC,_scac
012900 09                  A  4698    	ADD	HL,BC
012901 DD2F9A              A  4699    	LD	(IX+-102),HL	; spill
012904 DD27FC              A  4700    	LD	HL,(IX+-4)
012907 DD5EFF              A  4701    	LD	E,(IX+-1)
01290A 01640000            A  4702    	LD	BC,100
01290E AF                  A  4703    	XOR	A,A
01290F CD 60 70 01         A  4704    	CALL	__ldivu
012913 010A0000            A  4705    	LD	BC,10
012917 AF                  A  4706    	XOR	A,A
012918 CD 1D 72 01         A  4707    	CALL	__lremu
01291C 01040000            A  4708    	LD	BC,4
012920 AF                  A  4709    	XOR	A,A
012921 CD 60 72 01         A  4710    	CALL	__lmulu
012925 DD079A              A  4711    	LD	BC,(IX+-102)	; unspill
012928 09                  A  4712    	ADD	HL,BC
012929 E5FDE1              A  4713    	LD	IY,HL
01292C FD2700              A  4714    	LD	HL,(IY)
01292F FD5E03              A  4715    	LD	E,(IY+3)
012932 0140420F            A  4716    	LD	BC,1000000
012936 AF                  A  4717    	XOR	A,A
012937 CD 60 72 01         A  4718    	CALL	__lmuls
01293B DD07FC              A  4719    	LD	BC,(IX+-4)
01293E DD7EFF              A  4720    	LD	A,(IX+-1)
012941 CD 0B 6E 01         A  4721    	CALL	__ladd
012945 DD2FFC              A  4722    	LD	(IX+-4),HL
012948 DD73FF              A  4723    	LD	(IX+-1),E
01294B 2A EB 7F 01         A  4724    	LD	HL,(_prof)
01294F 3A EE 7F 01         A  4725    	LD	A,(_prof+3)
012953 5F                  A  4726    	LD	E,A
012954 AF                  A  4727    	XOR	A,A
012955 01000000            A  4728    	LD	BC,0
012959 CD B2 71 01         A  4729    	CALL	__lcmps
01295D 20 0F               A  4730    	JR	NZ,L_348
01295F DD07FC              A  4731    	LD	BC,(IX+-4)
012962 ED43 DC 7F 01       A  4732    	LD	(_mossa_in_analisi),BC
Zilog eZ80 Macro Assembler Version 4.1 (10060805) RELISTED26-Aug-11     11:07:39     page:  92


PC     Object              I  Line    Source C:\Users\fog76\Desktop\CHFIGH~2\Debug\main.src
012967 DD7EFF              A  4733    	LD	A,(IX+-1)
01296A 32 DF 7F 01         A  4734    	LD	(_mossa_in_analisi+3),A
01296E                     A  4735    L_348:
01296E DD7E06              A  4736    	LD	A,(IX+6)
012971 B7                  A  4737    	OR	A,A
012972 20 12               A  4738    	JR	NZ,L_347
012974 DD4EFF              A  4739    	LD	C,(IX+-1)
012977 0600                A  4740    	LD	B,0
012979 C5                  A  4741    	PUSH	BC
01297A DD07FC              A  4742    	LD	BC,(IX+-4)
01297D C5                  A  4743    	PUSH	BC
01297E CD 03 08 01         A  4744    	CALL	_sceglimossa
012982 C1                  A  4745    	POP	BC
012983 C1                  A  4746    	POP	BC
012984 18 10               A  4747    	JR	L_351
012986                     A  4748    L_347:
012986 DD4EFF              A  4749    	LD	C,(IX+-1)
012989 0600                A  4750    	LD	B,0
01298B C5                  A  4751    	PUSH	BC
01298C DD07FC              A  4752    	LD	BC,(IX+-4)
01298F C5                  A  4753    	PUSH	BC
012990 CD 3D 06 01         A  4754    	CALL	_raccogli
012994 C1                  A  4755    	POP	BC
012995 C1                  A  4756    	POP	BC
012996                     A  4757    L_351:
012996 01000000            A  4758    	LD	BC,0
01299A DD27ED              A  4759    	LD	HL,(IX+-19)
01299D B7                  A  4760    	OR	A,A
01299E ED42                A  4761    	SBC	HL,BC
0129A0 CA C5 27 01         A  4762    	JR	Z,L_350
0129A4                     A  4763    L_392:
0129A4 01000000            A  4764    	LD	BC,0
0129A8 2A E0 7F 01         A  4765    	LD	HL,(_col_prof)
0129AC B7                  A  4766    	OR	A,A
0129AD ED42                A  4767    	SBC	HL,BC
0129AF 20 60               A  4768    	JR	NZ,L_359
0129B1 DD27F0              A  4769    	LD	HL,(IX+-16)
0129B4 29                  A  4770    	ADD	HL,HL
0129B5 29                  A  4771    	ADD	HL,HL
0129B6 DD07F0              A  4772    	LD	BC,(IX+-16)
0129B9 09                  A  4773    	ADD	HL,BC
0129BA 29                  A  4774    	ADD	HL,HL
0129BB 29                  A  4775    	ADD	HL,HL
0129BC 29                  A  4776    	ADD	HL,HL
0129BD 01 D5 75 01         A  4777    	LD	BC,_scac
0129C1 09                  A  4778    	ADD	HL,BC
0129C2 DD2FD0              A  4779    	LD	(IX+-48),HL
0129C5 DD27F3              A  4780    	LD	HL,(IX+-13)
0129C8 29                  A  4781    	ADD	HL,HL
0129C9 29                  A  4782    	ADD	HL,HL
0129CA DD07D0              A  4783    	LD	BC,(IX+-48)
0129CD 09                  A  4784    	ADD	HL,BC
Zilog eZ80 Macro Assembler Version 4.1 (10060805) RELISTED26-Aug-11     11:07:39     page:  93


PC     Object              I  Line    Source C:\Users\fog76\Desktop\CHFIGH~2\Debug\main.src
0129CE DD2FE0              A  4785    	LD	(IX+-32),HL
0129D1 DD31E0              A  4786    	LD	IY,(IX+-32)
0129D4 FD2700              A  4787    	LD	HL,(IY)
0129D7 FD5E03              A  4788    	LD	E,(IY+3)
0129DA 01020000            A  4789    	LD	BC,2
0129DE AF                  A  4790    	XOR	A,A
0129DF CD B2 71 01         A  4791    	CALL	__lcmps
0129E3 CA 7E 2A 01         A  4792    	JR	Z,L_391
0129E7 DD31E0              A  4793    	LD	IY,(IX+-32)
0129EA FD2700              A  4794    	LD	HL,(IY)
0129ED FD5E03              A  4795    	LD	E,(IY+3)
0129F0 01010000            A  4796    	LD	BC,1
0129F4 AF                  A  4797    	XOR	A,A
0129F5 CD B2 71 01         A  4798    	CALL	__lcmps
0129F9 CA 7E 2A 01         A  4799    	JR	Z,L_391
0129FD DD31E0              A  4800    	LD	IY,(IX+-32)
012A00 FD2700              A  4801    	LD	HL,(IY)
012A03 FD5E03              A  4802    	LD	E,(IY+3)
012A06 01030000            A  4803    	LD	BC,3
012A0A AF                  A  4804    	XOR	A,A
012A0B CD B2 71 01         A  4805    	CALL	__lcmps
012A0F 28 6D               A  4806    	JR	Z,L_391
012A11                     A  4807    L_359:
012A11 01010000            A  4808    	LD	BC,1
012A15 2A E0 7F 01         A  4809    	LD	HL,(_col_prof)
012A19 B7                  A  4810    	OR	A,A
012A1A ED42                A  4811    	SBC	HL,BC
012A1C C2 3A 32 01         A  4812    	JR	NZ,L_452
012A20 DD27F0              A  4813    	LD	HL,(IX+-16)
012A23 29                  A  4814    	ADD	HL,HL
012A24 29                  A  4815    	ADD	HL,HL
012A25 DD07F0              A  4816    	LD	BC,(IX+-16)
012A28 09                  A  4817    	ADD	HL,BC
012A29 29                  A  4818    	ADD	HL,HL
012A2A 29                  A  4819    	ADD	HL,HL
012A2B 29                  A  4820    	ADD	HL,HL
012A2C 01 D5 75 01         A  4821    	LD	BC,_scac
012A30 09                  A  4822    	ADD	HL,BC
012A31 DD2FCA              A  4823    	LD	(IX+-54),HL
012A34 DD27F3              A  4824    	LD	HL,(IX+-13)
012A37 29                  A  4825    	ADD	HL,HL
012A38 29                  A  4826    	ADD	HL,HL
012A39 DD07CA              A  4827    	LD	BC,(IX+-54)
012A3C 09                  A  4828    	ADD	HL,BC
012A3D DD2FDD              A  4829    	LD	(IX+-35),HL
012A40 DD31DD              A  4830    	LD	IY,(IX+-35)
012A43 FD2700              A  4831    	LD	HL,(IY)
012A46 FD5E03              A  4832    	LD	E,(IY+3)
012A49 01080000            A  4833    	LD	BC,8
012A4D AF                  A  4834    	XOR	A,A
012A4E CD B2 71 01         A  4835    	CALL	__lcmps
012A52 28 2A               A  4836    	JR	Z,L_391
Zilog eZ80 Macro Assembler Version 4.1 (10060805) RELISTED26-Aug-11     11:07:39     page:  94


PC     Object              I  Line    Source C:\Users\fog76\Desktop\CHFIGH~2\Debug\main.src
012A54 DD31DD              A  4837    	LD	IY,(IX+-35)
012A57 FD2700              A  4838    	LD	HL,(IY)
012A5A FD5E03              A  4839    	LD	E,(IY+3)
012A5D 01070000            A  4840    	LD	BC,7
012A61 AF                  A  4841    	XOR	A,A
012A62 CD B2 71 01         A  4842    	CALL	__lcmps
012A66 28 16               A  4843    	JR	Z,L_391
012A68 DD31DD              A  4844    	LD	IY,(IX+-35)
012A6B FD2700              A  4845    	LD	HL,(IY)
012A6E FD5E03              A  4846    	LD	E,(IY+3)
012A71 01090000            A  4847    	LD	BC,9
012A75 AF                  A  4848    	XOR	A,A
012A76 CD B2 71 01         A  4849    	CALL	__lcmps
012A7A C2 3A 32 01         A  4850    	JR	NZ,L_452
012A7E                     A  4851    L_391:
012A7E DD07F0              A  4852    	LD	BC,(IX+-16)
012A81 DD0FF6              A  4853    	LD	(IX+-10),BC
012A84 DD07F3              A  4854    	LD	BC,(IX+-13)
012A87 DD0FF9              A  4855    	LD	(IX+-7),BC
012A8A                     A  4856    L_365:
012A8A DD27F0              A  4857    	LD	HL,(IX+-16)
012A8D 29                  A  4858    	ADD	HL,HL
012A8E 29                  A  4859    	ADD	HL,HL
012A8F 29                  A  4860    	ADD	HL,HL
012A90 29                  A  4861    	ADD	HL,HL
012A91 29                  A  4862    	ADD	HL,HL
012A92 B7                  A  4863    	OR	A,A
012A93 DD07F0              A  4864    	LD	BC,(IX+-16)
012A96 ED42                A  4865    	SBC	HL,BC
012A98 29                  A  4866    	ADD	HL,HL
012A99 29                  A  4867    	ADD	HL,HL
012A9A DD07F0              A  4868    	LD	BC,(IX+-16)
012A9D 09                  A  4869    	ADD	HL,BC
012A9E 29                  A  4870    	ADD	HL,HL
012A9F 29                  A  4871    	ADD	HL,HL
012AA0 29                  A  4872    	ADD	HL,HL
012AA1 E5C1                A  4873    	LD	BC,HL
012AA3 CD AB 71 01         A  4874    	CALL	__itol
012AA7 DD0FFC              A  4875    	LD	(IX+-4),BC
012AAA DD77FF              A  4876    	LD	(IX+-1),A
012AAD DD27F3              A  4877    	LD	HL,(IX+-13)
012AB0 29                  A  4878    	ADD	HL,HL
012AB1 29                  A  4879    	ADD	HL,HL
012AB2 B7                  A  4880    	OR	A,A
012AB3 DD07F3              A  4881    	LD	BC,(IX+-13)
012AB6 ED42                A  4882    	SBC	HL,BC
012AB8 29                  A  4883    	ADD	HL,HL
012AB9 29                  A  4884    	ADD	HL,HL
012ABA 29                  A  4885    	ADD	HL,HL
012ABB DD07F3              A  4886    	LD	BC,(IX+-13)
012ABE 09                  A  4887    	ADD	HL,BC
012ABF 29                  A  4888    	ADD	HL,HL
Zilog eZ80 Macro Assembler Version 4.1 (10060805) RELISTED26-Aug-11     11:07:39     page:  95


PC     Object              I  Line    Source C:\Users\fog76\Desktop\CHFIGH~2\Debug\main.src
012AC0 29                  A  4889    	ADD	HL,HL
012AC1 E5C1                A  4890    	LD	BC,HL
012AC3 CD AB 71 01         A  4891    	CALL	__itol
012AC7 5F                  A  4892    	LD	E,A
012AC8 C5E1                A  4893    	LD	HL,BC
012ACA DD07FC              A  4894    	LD	BC,(IX+-4)
012ACD DD7EFF              A  4895    	LD	A,(IX+-1)
012AD0 CD 0B 6E 01         A  4896    	CALL	__ladd
012AD4 DD2FFC              A  4897    	LD	(IX+-4),HL
012AD7 DD73FF              A  4898    	LD	(IX+-1),E
012ADA DD07F9              A  4899    	LD	BC,(IX+-7)
012ADD 03                  A  4900    	INC	BC
012ADE DD0FF9              A  4901    	LD	(IX+-7),BC
012AE1 DD17F6              A  4902    	LD	DE,(IX+-10)
012AE4 13                  A  4903    	INC	DE
012AE5 DD1FF6              A  4904    	LD	(IX+-10),DE
012AE8 DD27FC              A  4905    	LD	HL,(IX+-4)
012AEB DD5EFF              A  4906    	LD	E,(IX+-1)
012AEE CD AB 71 01         A  4907    	CALL	__itol
012AF2 CD 0B 6E 01         A  4908    	CALL	__ladd
012AF6 DD2FFC              A  4909    	LD	(IX+-4),HL
012AF9 DD73FF              A  4910    	LD	(IX+-1),E
012AFC DD27F6              A  4911    	LD	HL,(IX+-10)
012AFF 29                  A  4912    	ADD	HL,HL
012B00 29                  A  4913    	ADD	HL,HL
012B01 DD07F6              A  4914    	LD	BC,(IX+-10)
012B04 09                  A  4915    	ADD	HL,BC
012B05 29                  A  4916    	ADD	HL,HL
012B06 E5C1                A  4917    	LD	BC,HL
012B08 CD AB 71 01         A  4918    	CALL	__itol
012B0C 5F                  A  4919    	LD	E,A
012B0D C5E1                A  4920    	LD	HL,BC
012B0F DD07FC              A  4921    	LD	BC,(IX+-4)
012B12 DD7EFF              A  4922    	LD	A,(IX+-1)
012B15 CD 0B 6E 01         A  4923    	CALL	__ladd
012B19 DD2FFC              A  4924    	LD	(IX+-4),HL
012B1C DD73FF              A  4925    	LD	(IX+-1),E
012B1F DD4EFF              A  4926    	LD	C,(IX+-1)
012B22 0600                A  4927    	LD	B,0
012B24 C5                  A  4928    	PUSH	BC
012B25 DD07FC              A  4929    	LD	BC,(IX+-4)
012B28 C5                  A  4930    	PUSH	BC
012B29 CD 98 1E 01         A  4931    	CALL	_mossaimposs
012B2D C1                  A  4932    	POP	BC
012B2E C1                  A  4933    	POP	BC
012B2F DD2FED              A  4934    	LD	(IX+-19),HL
012B32 01020000            A  4935    	LD	BC,2
012B36 B7                  A  4936    	OR	A,A
012B37 ED42                A  4937    	SBC	HL,BC
012B39 CA 5F 2C 01         A  4938    	JR	Z,L_366
012B3D DD27FC              A  4939    	LD	HL,(IX+-4)
012B40 DD5EFF              A  4940    	LD	E,(IX+-1)
Zilog eZ80 Macro Assembler Version 4.1 (10060805) RELISTED26-Aug-11     11:07:39     page:  96


PC     Object              I  Line    Source C:\Users\fog76\Desktop\CHFIGH~2\Debug\main.src
012B43 010A0000            A  4941    	LD	BC,10
012B47 AF                  A  4942    	XOR	A,A
012B48 CD 60 70 01         A  4943    	CALL	__ldivu
012B4C 010A0000            A  4944    	LD	BC,10
012B50 AF                  A  4945    	XOR	A,A
012B51 CD 1D 72 01         A  4946    	CALL	__lremu
012B55 01280000            A  4947    	LD	BC,40
012B59 AF                  A  4948    	XOR	A,A
012B5A CD 60 72 01         A  4949    	CALL	__lmulu
012B5E 01 D5 75 01         A  4950    	LD	BC,_scac
012B62 09                  A  4951    	ADD	HL,BC
012B63 DD2FA3              A  4952    	LD	(IX+-93),HL	; spill
012B66 DD27FC              A  4953    	LD	HL,(IX+-4)
012B69 DD5EFF              A  4954    	LD	E,(IX+-1)
012B6C 010A0000            A  4955    	LD	BC,10
012B70 AF                  A  4956    	XOR	A,A
012B71 CD 1D 72 01         A  4957    	CALL	__lremu
012B75 01040000            A  4958    	LD	BC,4
012B79 AF                  A  4959    	XOR	A,A
012B7A CD 60 72 01         A  4960    	CALL	__lmulu
012B7E DD07A3              A  4961    	LD	BC,(IX+-93)	; unspill
012B81 09                  A  4962    	ADD	HL,BC
012B82 E5FDE1              A  4963    	LD	IY,HL
012B85 FD2700              A  4964    	LD	HL,(IY)
012B88 FD5E03              A  4965    	LD	E,(IY+3)
012B8B 01102700            A  4966    	LD	BC,10000
012B8F AF                  A  4967    	XOR	A,A
012B90 CD 60 72 01         A  4968    	CALL	__lmuls
012B94 DD07FC              A  4969    	LD	BC,(IX+-4)
012B97 DD7EFF              A  4970    	LD	A,(IX+-1)
012B9A CD 0B 6E 01         A  4971    	CALL	__ladd
012B9E DD2FFC              A  4972    	LD	(IX+-4),HL
012BA1 DD73FF              A  4973    	LD	(IX+-1),E
012BA4 DD27FC              A  4974    	LD	HL,(IX+-4)
012BA7 DD5EFF              A  4975    	LD	E,(IX+-1)
012BAA 01E80300            A  4976    	LD	BC,1000
012BAE AF                  A  4977    	XOR	A,A
012BAF CD 60 70 01         A  4978    	CALL	__ldivu
012BB3 010A0000            A  4979    	LD	BC,10
012BB7 AF                  A  4980    	XOR	A,A
012BB8 CD 1D 72 01         A  4981    	CALL	__lremu
012BBC 01280000            A  4982    	LD	BC,40
012BC0 AF                  A  4983    	XOR	A,A
012BC1 CD 60 72 01         A  4984    	CALL	__lmulu
012BC5 01 D5 75 01         A  4985    	LD	BC,_scac
012BC9 09                  A  4986    	ADD	HL,BC
012BCA DD2FA0              A  4987    	LD	(IX+-96),HL	; spill
012BCD DD27FC              A  4988    	LD	HL,(IX+-4)
012BD0 DD5EFF              A  4989    	LD	E,(IX+-1)
012BD3 01640000            A  4990    	LD	BC,100
012BD7 AF                  A  4991    	XOR	A,A
012BD8 CD 60 70 01         A  4992    	CALL	__ldivu
Zilog eZ80 Macro Assembler Version 4.1 (10060805) RELISTED26-Aug-11     11:07:39     page:  97


PC     Object              I  Line    Source C:\Users\fog76\Desktop\CHFIGH~2\Debug\main.src
012BDC 010A0000            A  4993    	LD	BC,10
012BE0 AF                  A  4994    	XOR	A,A
012BE1 CD 1D 72 01         A  4995    	CALL	__lremu
012BE5 01040000            A  4996    	LD	BC,4
012BE9 AF                  A  4997    	XOR	A,A
012BEA CD 60 72 01         A  4998    	CALL	__lmulu
012BEE DD07A0              A  4999    	LD	BC,(IX+-96)	; unspill
012BF1 09                  A  5000    	ADD	HL,BC
012BF2 E5FDE1              A  5001    	LD	IY,HL
012BF5 FD2700              A  5002    	LD	HL,(IY)
012BF8 FD5E03              A  5003    	LD	E,(IY+3)
012BFB 0140420F            A  5004    	LD	BC,1000000
012BFF AF                  A  5005    	XOR	A,A
012C00 CD 60 72 01         A  5006    	CALL	__lmuls
012C04 DD07FC              A  5007    	LD	BC,(IX+-4)
012C07 DD7EFF              A  5008    	LD	A,(IX+-1)
012C0A CD 0B 6E 01         A  5009    	CALL	__ladd
012C0E DD2FFC              A  5010    	LD	(IX+-4),HL
012C11 DD73FF              A  5011    	LD	(IX+-1),E
012C14 2A EB 7F 01         A  5012    	LD	HL,(_prof)
012C18 3A EE 7F 01         A  5013    	LD	A,(_prof+3)
012C1C 5F                  A  5014    	LD	E,A
012C1D AF                  A  5015    	XOR	A,A
012C1E 01000000            A  5016    	LD	BC,0
012C22 CD B2 71 01         A  5017    	CALL	__lcmps
012C26 20 0F               A  5018    	JR	NZ,L_363
012C28 DD07FC              A  5019    	LD	BC,(IX+-4)
012C2B ED43 DC 7F 01       A  5020    	LD	(_mossa_in_analisi),BC
012C30 DD7EFF              A  5021    	LD	A,(IX+-1)
012C33 32 DF 7F 01         A  5022    	LD	(_mossa_in_analisi+3),A
012C37                     A  5023    L_363:
012C37 DD7E06              A  5024    	LD	A,(IX+6)
012C3A B7                  A  5025    	OR	A,A
012C3B 20 12               A  5026    	JR	NZ,L_362
012C3D DD4EFF              A  5027    	LD	C,(IX+-1)
012C40 0600                A  5028    	LD	B,0
012C42 C5                  A  5029    	PUSH	BC
012C43 DD07FC              A  5030    	LD	BC,(IX+-4)
012C46 C5                  A  5031    	PUSH	BC
012C47 CD 03 08 01         A  5032    	CALL	_sceglimossa
012C4B C1                  A  5033    	POP	BC
012C4C C1                  A  5034    	POP	BC
012C4D 18 10               A  5035    	JR	L_366
012C4F                     A  5036    L_362:
012C4F DD4EFF              A  5037    	LD	C,(IX+-1)
012C52 0600                A  5038    	LD	B,0
012C54 C5                  A  5039    	PUSH	BC
012C55 DD07FC              A  5040    	LD	BC,(IX+-4)
012C58 C5                  A  5041    	PUSH	BC
012C59 CD 3D 06 01         A  5042    	CALL	_raccogli
012C5D C1                  A  5043    	POP	BC
012C5E C1                  A  5044    	POP	BC
Zilog eZ80 Macro Assembler Version 4.1 (10060805) RELISTED26-Aug-11     11:07:39     page:  98


PC     Object              I  Line    Source C:\Users\fog76\Desktop\CHFIGH~2\Debug\main.src
012C5F                     A  5045    L_366:
012C5F 01000000            A  5046    	LD	BC,0
012C63 DD27ED              A  5047    	LD	HL,(IX+-19)
012C66 B7                  A  5048    	OR	A,A
012C67 ED42                A  5049    	SBC	HL,BC
012C69 CA 8A 2A 01         A  5050    	JR	Z,L_365
012C6D DD07F0              A  5051    	LD	BC,(IX+-16)
012C70 DD0FF6              A  5052    	LD	(IX+-10),BC
012C73 DD07F3              A  5053    	LD	BC,(IX+-13)
012C76 DD0FF9              A  5054    	LD	(IX+-7),BC
012C79                     A  5055    L_373:
012C79 DD27F0              A  5056    	LD	HL,(IX+-16)
012C7C 29                  A  5057    	ADD	HL,HL
012C7D 29                  A  5058    	ADD	HL,HL
012C7E 29                  A  5059    	ADD	HL,HL
012C7F 29                  A  5060    	ADD	HL,HL
012C80 29                  A  5061    	ADD	HL,HL
012C81 B7                  A  5062    	OR	A,A
012C82 DD07F0              A  5063    	LD	BC,(IX+-16)
012C85 ED42                A  5064    	SBC	HL,BC
012C87 29                  A  5065    	ADD	HL,HL
012C88 29                  A  5066    	ADD	HL,HL
012C89 DD07F0              A  5067    	LD	BC,(IX+-16)
012C8C 09                  A  5068    	ADD	HL,BC
012C8D 29                  A  5069    	ADD	HL,HL
012C8E 29                  A  5070    	ADD	HL,HL
012C8F 29                  A  5071    	ADD	HL,HL
012C90 E5C1                A  5072    	LD	BC,HL
012C92 CD AB 71 01         A  5073    	CALL	__itol
012C96 DD0FFC              A  5074    	LD	(IX+-4),BC
012C99 DD77FF              A  5075    	LD	(IX+-1),A
012C9C DD27F3              A  5076    	LD	HL,(IX+-13)
012C9F 29                  A  5077    	ADD	HL,HL
012CA0 29                  A  5078    	ADD	HL,HL
012CA1 B7                  A  5079    	OR	A,A
012CA2 DD07F3              A  5080    	LD	BC,(IX+-13)
012CA5 ED42                A  5081    	SBC	HL,BC
012CA7 29                  A  5082    	ADD	HL,HL
012CA8 29                  A  5083    	ADD	HL,HL
012CA9 29                  A  5084    	ADD	HL,HL
012CAA DD07F3              A  5085    	LD	BC,(IX+-13)
012CAD 09                  A  5086    	ADD	HL,BC
012CAE 29                  A  5087    	ADD	HL,HL
012CAF 29                  A  5088    	ADD	HL,HL
012CB0 E5C1                A  5089    	LD	BC,HL
012CB2 CD AB 71 01         A  5090    	CALL	__itol
012CB6 5F                  A  5091    	LD	E,A
012CB7 C5E1                A  5092    	LD	HL,BC
012CB9 DD07FC              A  5093    	LD	BC,(IX+-4)
012CBC DD7EFF              A  5094    	LD	A,(IX+-1)
012CBF CD 0B 6E 01         A  5095    	CALL	__ladd
012CC3 DD2FFC              A  5096    	LD	(IX+-4),HL
Zilog eZ80 Macro Assembler Version 4.1 (10060805) RELISTED26-Aug-11     11:07:39     page:  99


PC     Object              I  Line    Source C:\Users\fog76\Desktop\CHFIGH~2\Debug\main.src
012CC6 DD73FF              A  5097    	LD	(IX+-1),E
012CC9 DD07F9              A  5098    	LD	BC,(IX+-7)
012CCC 03                  A  5099    	INC	BC
012CCD DD0FF9              A  5100    	LD	(IX+-7),BC
012CD0 DD17F6              A  5101    	LD	DE,(IX+-10)
012CD3 1B                  A  5102    	DEC	DE
012CD4 DD1FF6              A  5103    	LD	(IX+-10),DE
012CD7 DD27FC              A  5104    	LD	HL,(IX+-4)
012CDA DD5EFF              A  5105    	LD	E,(IX+-1)
012CDD CD AB 71 01         A  5106    	CALL	__itol
012CE1 CD 0B 6E 01         A  5107    	CALL	__ladd
012CE5 DD2FFC              A  5108    	LD	(IX+-4),HL
012CE8 DD73FF              A  5109    	LD	(IX+-1),E
012CEB DD27F6              A  5110    	LD	HL,(IX+-10)
012CEE 29                  A  5111    	ADD	HL,HL
012CEF 29                  A  5112    	ADD	HL,HL
012CF0 DD07F6              A  5113    	LD	BC,(IX+-10)
012CF3 09                  A  5114    	ADD	HL,BC
012CF4 29                  A  5115    	ADD	HL,HL
012CF5 E5C1                A  5116    	LD	BC,HL
012CF7 CD AB 71 01         A  5117    	CALL	__itol
012CFB 5F                  A  5118    	LD	E,A
012CFC C5E1                A  5119    	LD	HL,BC
012CFE DD07FC              A  5120    	LD	BC,(IX+-4)
012D01 DD7EFF              A  5121    	LD	A,(IX+-1)
012D04 CD 0B 6E 01         A  5122    	CALL	__ladd
012D08 DD2FFC              A  5123    	LD	(IX+-4),HL
012D0B DD73FF              A  5124    	LD	(IX+-1),E
012D0E DD4EFF              A  5125    	LD	C,(IX+-1)
012D11 0600                A  5126    	LD	B,0
012D13 C5                  A  5127    	PUSH	BC
012D14 DD07FC              A  5128    	LD	BC,(IX+-4)
012D17 C5                  A  5129    	PUSH	BC
012D18 CD 98 1E 01         A  5130    	CALL	_mossaimposs
012D1C C1                  A  5131    	POP	BC
012D1D C1                  A  5132    	POP	BC
012D1E DD2FED              A  5133    	LD	(IX+-19),HL
012D21 01020000            A  5134    	LD	BC,2
012D25 B7                  A  5135    	OR	A,A
012D26 ED42                A  5136    	SBC	HL,BC
012D28 CA 4E 2E 01         A  5137    	JR	Z,L_374
012D2C DD27FC              A  5138    	LD	HL,(IX+-4)
012D2F DD5EFF              A  5139    	LD	E,(IX+-1)
012D32 010A0000            A  5140    	LD	BC,10
012D36 AF                  A  5141    	XOR	A,A
012D37 CD 60 70 01         A  5142    	CALL	__ldivu
012D3B 010A0000            A  5143    	LD	BC,10
012D3F AF                  A  5144    	XOR	A,A
012D40 CD 1D 72 01         A  5145    	CALL	__lremu
012D44 01280000            A  5146    	LD	BC,40
012D48 AF                  A  5147    	XOR	A,A
012D49 CD 60 72 01         A  5148    	CALL	__lmulu
Zilog eZ80 Macro Assembler Version 4.1 (10060805) RELISTED26-Aug-11     11:07:39     page: 100


PC     Object              I  Line    Source C:\Users\fog76\Desktop\CHFIGH~2\Debug\main.src
012D4D 01 D5 75 01         A  5149    	LD	BC,_scac
012D51 09                  A  5150    	ADD	HL,BC
012D52 DD2FA9              A  5151    	LD	(IX+-87),HL	; spill
012D55 DD27FC              A  5152    	LD	HL,(IX+-4)
012D58 DD5EFF              A  5153    	LD	E,(IX+-1)
012D5B 010A0000            A  5154    	LD	BC,10
012D5F AF                  A  5155    	XOR	A,A
012D60 CD 1D 72 01         A  5156    	CALL	__lremu
012D64 01040000            A  5157    	LD	BC,4
012D68 AF                  A  5158    	XOR	A,A
012D69 CD 60 72 01         A  5159    	CALL	__lmulu
012D6D DD07A9              A  5160    	LD	BC,(IX+-87)	; unspill
012D70 09                  A  5161    	ADD	HL,BC
012D71 E5FDE1              A  5162    	LD	IY,HL
012D74 FD2700              A  5163    	LD	HL,(IY)
012D77 FD5E03              A  5164    	LD	E,(IY+3)
012D7A 01102700            A  5165    	LD	BC,10000
012D7E AF                  A  5166    	XOR	A,A
012D7F CD 60 72 01         A  5167    	CALL	__lmuls
012D83 DD07FC              A  5168    	LD	BC,(IX+-4)
012D86 DD7EFF              A  5169    	LD	A,(IX+-1)
012D89 CD 0B 6E 01         A  5170    	CALL	__ladd
012D8D DD2FFC              A  5171    	LD	(IX+-4),HL
012D90 DD73FF              A  5172    	LD	(IX+-1),E
012D93 DD27FC              A  5173    	LD	HL,(IX+-4)
012D96 DD5EFF              A  5174    	LD	E,(IX+-1)
012D99 01E80300            A  5175    	LD	BC,1000
012D9D AF                  A  5176    	XOR	A,A
012D9E CD 60 70 01         A  5177    	CALL	__ldivu
012DA2 010A0000            A  5178    	LD	BC,10
012DA6 AF                  A  5179    	XOR	A,A
012DA7 CD 1D 72 01         A  5180    	CALL	__lremu
012DAB 01280000            A  5181    	LD	BC,40
012DAF AF                  A  5182    	XOR	A,A
012DB0 CD 60 72 01         A  5183    	CALL	__lmulu
012DB4 01 D5 75 01         A  5184    	LD	BC,_scac
012DB8 09                  A  5185    	ADD	HL,BC
012DB9 DD2FA6              A  5186    	LD	(IX+-90),HL	; spill
012DBC DD27FC              A  5187    	LD	HL,(IX+-4)
012DBF DD5EFF              A  5188    	LD	E,(IX+-1)
012DC2 01640000            A  5189    	LD	BC,100
012DC6 AF                  A  5190    	XOR	A,A
012DC7 CD 60 70 01         A  5191    	CALL	__ldivu
012DCB 010A0000            A  5192    	LD	BC,10
012DCF AF                  A  5193    	XOR	A,A
012DD0 CD 1D 72 01         A  5194    	CALL	__lremu
012DD4 01040000            A  5195    	LD	BC,4
012DD8 AF                  A  5196    	XOR	A,A
012DD9 CD 60 72 01         A  5197    	CALL	__lmulu
012DDD DD07A6              A  5198    	LD	BC,(IX+-90)	; unspill
012DE0 09                  A  5199    	ADD	HL,BC
012DE1 E5FDE1              A  5200    	LD	IY,HL
Zilog eZ80 Macro Assembler Version 4.1 (10060805) RELISTED26-Aug-11     11:07:39     page: 101


PC     Object              I  Line    Source C:\Users\fog76\Desktop\CHFIGH~2\Debug\main.src
012DE4 FD2700              A  5201    	LD	HL,(IY)
012DE7 FD5E03              A  5202    	LD	E,(IY+3)
012DEA 0140420F            A  5203    	LD	BC,1000000
012DEE AF                  A  5204    	XOR	A,A
012DEF CD 60 72 01         A  5205    	CALL	__lmuls
012DF3 DD07FC              A  5206    	LD	BC,(IX+-4)
012DF6 DD7EFF              A  5207    	LD	A,(IX+-1)
012DF9 CD 0B 6E 01         A  5208    	CALL	__ladd
012DFD DD2FFC              A  5209    	LD	(IX+-4),HL
012E00 DD73FF              A  5210    	LD	(IX+-1),E
012E03 2A EB 7F 01         A  5211    	LD	HL,(_prof)
012E07 3A EE 7F 01         A  5212    	LD	A,(_prof+3)
012E0B 5F                  A  5213    	LD	E,A
012E0C AF                  A  5214    	XOR	A,A
012E0D 01000000            A  5215    	LD	BC,0
012E11 CD B2 71 01         A  5216    	CALL	__lcmps
012E15 20 0F               A  5217    	JR	NZ,L_371
012E17 DD07FC              A  5218    	LD	BC,(IX+-4)
012E1A ED43 DC 7F 01       A  5219    	LD	(_mossa_in_analisi),BC
012E1F DD7EFF              A  5220    	LD	A,(IX+-1)
012E22 32 DF 7F 01         A  5221    	LD	(_mossa_in_analisi+3),A
012E26                     A  5222    L_371:
012E26 DD7E06              A  5223    	LD	A,(IX+6)
012E29 B7                  A  5224    	OR	A,A
012E2A 20 12               A  5225    	JR	NZ,L_370
012E2C DD4EFF              A  5226    	LD	C,(IX+-1)
012E2F 0600                A  5227    	LD	B,0
012E31 C5                  A  5228    	PUSH	BC
012E32 DD07FC              A  5229    	LD	BC,(IX+-4)
012E35 C5                  A  5230    	PUSH	BC
012E36 CD 03 08 01         A  5231    	CALL	_sceglimossa
012E3A C1                  A  5232    	POP	BC
012E3B C1                  A  5233    	POP	BC
012E3C 18 10               A  5234    	JR	L_374
012E3E                     A  5235    L_370:
012E3E DD4EFF              A  5236    	LD	C,(IX+-1)
012E41 0600                A  5237    	LD	B,0
012E43 C5                  A  5238    	PUSH	BC
012E44 DD07FC              A  5239    	LD	BC,(IX+-4)
012E47 C5                  A  5240    	PUSH	BC
012E48 CD 3D 06 01         A  5241    	CALL	_raccogli
012E4C C1                  A  5242    	POP	BC
012E4D C1                  A  5243    	POP	BC
012E4E                     A  5244    L_374:
012E4E 01000000            A  5245    	LD	BC,0
012E52 DD27ED              A  5246    	LD	HL,(IX+-19)
012E55 B7                  A  5247    	OR	A,A
012E56 ED42                A  5248    	SBC	HL,BC
012E58 CA 79 2C 01         A  5249    	JR	Z,L_373
012E5C DD07F0              A  5250    	LD	BC,(IX+-16)
012E5F DD0FF6              A  5251    	LD	(IX+-10),BC
012E62 DD07F3              A  5252    	LD	BC,(IX+-13)
Zilog eZ80 Macro Assembler Version 4.1 (10060805) RELISTED26-Aug-11     11:07:39     page: 102


PC     Object              I  Line    Source C:\Users\fog76\Desktop\CHFIGH~2\Debug\main.src
012E65 DD0FF9              A  5253    	LD	(IX+-7),BC
012E68                     A  5254    L_381:
012E68 DD27F0              A  5255    	LD	HL,(IX+-16)
012E6B 29                  A  5256    	ADD	HL,HL
012E6C 29                  A  5257    	ADD	HL,HL
012E6D 29                  A  5258    	ADD	HL,HL
012E6E 29                  A  5259    	ADD	HL,HL
012E6F 29                  A  5260    	ADD	HL,HL
012E70 B7                  A  5261    	OR	A,A
012E71 DD07F0              A  5262    	LD	BC,(IX+-16)
012E74 ED42                A  5263    	SBC	HL,BC
012E76 29                  A  5264    	ADD	HL,HL
012E77 29                  A  5265    	ADD	HL,HL
012E78 DD07F0              A  5266    	LD	BC,(IX+-16)
012E7B 09                  A  5267    	ADD	HL,BC
012E7C 29                  A  5268    	ADD	HL,HL
012E7D 29                  A  5269    	ADD	HL,HL
012E7E 29                  A  5270    	ADD	HL,HL
012E7F E5C1                A  5271    	LD	BC,HL
012E81 CD AB 71 01         A  5272    	CALL	__itol
012E85 DD0FFC              A  5273    	LD	(IX+-4),BC
012E88 DD77FF              A  5274    	LD	(IX+-1),A
012E8B DD27F3              A  5275    	LD	HL,(IX+-13)
012E8E 29                  A  5276    	ADD	HL,HL
012E8F 29                  A  5277    	ADD	HL,HL
012E90 B7                  A  5278    	OR	A,A
012E91 DD07F3              A  5279    	LD	BC,(IX+-13)
012E94 ED42                A  5280    	SBC	HL,BC
012E96 29                  A  5281    	ADD	HL,HL
012E97 29                  A  5282    	ADD	HL,HL
012E98 29                  A  5283    	ADD	HL,HL
012E99 DD07F3              A  5284    	LD	BC,(IX+-13)
012E9C 09                  A  5285    	ADD	HL,BC
012E9D 29                  A  5286    	ADD	HL,HL
012E9E 29                  A  5287    	ADD	HL,HL
012E9F E5C1                A  5288    	LD	BC,HL
012EA1 CD AB 71 01         A  5289    	CALL	__itol
012EA5 5F                  A  5290    	LD	E,A
012EA6 C5E1                A  5291    	LD	HL,BC
012EA8 DD07FC              A  5292    	LD	BC,(IX+-4)
012EAB DD7EFF              A  5293    	LD	A,(IX+-1)
012EAE CD 0B 6E 01         A  5294    	CALL	__ladd
012EB2 DD2FFC              A  5295    	LD	(IX+-4),HL
012EB5 DD73FF              A  5296    	LD	(IX+-1),E
012EB8 DD07F9              A  5297    	LD	BC,(IX+-7)
012EBB 0B                  A  5298    	DEC	BC
012EBC DD0FF9              A  5299    	LD	(IX+-7),BC
012EBF DD17F6              A  5300    	LD	DE,(IX+-10)
012EC2 13                  A  5301    	INC	DE
012EC3 DD1FF6              A  5302    	LD	(IX+-10),DE
012EC6 DD27FC              A  5303    	LD	HL,(IX+-4)
012EC9 DD5EFF              A  5304    	LD	E,(IX+-1)
Zilog eZ80 Macro Assembler Version 4.1 (10060805) RELISTED26-Aug-11     11:07:39     page: 103


PC     Object              I  Line    Source C:\Users\fog76\Desktop\CHFIGH~2\Debug\main.src
012ECC CD AB 71 01         A  5305    	CALL	__itol
012ED0 CD 0B 6E 01         A  5306    	CALL	__ladd
012ED4 DD2FFC              A  5307    	LD	(IX+-4),HL
012ED7 DD73FF              A  5308    	LD	(IX+-1),E
012EDA DD27F6              A  5309    	LD	HL,(IX+-10)
012EDD 29                  A  5310    	ADD	HL,HL
012EDE 29                  A  5311    	ADD	HL,HL
012EDF DD07F6              A  5312    	LD	BC,(IX+-10)
012EE2 09                  A  5313    	ADD	HL,BC
012EE3 29                  A  5314    	ADD	HL,HL
012EE4 E5C1                A  5315    	LD	BC,HL
012EE6 CD AB 71 01         A  5316    	CALL	__itol
012EEA 5F                  A  5317    	LD	E,A
012EEB C5E1                A  5318    	LD	HL,BC
012EED DD07FC              A  5319    	LD	BC,(IX+-4)
012EF0 DD7EFF              A  5320    	LD	A,(IX+-1)
012EF3 CD 0B 6E 01         A  5321    	CALL	__ladd
012EF7 DD2FFC              A  5322    	LD	(IX+-4),HL
012EFA DD73FF              A  5323    	LD	(IX+-1),E
012EFD DD4EFF              A  5324    	LD	C,(IX+-1)
012F00 0600                A  5325    	LD	B,0
012F02 C5                  A  5326    	PUSH	BC
012F03 DD07FC              A  5327    	LD	BC,(IX+-4)
012F06 C5                  A  5328    	PUSH	BC
012F07 CD 98 1E 01         A  5329    	CALL	_mossaimposs
012F0B C1                  A  5330    	POP	BC
012F0C C1                  A  5331    	POP	BC
012F0D DD2FED              A  5332    	LD	(IX+-19),HL
012F10 01020000            A  5333    	LD	BC,2
012F14 B7                  A  5334    	OR	A,A
012F15 ED42                A  5335    	SBC	HL,BC
012F17 CA 3D 30 01         A  5336    	JR	Z,L_382
012F1B DD27FC              A  5337    	LD	HL,(IX+-4)
012F1E DD5EFF              A  5338    	LD	E,(IX+-1)
012F21 010A0000            A  5339    	LD	BC,10
012F25 AF                  A  5340    	XOR	A,A
012F26 CD 60 70 01         A  5341    	CALL	__ldivu
012F2A 010A0000            A  5342    	LD	BC,10
012F2E AF                  A  5343    	XOR	A,A
012F2F CD 1D 72 01         A  5344    	CALL	__lremu
012F33 01280000            A  5345    	LD	BC,40
012F37 AF                  A  5346    	XOR	A,A
012F38 CD 60 72 01         A  5347    	CALL	__lmulu
012F3C 01 D5 75 01         A  5348    	LD	BC,_scac
012F40 09                  A  5349    	ADD	HL,BC
012F41 DD2FAF              A  5350    	LD	(IX+-81),HL	; spill
012F44 DD27FC              A  5351    	LD	HL,(IX+-4)
012F47 DD5EFF              A  5352    	LD	E,(IX+-1)
012F4A 010A0000            A  5353    	LD	BC,10
012F4E AF                  A  5354    	XOR	A,A
012F4F CD 1D 72 01         A  5355    	CALL	__lremu
012F53 01040000            A  5356    	LD	BC,4
Zilog eZ80 Macro Assembler Version 4.1 (10060805) RELISTED26-Aug-11     11:07:39     page: 104


PC     Object              I  Line    Source C:\Users\fog76\Desktop\CHFIGH~2\Debug\main.src
012F57 AF                  A  5357    	XOR	A,A
012F58 CD 60 72 01         A  5358    	CALL	__lmulu
012F5C DD07AF              A  5359    	LD	BC,(IX+-81)	; unspill
012F5F 09                  A  5360    	ADD	HL,BC
012F60 E5FDE1              A  5361    	LD	IY,HL
012F63 FD2700              A  5362    	LD	HL,(IY)
012F66 FD5E03              A  5363    	LD	E,(IY+3)
012F69 01102700            A  5364    	LD	BC,10000
012F6D AF                  A  5365    	XOR	A,A
012F6E CD 60 72 01         A  5366    	CALL	__lmuls
012F72 DD07FC              A  5367    	LD	BC,(IX+-4)
012F75 DD7EFF              A  5368    	LD	A,(IX+-1)
012F78 CD 0B 6E 01         A  5369    	CALL	__ladd
012F7C DD2FFC              A  5370    	LD	(IX+-4),HL
012F7F DD73FF              A  5371    	LD	(IX+-1),E
012F82 DD27FC              A  5372    	LD	HL,(IX+-4)
012F85 DD5EFF              A  5373    	LD	E,(IX+-1)
012F88 01E80300            A  5374    	LD	BC,1000
012F8C AF                  A  5375    	XOR	A,A
012F8D CD 60 70 01         A  5376    	CALL	__ldivu
012F91 010A0000            A  5377    	LD	BC,10
012F95 AF                  A  5378    	XOR	A,A
012F96 CD 1D 72 01         A  5379    	CALL	__lremu
012F9A 01280000            A  5380    	LD	BC,40
012F9E AF                  A  5381    	XOR	A,A
012F9F CD 60 72 01         A  5382    	CALL	__lmulu
012FA3 01 D5 75 01         A  5383    	LD	BC,_scac
012FA7 09                  A  5384    	ADD	HL,BC
012FA8 DD2FAC              A  5385    	LD	(IX+-84),HL	; spill
012FAB DD27FC              A  5386    	LD	HL,(IX+-4)
012FAE DD5EFF              A  5387    	LD	E,(IX+-1)
012FB1 01640000            A  5388    	LD	BC,100
012FB5 AF                  A  5389    	XOR	A,A
012FB6 CD 60 70 01         A  5390    	CALL	__ldivu
012FBA 010A0000            A  5391    	LD	BC,10
012FBE AF                  A  5392    	XOR	A,A
012FBF CD 1D 72 01         A  5393    	CALL	__lremu
012FC3 01040000            A  5394    	LD	BC,4
012FC7 AF                  A  5395    	XOR	A,A
012FC8 CD 60 72 01         A  5396    	CALL	__lmulu
012FCC DD07AC              A  5397    	LD	BC,(IX+-84)	; unspill
012FCF 09                  A  5398    	ADD	HL,BC
012FD0 E5FDE1              A  5399    	LD	IY,HL
012FD3 FD2700              A  5400    	LD	HL,(IY)
012FD6 FD5E03              A  5401    	LD	E,(IY+3)
012FD9 0140420F            A  5402    	LD	BC,1000000
012FDD AF                  A  5403    	XOR	A,A
012FDE CD 60 72 01         A  5404    	CALL	__lmuls
012FE2 DD07FC              A  5405    	LD	BC,(IX+-4)
012FE5 DD7EFF              A  5406    	LD	A,(IX+-1)
012FE8 CD 0B 6E 01         A  5407    	CALL	__ladd
012FEC DD2FFC              A  5408    	LD	(IX+-4),HL
Zilog eZ80 Macro Assembler Version 4.1 (10060805) RELISTED26-Aug-11     11:07:39     page: 105


PC     Object              I  Line    Source C:\Users\fog76\Desktop\CHFIGH~2\Debug\main.src
012FEF DD73FF              A  5409    	LD	(IX+-1),E
012FF2 2A EB 7F 01         A  5410    	LD	HL,(_prof)
012FF6 3A EE 7F 01         A  5411    	LD	A,(_prof+3)
012FFA 5F                  A  5412    	LD	E,A
012FFB AF                  A  5413    	XOR	A,A
012FFC 01000000            A  5414    	LD	BC,0
013000 CD B2 71 01         A  5415    	CALL	__lcmps
013004 20 0F               A  5416    	JR	NZ,L_379
013006 DD07FC              A  5417    	LD	BC,(IX+-4)
013009 ED43 DC 7F 01       A  5418    	LD	(_mossa_in_analisi),BC
01300E DD7EFF              A  5419    	LD	A,(IX+-1)
013011 32 DF 7F 01         A  5420    	LD	(_mossa_in_analisi+3),A
013015                     A  5421    L_379:
013015 DD7E06              A  5422    	LD	A,(IX+6)
013018 B7                  A  5423    	OR	A,A
013019 20 12               A  5424    	JR	NZ,L_378
01301B DD4EFF              A  5425    	LD	C,(IX+-1)
01301E 0600                A  5426    	LD	B,0
013020 C5                  A  5427    	PUSH	BC
013021 DD07FC              A  5428    	LD	BC,(IX+-4)
013024 C5                  A  5429    	PUSH	BC
013025 CD 03 08 01         A  5430    	CALL	_sceglimossa
013029 C1                  A  5431    	POP	BC
01302A C1                  A  5432    	POP	BC
01302B 18 10               A  5433    	JR	L_382
01302D                     A  5434    L_378:
01302D DD4EFF              A  5435    	LD	C,(IX+-1)
013030 0600                A  5436    	LD	B,0
013032 C5                  A  5437    	PUSH	BC
013033 DD07FC              A  5438    	LD	BC,(IX+-4)
013036 C5                  A  5439    	PUSH	BC
013037 CD 3D 06 01         A  5440    	CALL	_raccogli
01303B C1                  A  5441    	POP	BC
01303C C1                  A  5442    	POP	BC
01303D                     A  5443    L_382:
01303D 01000000            A  5444    	LD	BC,0
013041 DD27ED              A  5445    	LD	HL,(IX+-19)
013044 B7                  A  5446    	OR	A,A
013045 ED42                A  5447    	SBC	HL,BC
013047 CA 68 2E 01         A  5448    	JR	Z,L_381
01304B DD07F0              A  5449    	LD	BC,(IX+-16)
01304E DD0FF6              A  5450    	LD	(IX+-10),BC
013051 DD07F3              A  5451    	LD	BC,(IX+-13)
013054 DD0FF9              A  5452    	LD	(IX+-7),BC
013057                     A  5453    L_389:
013057 DD27F0              A  5454    	LD	HL,(IX+-16)
01305A 29                  A  5455    	ADD	HL,HL
01305B 29                  A  5456    	ADD	HL,HL
01305C 29                  A  5457    	ADD	HL,HL
01305D 29                  A  5458    	ADD	HL,HL
01305E 29                  A  5459    	ADD	HL,HL
01305F B7                  A  5460    	OR	A,A
Zilog eZ80 Macro Assembler Version 4.1 (10060805) RELISTED26-Aug-11     11:07:39     page: 106


PC     Object              I  Line    Source C:\Users\fog76\Desktop\CHFIGH~2\Debug\main.src
013060 DD07F0              A  5461    	LD	BC,(IX+-16)
013063 ED42                A  5462    	SBC	HL,BC
013065 29                  A  5463    	ADD	HL,HL
013066 29                  A  5464    	ADD	HL,HL
013067 DD07F0              A  5465    	LD	BC,(IX+-16)
01306A 09                  A  5466    	ADD	HL,BC
01306B 29                  A  5467    	ADD	HL,HL
01306C 29                  A  5468    	ADD	HL,HL
01306D 29                  A  5469    	ADD	HL,HL
01306E E5C1                A  5470    	LD	BC,HL
013070 CD AB 71 01         A  5471    	CALL	__itol
013074 DD0FFC              A  5472    	LD	(IX+-4),BC
013077 DD77FF              A  5473    	LD	(IX+-1),A
01307A DD27F3              A  5474    	LD	HL,(IX+-13)
01307D 29                  A  5475    	ADD	HL,HL
01307E 29                  A  5476    	ADD	HL,HL
01307F B7                  A  5477    	OR	A,A
013080 DD07F3              A  5478    	LD	BC,(IX+-13)
013083 ED42                A  5479    	SBC	HL,BC
013085 29                  A  5480    	ADD	HL,HL
013086 29                  A  5481    	ADD	HL,HL
013087 29                  A  5482    	ADD	HL,HL
013088 DD07F3              A  5483    	LD	BC,(IX+-13)
01308B 09                  A  5484    	ADD	HL,BC
01308C 29                  A  5485    	ADD	HL,HL
01308D 29                  A  5486    	ADD	HL,HL
01308E E5C1                A  5487    	LD	BC,HL
013090 CD AB 71 01         A  5488    	CALL	__itol
013094 5F                  A  5489    	LD	E,A
013095 C5E1                A  5490    	LD	HL,BC
013097 DD07FC              A  5491    	LD	BC,(IX+-4)
01309A DD7EFF              A  5492    	LD	A,(IX+-1)
01309D CD 0B 6E 01         A  5493    	CALL	__ladd
0130A1 DD2FFC              A  5494    	LD	(IX+-4),HL
0130A4 DD73FF              A  5495    	LD	(IX+-1),E
0130A7 DD07F9              A  5496    	LD	BC,(IX+-7)
0130AA 0B                  A  5497    	DEC	BC
0130AB DD0FF9              A  5498    	LD	(IX+-7),BC
0130AE DD17F6              A  5499    	LD	DE,(IX+-10)
0130B1 1B                  A  5500    	DEC	DE
0130B2 DD1FF6              A  5501    	LD	(IX+-10),DE
0130B5 DD27FC              A  5502    	LD	HL,(IX+-4)
0130B8 DD5EFF              A  5503    	LD	E,(IX+-1)
0130BB CD AB 71 01         A  5504    	CALL	__itol
0130BF CD 0B 6E 01         A  5505    	CALL	__ladd
0130C3 DD2FFC              A  5506    	LD	(IX+-4),HL
0130C6 DD73FF              A  5507    	LD	(IX+-1),E
0130C9 DD27F6              A  5508    	LD	HL,(IX+-10)
0130CC 29                  A  5509    	ADD	HL,HL
0130CD 29                  A  5510    	ADD	HL,HL
0130CE DD07F6              A  5511    	LD	BC,(IX+-10)
0130D1 09                  A  5512    	ADD	HL,BC
Zilog eZ80 Macro Assembler Version 4.1 (10060805) RELISTED26-Aug-11     11:07:39     page: 107


PC     Object              I  Line    Source C:\Users\fog76\Desktop\CHFIGH~2\Debug\main.src
0130D2 29                  A  5513    	ADD	HL,HL
0130D3 E5C1                A  5514    	LD	BC,HL
0130D5 CD AB 71 01         A  5515    	CALL	__itol
0130D9 5F                  A  5516    	LD	E,A
0130DA C5E1                A  5517    	LD	HL,BC
0130DC DD07FC              A  5518    	LD	BC,(IX+-4)
0130DF DD7EFF              A  5519    	LD	A,(IX+-1)
0130E2 CD 0B 6E 01         A  5520    	CALL	__ladd
0130E6 DD2FFC              A  5521    	LD	(IX+-4),HL
0130E9 DD73FF              A  5522    	LD	(IX+-1),E
0130EC DD4EFF              A  5523    	LD	C,(IX+-1)
0130EF 0600                A  5524    	LD	B,0
0130F1 C5                  A  5525    	PUSH	BC
0130F2 DD07FC              A  5526    	LD	BC,(IX+-4)
0130F5 C5                  A  5527    	PUSH	BC
0130F6 CD 98 1E 01         A  5528    	CALL	_mossaimposs
0130FA C1                  A  5529    	POP	BC
0130FB C1                  A  5530    	POP	BC
0130FC DD2FED              A  5531    	LD	(IX+-19),HL
0130FF 01020000            A  5532    	LD	BC,2
013103 B7                  A  5533    	OR	A,A
013104 ED42                A  5534    	SBC	HL,BC
013106 CA 2C 32 01         A  5535    	JR	Z,L_390
01310A DD27FC              A  5536    	LD	HL,(IX+-4)
01310D DD5EFF              A  5537    	LD	E,(IX+-1)
013110 010A0000            A  5538    	LD	BC,10
013114 AF                  A  5539    	XOR	A,A
013115 CD 60 70 01         A  5540    	CALL	__ldivu
013119 010A0000            A  5541    	LD	BC,10
01311D AF                  A  5542    	XOR	A,A
01311E CD 1D 72 01         A  5543    	CALL	__lremu
013122 01280000            A  5544    	LD	BC,40
013126 AF                  A  5545    	XOR	A,A
013127 CD 60 72 01         A  5546    	CALL	__lmulu
01312B 01 D5 75 01         A  5547    	LD	BC,_scac
01312F 09                  A  5548    	ADD	HL,BC
013130 DD2FB5              A  5549    	LD	(IX+-75),HL	; spill
013133 DD27FC              A  5550    	LD	HL,(IX+-4)
013136 DD5EFF              A  5551    	LD	E,(IX+-1)
013139 010A0000            A  5552    	LD	BC,10
01313D AF                  A  5553    	XOR	A,A
01313E CD 1D 72 01         A  5554    	CALL	__lremu
013142 01040000            A  5555    	LD	BC,4
013146 AF                  A  5556    	XOR	A,A
013147 CD 60 72 01         A  5557    	CALL	__lmulu
01314B DD07B5              A  5558    	LD	BC,(IX+-75)	; unspill
01314E 09                  A  5559    	ADD	HL,BC
01314F E5FDE1              A  5560    	LD	IY,HL
013152 FD2700              A  5561    	LD	HL,(IY)
013155 FD5E03              A  5562    	LD	E,(IY+3)
013158 01102700            A  5563    	LD	BC,10000
01315C AF                  A  5564    	XOR	A,A
Zilog eZ80 Macro Assembler Version 4.1 (10060805) RELISTED26-Aug-11     11:07:39     page: 108


PC     Object              I  Line    Source C:\Users\fog76\Desktop\CHFIGH~2\Debug\main.src
01315D CD 60 72 01         A  5565    	CALL	__lmuls
013161 DD07FC              A  5566    	LD	BC,(IX+-4)
013164 DD7EFF              A  5567    	LD	A,(IX+-1)
013167 CD 0B 6E 01         A  5568    	CALL	__ladd
01316B DD2FFC              A  5569    	LD	(IX+-4),HL
01316E DD73FF              A  5570    	LD	(IX+-1),E
013171 DD27FC              A  5571    	LD	HL,(IX+-4)
013174 DD5EFF              A  5572    	LD	E,(IX+-1)
013177 01E80300            A  5573    	LD	BC,1000
01317B AF                  A  5574    	XOR	A,A
01317C CD 60 70 01         A  5575    	CALL	__ldivu
013180 010A0000            A  5576    	LD	BC,10
013184 AF                  A  5577    	XOR	A,A
013185 CD 1D 72 01         A  5578    	CALL	__lremu
013189 01280000            A  5579    	LD	BC,40
01318D AF                  A  5580    	XOR	A,A
01318E CD 60 72 01         A  5581    	CALL	__lmulu
013192 01 D5 75 01         A  5582    	LD	BC,_scac
013196 09                  A  5583    	ADD	HL,BC
013197 DD2FB2              A  5584    	LD	(IX+-78),HL	; spill
01319A DD27FC              A  5585    	LD	HL,(IX+-4)
01319D DD5EFF              A  5586    	LD	E,(IX+-1)
0131A0 01640000            A  5587    	LD	BC,100
0131A4 AF                  A  5588    	XOR	A,A
0131A5 CD 60 70 01         A  5589    	CALL	__ldivu
0131A9 010A0000            A  5590    	LD	BC,10
0131AD AF                  A  5591    	XOR	A,A
0131AE CD 1D 72 01         A  5592    	CALL	__lremu
0131B2 01040000            A  5593    	LD	BC,4
0131B6 AF                  A  5594    	XOR	A,A
0131B7 CD 60 72 01         A  5595    	CALL	__lmulu
0131BB DD07B2              A  5596    	LD	BC,(IX+-78)	; unspill
0131BE 09                  A  5597    	ADD	HL,BC
0131BF E5FDE1              A  5598    	LD	IY,HL
0131C2 FD2700              A  5599    	LD	HL,(IY)
0131C5 FD5E03              A  5600    	LD	E,(IY+3)
0131C8 0140420F            A  5601    	LD	BC,1000000
0131CC AF                  A  5602    	XOR	A,A
0131CD CD 60 72 01         A  5603    	CALL	__lmuls
0131D1 DD07FC              A  5604    	LD	BC,(IX+-4)
0131D4 DD7EFF              A  5605    	LD	A,(IX+-1)
0131D7 CD 0B 6E 01         A  5606    	CALL	__ladd
0131DB DD2FFC              A  5607    	LD	(IX+-4),HL
0131DE DD73FF              A  5608    	LD	(IX+-1),E
0131E1 2A EB 7F 01         A  5609    	LD	HL,(_prof)
0131E5 3A EE 7F 01         A  5610    	LD	A,(_prof+3)
0131E9 5F                  A  5611    	LD	E,A
0131EA AF                  A  5612    	XOR	A,A
0131EB 01000000            A  5613    	LD	BC,0
0131EF CD B2 71 01         A  5614    	CALL	__lcmps
0131F3 20 0F               A  5615    	JR	NZ,L_387
0131F5 DD07FC              A  5616    	LD	BC,(IX+-4)
Zilog eZ80 Macro Assembler Version 4.1 (10060805) RELISTED26-Aug-11     11:07:39     page: 109


PC     Object              I  Line    Source C:\Users\fog76\Desktop\CHFIGH~2\Debug\main.src
0131F8 ED43 DC 7F 01       A  5617    	LD	(_mossa_in_analisi),BC
0131FD DD7EFF              A  5618    	LD	A,(IX+-1)
013200 32 DF 7F 01         A  5619    	LD	(_mossa_in_analisi+3),A
013204                     A  5620    L_387:
013204 DD7E06              A  5621    	LD	A,(IX+6)
013207 B7                  A  5622    	OR	A,A
013208 20 12               A  5623    	JR	NZ,L_386
01320A DD4EFF              A  5624    	LD	C,(IX+-1)
01320D 0600                A  5625    	LD	B,0
01320F C5                  A  5626    	PUSH	BC
013210 DD07FC              A  5627    	LD	BC,(IX+-4)
013213 C5                  A  5628    	PUSH	BC
013214 CD 03 08 01         A  5629    	CALL	_sceglimossa
013218 C1                  A  5630    	POP	BC
013219 C1                  A  5631    	POP	BC
01321A 18 10               A  5632    	JR	L_390
01321C                     A  5633    L_386:
01321C DD4EFF              A  5634    	LD	C,(IX+-1)
01321F 0600                A  5635    	LD	B,0
013221 C5                  A  5636    	PUSH	BC
013222 DD07FC              A  5637    	LD	BC,(IX+-4)
013225 C5                  A  5638    	PUSH	BC
013226 CD 3D 06 01         A  5639    	CALL	_raccogli
01322A C1                  A  5640    	POP	BC
01322B C1                  A  5641    	POP	BC
01322C                     A  5642    L_390:
01322C 01000000            A  5643    	LD	BC,0
013230 DD27ED              A  5644    	LD	HL,(IX+-19)
013233 B7                  A  5645    	OR	A,A
013234 ED42                A  5646    	SBC	HL,BC
013236 CA 57 30 01         A  5647    	JR	Z,L_389
01323A                     A  5648    L_452:
01323A 01000000            A  5649    	LD	BC,0
01323E 2A E0 7F 01         A  5650    	LD	HL,(_col_prof)
013242 B7                  A  5651    	OR	A,A
013243 ED42                A  5652    	SBC	HL,BC
013245 20 2D               A  5653    	JR	NZ,L_395
013247 DD27F0              A  5654    	LD	HL,(IX+-16)
01324A 29                  A  5655    	ADD	HL,HL
01324B 29                  A  5656    	ADD	HL,HL
01324C DD07F0              A  5657    	LD	BC,(IX+-16)
01324F 09                  A  5658    	ADD	HL,BC
013250 29                  A  5659    	ADD	HL,HL
013251 29                  A  5660    	ADD	HL,HL
013252 29                  A  5661    	ADD	HL,HL
013253 01 D5 75 01         A  5662    	LD	BC,_scac
013257 09                  A  5663    	ADD	HL,BC
013258 E5C1                A  5664    	LD	BC,HL
01325A DD27F3              A  5665    	LD	HL,(IX+-13)
01325D 29                  A  5666    	ADD	HL,HL
01325E 29                  A  5667    	ADD	HL,HL
01325F 09                  A  5668    	ADD	HL,BC
Zilog eZ80 Macro Assembler Version 4.1 (10060805) RELISTED26-Aug-11     11:07:39     page: 110


PC     Object              I  Line    Source C:\Users\fog76\Desktop\CHFIGH~2\Debug\main.src
013260 E5FDE1              A  5669    	LD	IY,HL
013263 FD2700              A  5670    	LD	HL,(IY)
013266 FD5E03              A  5671    	LD	E,(IY+3)
013269 01040000            A  5672    	LD	BC,4
01326D AF                  A  5673    	XOR	A,A
01326E CD B2 71 01         A  5674    	CALL	__lcmps
013272 28 3E               A  5675    	JR	Z,L_451
013274                     A  5676    L_395:
013274 01010000            A  5677    	LD	BC,1
013278 2A E0 7F 01         A  5678    	LD	HL,(_col_prof)
01327C B7                  A  5679    	OR	A,A
01327D ED42                A  5680    	SBC	HL,BC
01327F C2 82 43 01         A  5681    	JR	NZ,L_489
013283 DD27F0              A  5682    	LD	HL,(IX+-16)
013286 29                  A  5683    	ADD	HL,HL
013287 29                  A  5684    	ADD	HL,HL
013288 DD07F0              A  5685    	LD	BC,(IX+-16)
01328B 09                  A  5686    	ADD	HL,BC
01328C 29                  A  5687    	ADD	HL,HL
01328D 29                  A  5688    	ADD	HL,HL
01328E 29                  A  5689    	ADD	HL,HL
01328F 01 D5 75 01         A  5690    	LD	BC,_scac
013293 09                  A  5691    	ADD	HL,BC
013294 E5C1                A  5692    	LD	BC,HL
013296 DD27F3              A  5693    	LD	HL,(IX+-13)
013299 29                  A  5694    	ADD	HL,HL
01329A 29                  A  5695    	ADD	HL,HL
01329B 09                  A  5696    	ADD	HL,BC
01329C E5FDE1              A  5697    	LD	IY,HL
01329F FD2700              A  5698    	LD	HL,(IY)
0132A2 FD5E03              A  5699    	LD	E,(IY+3)
0132A5 010A0000            A  5700    	LD	BC,10
0132A9 AF                  A  5701    	XOR	A,A
0132AA CD B2 71 01         A  5702    	CALL	__lcmps
0132AE C2 82 43 01         A  5703    	JR	NZ,L_489
0132B2                     A  5704    L_451:
0132B2 DD07F0              A  5705    	LD	BC,(IX+-16)
0132B5 DD0FF6              A  5706    	LD	(IX+-10),BC
0132B8 DD07F3              A  5707    	LD	BC,(IX+-13)
0132BB DD0FF9              A  5708    	LD	(IX+-7),BC
0132BE DD27F0              A  5709    	LD	HL,(IX+-16)
0132C1 29                  A  5710    	ADD	HL,HL
0132C2 29                  A  5711    	ADD	HL,HL
0132C3 29                  A  5712    	ADD	HL,HL
0132C4 29                  A  5713    	ADD	HL,HL
0132C5 29                  A  5714    	ADD	HL,HL
0132C6 B7                  A  5715    	OR	A,A
0132C7 DD07F0              A  5716    	LD	BC,(IX+-16)
0132CA ED42                A  5717    	SBC	HL,BC
0132CC 29                  A  5718    	ADD	HL,HL
0132CD 29                  A  5719    	ADD	HL,HL
0132CE DD07F0              A  5720    	LD	BC,(IX+-16)
Zilog eZ80 Macro Assembler Version 4.1 (10060805) RELISTED26-Aug-11     11:07:39     page: 111


PC     Object              I  Line    Source C:\Users\fog76\Desktop\CHFIGH~2\Debug\main.src
0132D1 09                  A  5721    	ADD	HL,BC
0132D2 29                  A  5722    	ADD	HL,HL
0132D3 29                  A  5723    	ADD	HL,HL
0132D4 29                  A  5724    	ADD	HL,HL
0132D5 E5C1                A  5725    	LD	BC,HL
0132D7 CD AB 71 01         A  5726    	CALL	__itol
0132DB DD0FFC              A  5727    	LD	(IX+-4),BC
0132DE DD77FF              A  5728    	LD	(IX+-1),A
0132E1 DD27F3              A  5729    	LD	HL,(IX+-13)
0132E4 29                  A  5730    	ADD	HL,HL
0132E5 29                  A  5731    	ADD	HL,HL
0132E6 B7                  A  5732    	OR	A,A
0132E7 DD07F3              A  5733    	LD	BC,(IX+-13)
0132EA ED42                A  5734    	SBC	HL,BC
0132EC 29                  A  5735    	ADD	HL,HL
0132ED 29                  A  5736    	ADD	HL,HL
0132EE 29                  A  5737    	ADD	HL,HL
0132EF DD07F3              A  5738    	LD	BC,(IX+-13)
0132F2 09                  A  5739    	ADD	HL,BC
0132F3 29                  A  5740    	ADD	HL,HL
0132F4 29                  A  5741    	ADD	HL,HL
0132F5 E5C1                A  5742    	LD	BC,HL
0132F7 CD AB 71 01         A  5743    	CALL	__itol
0132FB 5F                  A  5744    	LD	E,A
0132FC C5E1                A  5745    	LD	HL,BC
0132FE DD07FC              A  5746    	LD	BC,(IX+-4)
013301 DD7EFF              A  5747    	LD	A,(IX+-1)
013304 CD 0B 6E 01         A  5748    	CALL	__ladd
013308 DD2FFC              A  5749    	LD	(IX+-4),HL
01330B DD73FF              A  5750    	LD	(IX+-1),E
01330E DD31F9              A  5751    	LD	IY,(IX+-7)
013311 ED0302              A  5752    	LEA	BC,IY+2
013314 DD0FF9              A  5753    	LD	(IX+-7),BC
013317 DD17F6              A  5754    	LD	DE,(IX+-10)
01331A 13                  A  5755    	INC	DE
01331B DD1FF6              A  5756    	LD	(IX+-10),DE
01331E DD27FC              A  5757    	LD	HL,(IX+-4)
013321 DD5EFF              A  5758    	LD	E,(IX+-1)
013324 CD AB 71 01         A  5759    	CALL	__itol
013328 CD 0B 6E 01         A  5760    	CALL	__ladd
01332C DD2FFC              A  5761    	LD	(IX+-4),HL
01332F DD73FF              A  5762    	LD	(IX+-1),E
013332 DD27F6              A  5763    	LD	HL,(IX+-10)
013335 29                  A  5764    	ADD	HL,HL
013336 29                  A  5765    	ADD	HL,HL
013337 DD07F6              A  5766    	LD	BC,(IX+-10)
01333A 09                  A  5767    	ADD	HL,BC
01333B 29                  A  5768    	ADD	HL,HL
01333C E5C1                A  5769    	LD	BC,HL
01333E CD AB 71 01         A  5770    	CALL	__itol
013342 5F                  A  5771    	LD	E,A
013343 C5E1                A  5772    	LD	HL,BC
Zilog eZ80 Macro Assembler Version 4.1 (10060805) RELISTED26-Aug-11     11:07:39     page: 112


PC     Object              I  Line    Source C:\Users\fog76\Desktop\CHFIGH~2\Debug\main.src
013345 DD07FC              A  5773    	LD	BC,(IX+-4)
013348 DD7EFF              A  5774    	LD	A,(IX+-1)
01334B CD 0B 6E 01         A  5775    	CALL	__ladd
01334F DD2FFC              A  5776    	LD	(IX+-4),HL
013352 DD73FF              A  5777    	LD	(IX+-1),E
013355 DD4EFF              A  5778    	LD	C,(IX+-1)
013358 0600                A  5779    	LD	B,0
01335A C5                  A  5780    	PUSH	BC
01335B DD07FC              A  5781    	LD	BC,(IX+-4)
01335E C5                  A  5782    	PUSH	BC
01335F C5                  A  5783    	PUSH	BC
013360 E5                  A  5784    	PUSH	HL
013361 FDE5E1              A  5785    	LD	HL,IY
013364 0125FFFF            A  5786    	LD	BC,-219
013368 CD 2A 70 01         A  5787    	CALL	__istix
01336C E1                  A  5788    	POP	HL
01336D C1                  A  5789    	POP	BC
01336E CD 98 1E 01         A  5790    	CALL	_mossaimposs
013372 C5                  A  5791    	PUSH	BC
013373 0125FFFF            A  5792    	LD	BC,-219
013377 E5                  A  5793    	PUSH	HL
013378 CD CD 72 01         A  5794    	CALL	__ildix
01337C E5FDE1              A  5795    	LD	IY,HL
01337F E1                  A  5796    	POP	HL
013380 C1                  A  5797    	POP	BC
013381 C1                  A  5798    	POP	BC
013382 C1                  A  5799    	POP	BC
013383 01020000            A  5800    	LD	BC,2
013387 B7                  A  5801    	OR	A,A
013388 ED42                A  5802    	SBC	HL,BC
01338A CA CC 34 01         A  5803    	JR	Z,L_402
01338E DD27FC              A  5804    	LD	HL,(IX+-4)
013391 DD5EFF              A  5805    	LD	E,(IX+-1)
013394 010A0000            A  5806    	LD	BC,10
013398 AF                  A  5807    	XOR	A,A
013399 CD 60 70 01         A  5808    	CALL	__ldivu
01339D 010A0000            A  5809    	LD	BC,10
0133A1 AF                  A  5810    	XOR	A,A
0133A2 CD 1D 72 01         A  5811    	CALL	__lremu
0133A6 01280000            A  5812    	LD	BC,40
0133AA AF                  A  5813    	XOR	A,A
0133AB CD 60 72 01         A  5814    	CALL	__lmulu
0133AF 01 D5 75 01         A  5815    	LD	BC,_scac
0133B3 09                  A  5816    	ADD	HL,BC
0133B4 FDE5                A  5817    	PUSH	IY
0133B6 ED5580              A  5818    	LEA	IY,IX+-128	; spill
0133B9 FD2FAB              A  5819    	LD	(IY+-85),HL	; spill
0133BC FDE1                A  5820    	POP	IY
0133BE DD27FC              A  5821    	LD	HL,(IX+-4)
0133C1 DD5EFF              A  5822    	LD	E,(IX+-1)
0133C4 010A0000            A  5823    	LD	BC,10
0133C8 AF                  A  5824    	XOR	A,A
Zilog eZ80 Macro Assembler Version 4.1 (10060805) RELISTED26-Aug-11     11:07:39     page: 113


PC     Object              I  Line    Source C:\Users\fog76\Desktop\CHFIGH~2\Debug\main.src
0133C9 CD 1D 72 01         A  5825    	CALL	__lremu
0133CD 01040000            A  5826    	LD	BC,4
0133D1 AF                  A  5827    	XOR	A,A
0133D2 CD 60 72 01         A  5828    	CALL	__lmulu
0133D6 FDE5                A  5829    	PUSH	IY
0133D8 ED5580              A  5830    	LEA	IY,IX+-128	; unspill
0133DB FD07AB              A  5831    	LD	BC,(IY+-85)
0133DE FDE1                A  5832    	POP	IY
0133E0 09                  A  5833    	ADD	HL,BC
0133E1 E5FDE1              A  5834    	LD	IY,HL
0133E4 FD2700              A  5835    	LD	HL,(IY)
0133E7 FD5E03              A  5836    	LD	E,(IY+3)
0133EA 01102700            A  5837    	LD	BC,10000
0133EE AF                  A  5838    	XOR	A,A
0133EF CD 60 72 01         A  5839    	CALL	__lmuls
0133F3 DD07FC              A  5840    	LD	BC,(IX+-4)
0133F6 DD7EFF              A  5841    	LD	A,(IX+-1)
0133F9 CD 0B 6E 01         A  5842    	CALL	__ladd
0133FD DD2FFC              A  5843    	LD	(IX+-4),HL
013400 DD73FF              A  5844    	LD	(IX+-1),E
013403 DD27FC              A  5845    	LD	HL,(IX+-4)
013406 DD5EFF              A  5846    	LD	E,(IX+-1)
013409 01E80300            A  5847    	LD	BC,1000
01340D AF                  A  5848    	XOR	A,A
01340E CD 60 70 01         A  5849    	CALL	__ldivu
013412 010A0000            A  5850    	LD	BC,10
013416 AF                  A  5851    	XOR	A,A
013417 CD 1D 72 01         A  5852    	CALL	__lremu
01341B 01280000            A  5853    	LD	BC,40
01341F AF                  A  5854    	XOR	A,A
013420 CD 60 72 01         A  5855    	CALL	__lmulu
013424 01 D5 75 01         A  5856    	LD	BC,_scac
013428 09                  A  5857    	ADD	HL,BC
013429 FDE5                A  5858    	PUSH	IY
01342B ED5580              A  5859    	LEA	IY,IX+-128	; spill
01342E FD2FA8              A  5860    	LD	(IY+-88),HL	; spill
013431 FDE1                A  5861    	POP	IY
013433 DD27FC              A  5862    	LD	HL,(IX+-4)
013436 DD5EFF              A  5863    	LD	E,(IX+-1)
013439 01640000            A  5864    	LD	BC,100
01343D AF                  A  5865    	XOR	A,A
01343E CD 60 70 01         A  5866    	CALL	__ldivu
013442 010A0000            A  5867    	LD	BC,10
013446 AF                  A  5868    	XOR	A,A
013447 CD 1D 72 01         A  5869    	CALL	__lremu
01344B 01040000            A  5870    	LD	BC,4
01344F AF                  A  5871    	XOR	A,A
013450 CD 60 72 01         A  5872    	CALL	__lmulu
013454 FDE5                A  5873    	PUSH	IY
013456 ED5580              A  5874    	LEA	IY,IX+-128	; unspill
013459 FD07A8              A  5875    	LD	BC,(IY+-88)
01345C FDE1                A  5876    	POP	IY
Zilog eZ80 Macro Assembler Version 4.1 (10060805) RELISTED26-Aug-11     11:07:39     page: 114


PC     Object              I  Line    Source C:\Users\fog76\Desktop\CHFIGH~2\Debug\main.src
01345E 09                  A  5877    	ADD	HL,BC
01345F E5FDE1              A  5878    	LD	IY,HL
013462 FD2700              A  5879    	LD	HL,(IY)
013465 FD5E03              A  5880    	LD	E,(IY+3)
013468 0140420F            A  5881    	LD	BC,1000000
01346C AF                  A  5882    	XOR	A,A
01346D CD 60 72 01         A  5883    	CALL	__lmuls
013471 DD07FC              A  5884    	LD	BC,(IX+-4)
013474 DD7EFF              A  5885    	LD	A,(IX+-1)
013477 CD 0B 6E 01         A  5886    	CALL	__ladd
01347B DD2FFC              A  5887    	LD	(IX+-4),HL
01347E DD73FF              A  5888    	LD	(IX+-1),E
013481 2A EB 7F 01         A  5889    	LD	HL,(_prof)
013485 3A EE 7F 01         A  5890    	LD	A,(_prof+3)
013489 5F                  A  5891    	LD	E,A
01348A AF                  A  5892    	XOR	A,A
01348B 01000000            A  5893    	LD	BC,0
01348F CD B2 71 01         A  5894    	CALL	__lcmps
013493 20 0F               A  5895    	JR	NZ,L_400
013495 DD07FC              A  5896    	LD	BC,(IX+-4)
013498 ED43 DC 7F 01       A  5897    	LD	(_mossa_in_analisi),BC
01349D DD7EFF              A  5898    	LD	A,(IX+-1)
0134A0 32 DF 7F 01         A  5899    	LD	(_mossa_in_analisi+3),A
0134A4                     A  5900    L_400:
0134A4 DD7E06              A  5901    	LD	A,(IX+6)
0134A7 B7                  A  5902    	OR	A,A
0134A8 20 12               A  5903    	JR	NZ,L_399
0134AA DD4EFF              A  5904    	LD	C,(IX+-1)
0134AD 0600                A  5905    	LD	B,0
0134AF C5                  A  5906    	PUSH	BC
0134B0 DD07FC              A  5907    	LD	BC,(IX+-4)
0134B3 C5                  A  5908    	PUSH	BC
0134B4 CD 03 08 01         A  5909    	CALL	_sceglimossa
0134B8 C1                  A  5910    	POP	BC
0134B9 C1                  A  5911    	POP	BC
0134BA 18 10               A  5912    	JR	L_402
0134BC                     A  5913    L_399:
0134BC DD4EFF              A  5914    	LD	C,(IX+-1)
0134BF 0600                A  5915    	LD	B,0
0134C1 C5                  A  5916    	PUSH	BC
0134C2 DD07FC              A  5917    	LD	BC,(IX+-4)
0134C5 C5                  A  5918    	PUSH	BC
0134C6 CD 3D 06 01         A  5919    	CALL	_raccogli
0134CA C1                  A  5920    	POP	BC
0134CB C1                  A  5921    	POP	BC
0134CC                     A  5922    L_402:
0134CC DD07F0              A  5923    	LD	BC,(IX+-16)
0134CF DD0FF6              A  5924    	LD	(IX+-10),BC
0134D2 DD07F3              A  5925    	LD	BC,(IX+-13)
0134D5 DD0FF9              A  5926    	LD	(IX+-7),BC
0134D8 DD27F0              A  5927    	LD	HL,(IX+-16)
0134DB 29                  A  5928    	ADD	HL,HL
Zilog eZ80 Macro Assembler Version 4.1 (10060805) RELISTED26-Aug-11     11:07:39     page: 115


PC     Object              I  Line    Source C:\Users\fog76\Desktop\CHFIGH~2\Debug\main.src
0134DC 29                  A  5929    	ADD	HL,HL
0134DD 29                  A  5930    	ADD	HL,HL
0134DE 29                  A  5931    	ADD	HL,HL
0134DF 29                  A  5932    	ADD	HL,HL
0134E0 B7                  A  5933    	OR	A,A
0134E1 DD07F0              A  5934    	LD	BC,(IX+-16)
0134E4 ED42                A  5935    	SBC	HL,BC
0134E6 29                  A  5936    	ADD	HL,HL
0134E7 29                  A  5937    	ADD	HL,HL
0134E8 DD07F0              A  5938    	LD	BC,(IX+-16)
0134EB 09                  A  5939    	ADD	HL,BC
0134EC 29                  A  5940    	ADD	HL,HL
0134ED 29                  A  5941    	ADD	HL,HL
0134EE 29                  A  5942    	ADD	HL,HL
0134EF E5C1                A  5943    	LD	BC,HL
0134F1 CD AB 71 01         A  5944    	CALL	__itol
0134F5 DD0FFC              A  5945    	LD	(IX+-4),BC
0134F8 DD77FF              A  5946    	LD	(IX+-1),A
0134FB DD27F3              A  5947    	LD	HL,(IX+-13)
0134FE 29                  A  5948    	ADD	HL,HL
0134FF 29                  A  5949    	ADD	HL,HL
013500 B7                  A  5950    	OR	A,A
013501 DD07F3              A  5951    	LD	BC,(IX+-13)
013504 ED42                A  5952    	SBC	HL,BC
013506 29                  A  5953    	ADD	HL,HL
013507 29                  A  5954    	ADD	HL,HL
013508 29                  A  5955    	ADD	HL,HL
013509 DD07F3              A  5956    	LD	BC,(IX+-13)
01350C 09                  A  5957    	ADD	HL,BC
01350D 29                  A  5958    	ADD	HL,HL
01350E 29                  A  5959    	ADD	HL,HL
01350F E5C1                A  5960    	LD	BC,HL
013511 CD AB 71 01         A  5961    	CALL	__itol
013515 5F                  A  5962    	LD	E,A
013516 C5E1                A  5963    	LD	HL,BC
013518 DD07FC              A  5964    	LD	BC,(IX+-4)
01351B DD7EFF              A  5965    	LD	A,(IX+-1)
01351E CD 0B 6E 01         A  5966    	CALL	__ladd
013522 DD2FFC              A  5967    	LD	(IX+-4),HL
013525 DD73FF              A  5968    	LD	(IX+-1),E
013528 DD31F9              A  5969    	LD	IY,(IX+-7)
01352B ED0302              A  5970    	LEA	BC,IY+2
01352E DD0FF9              A  5971    	LD	(IX+-7),BC
013531 DD17F6              A  5972    	LD	DE,(IX+-10)
013534 1B                  A  5973    	DEC	DE
013535 DD1FF6              A  5974    	LD	(IX+-10),DE
013538 DD27FC              A  5975    	LD	HL,(IX+-4)
01353B DD5EFF              A  5976    	LD	E,(IX+-1)
01353E CD AB 71 01         A  5977    	CALL	__itol
013542 CD 0B 6E 01         A  5978    	CALL	__ladd
013546 DD2FFC              A  5979    	LD	(IX+-4),HL
013549 DD73FF              A  5980    	LD	(IX+-1),E
Zilog eZ80 Macro Assembler Version 4.1 (10060805) RELISTED26-Aug-11     11:07:39     page: 116


PC     Object              I  Line    Source C:\Users\fog76\Desktop\CHFIGH~2\Debug\main.src
01354C DD27F6              A  5981    	LD	HL,(IX+-10)
01354F 29                  A  5982    	ADD	HL,HL
013550 29                  A  5983    	ADD	HL,HL
013551 DD07F6              A  5984    	LD	BC,(IX+-10)
013554 09                  A  5985    	ADD	HL,BC
013555 29                  A  5986    	ADD	HL,HL
013556 E5C1                A  5987    	LD	BC,HL
013558 CD AB 71 01         A  5988    	CALL	__itol
01355C 5F                  A  5989    	LD	E,A
01355D C5E1                A  5990    	LD	HL,BC
01355F DD07FC              A  5991    	LD	BC,(IX+-4)
013562 DD7EFF              A  5992    	LD	A,(IX+-1)
013565 CD 0B 6E 01         A  5993    	CALL	__ladd
013569 DD2FFC              A  5994    	LD	(IX+-4),HL
01356C DD73FF              A  5995    	LD	(IX+-1),E
01356F DD4EFF              A  5996    	LD	C,(IX+-1)
013572 0600                A  5997    	LD	B,0
013574 C5                  A  5998    	PUSH	BC
013575 DD07FC              A  5999    	LD	BC,(IX+-4)
013578 C5                  A  6000    	PUSH	BC
013579 C5                  A  6001    	PUSH	BC
01357A E5                  A  6002    	PUSH	HL
01357B FDE5E1              A  6003    	LD	HL,IY
01357E 0125FFFF            A  6004    	LD	BC,-219
013582 CD 2A 70 01         A  6005    	CALL	__istix
013586 E1                  A  6006    	POP	HL
013587 C1                  A  6007    	POP	BC
013588 CD 98 1E 01         A  6008    	CALL	_mossaimposs
01358C C5                  A  6009    	PUSH	BC
01358D 0125FFFF            A  6010    	LD	BC,-219
013591 E5                  A  6011    	PUSH	HL
013592 CD CD 72 01         A  6012    	CALL	__ildix
013596 E5FDE1              A  6013    	LD	IY,HL
013599 E1                  A  6014    	POP	HL
01359A C1                  A  6015    	POP	BC
01359B C1                  A  6016    	POP	BC
01359C C1                  A  6017    	POP	BC
01359D 01020000            A  6018    	LD	BC,2
0135A1 B7                  A  6019    	OR	A,A
0135A2 ED42                A  6020    	SBC	HL,BC
0135A4 CA E6 36 01         A  6021    	JR	Z,L_409
0135A8 DD27FC              A  6022    	LD	HL,(IX+-4)
0135AB DD5EFF              A  6023    	LD	E,(IX+-1)
0135AE 010A0000            A  6024    	LD	BC,10
0135B2 AF                  A  6025    	XOR	A,A
0135B3 CD 60 70 01         A  6026    	CALL	__ldivu
0135B7 010A0000            A  6027    	LD	BC,10
0135BB AF                  A  6028    	XOR	A,A
0135BC CD 1D 72 01         A  6029    	CALL	__lremu
0135C0 01280000            A  6030    	LD	BC,40
0135C4 AF                  A  6031    	XOR	A,A
0135C5 CD 60 72 01         A  6032    	CALL	__lmulu
Zilog eZ80 Macro Assembler Version 4.1 (10060805) RELISTED26-Aug-11     11:07:39     page: 117


PC     Object              I  Line    Source C:\Users\fog76\Desktop\CHFIGH~2\Debug\main.src
0135C9 01 D5 75 01         A  6033    	LD	BC,_scac
0135CD 09                  A  6034    	ADD	HL,BC
0135CE FDE5                A  6035    	PUSH	IY
0135D0 ED5580              A  6036    	LEA	IY,IX+-128	; spill
0135D3 FD2FB1              A  6037    	LD	(IY+-79),HL	; spill
0135D6 FDE1                A  6038    	POP	IY
0135D8 DD27FC              A  6039    	LD	HL,(IX+-4)
0135DB DD5EFF              A  6040    	LD	E,(IX+-1)
0135DE 010A0000            A  6041    	LD	BC,10
0135E2 AF                  A  6042    	XOR	A,A
0135E3 CD 1D 72 01         A  6043    	CALL	__lremu
0135E7 01040000            A  6044    	LD	BC,4
0135EB AF                  A  6045    	XOR	A,A
0135EC CD 60 72 01         A  6046    	CALL	__lmulu
0135F0 FDE5                A  6047    	PUSH	IY
0135F2 ED5580              A  6048    	LEA	IY,IX+-128	; unspill
0135F5 FD07B1              A  6049    	LD	BC,(IY+-79)
0135F8 FDE1                A  6050    	POP	IY
0135FA 09                  A  6051    	ADD	HL,BC
0135FB E5FDE1              A  6052    	LD	IY,HL
0135FE FD2700              A  6053    	LD	HL,(IY)
013601 FD5E03              A  6054    	LD	E,(IY+3)
013604 01102700            A  6055    	LD	BC,10000
013608 AF                  A  6056    	XOR	A,A
013609 CD 60 72 01         A  6057    	CALL	__lmuls
01360D DD07FC              A  6058    	LD	BC,(IX+-4)
013610 DD7EFF              A  6059    	LD	A,(IX+-1)
013613 CD 0B 6E 01         A  6060    	CALL	__ladd
013617 DD2FFC              A  6061    	LD	(IX+-4),HL
01361A DD73FF              A  6062    	LD	(IX+-1),E
01361D DD27FC              A  6063    	LD	HL,(IX+-4)
013620 DD5EFF              A  6064    	LD	E,(IX+-1)
013623 01E80300            A  6065    	LD	BC,1000
013627 AF                  A  6066    	XOR	A,A
013628 CD 60 70 01         A  6067    	CALL	__ldivu
01362C 010A0000            A  6068    	LD	BC,10
013630 AF                  A  6069    	XOR	A,A
013631 CD 1D 72 01         A  6070    	CALL	__lremu
013635 01280000            A  6071    	LD	BC,40
013639 AF                  A  6072    	XOR	A,A
01363A CD 60 72 01         A  6073    	CALL	__lmulu
01363E 01 D5 75 01         A  6074    	LD	BC,_scac
013642 09                  A  6075    	ADD	HL,BC
013643 FDE5                A  6076    	PUSH	IY
013645 ED5580              A  6077    	LEA	IY,IX+-128	; spill
013648 FD2FAE              A  6078    	LD	(IY+-82),HL	; spill
01364B FDE1                A  6079    	POP	IY
01364D DD27FC              A  6080    	LD	HL,(IX+-4)
013650 DD5EFF              A  6081    	LD	E,(IX+-1)
013653 01640000            A  6082    	LD	BC,100
013657 AF                  A  6083    	XOR	A,A
013658 CD 60 70 01         A  6084    	CALL	__ldivu
Zilog eZ80 Macro Assembler Version 4.1 (10060805) RELISTED26-Aug-11     11:07:39     page: 118


PC     Object              I  Line    Source C:\Users\fog76\Desktop\CHFIGH~2\Debug\main.src
01365C 010A0000            A  6085    	LD	BC,10
013660 AF                  A  6086    	XOR	A,A
013661 CD 1D 72 01         A  6087    	CALL	__lremu
013665 01040000            A  6088    	LD	BC,4
013669 AF                  A  6089    	XOR	A,A
01366A CD 60 72 01         A  6090    	CALL	__lmulu
01366E FDE5                A  6091    	PUSH	IY
013670 ED5580              A  6092    	LEA	IY,IX+-128	; unspill
013673 FD07AE              A  6093    	LD	BC,(IY+-82)
013676 FDE1                A  6094    	POP	IY
013678 09                  A  6095    	ADD	HL,BC
013679 E5FDE1              A  6096    	LD	IY,HL
01367C FD2700              A  6097    	LD	HL,(IY)
01367F FD5E03              A  6098    	LD	E,(IY+3)
013682 0140420F            A  6099    	LD	BC,1000000
013686 AF                  A  6100    	XOR	A,A
013687 CD 60 72 01         A  6101    	CALL	__lmuls
01368B DD07FC              A  6102    	LD	BC,(IX+-4)
01368E DD7EFF              A  6103    	LD	A,(IX+-1)
013691 CD 0B 6E 01         A  6104    	CALL	__ladd
013695 DD2FFC              A  6105    	LD	(IX+-4),HL
013698 DD73FF              A  6106    	LD	(IX+-1),E
01369B 2A EB 7F 01         A  6107    	LD	HL,(_prof)
01369F 3A EE 7F 01         A  6108    	LD	A,(_prof+3)
0136A3 5F                  A  6109    	LD	E,A
0136A4 AF                  A  6110    	XOR	A,A
0136A5 01000000            A  6111    	LD	BC,0
0136A9 CD B2 71 01         A  6112    	CALL	__lcmps
0136AD 20 0F               A  6113    	JR	NZ,L_407
0136AF DD07FC              A  6114    	LD	BC,(IX+-4)
0136B2 ED43 DC 7F 01       A  6115    	LD	(_mossa_in_analisi),BC
0136B7 DD7EFF              A  6116    	LD	A,(IX+-1)
0136BA 32 DF 7F 01         A  6117    	LD	(_mossa_in_analisi+3),A
0136BE                     A  6118    L_407:
0136BE DD7E06              A  6119    	LD	A,(IX+6)
0136C1 B7                  A  6120    	OR	A,A
0136C2 20 12               A  6121    	JR	NZ,L_406
0136C4 DD4EFF              A  6122    	LD	C,(IX+-1)
0136C7 0600                A  6123    	LD	B,0
0136C9 C5                  A  6124    	PUSH	BC
0136CA DD07FC              A  6125    	LD	BC,(IX+-4)
0136CD C5                  A  6126    	PUSH	BC
0136CE CD 03 08 01         A  6127    	CALL	_sceglimossa
0136D2 C1                  A  6128    	POP	BC
0136D3 C1                  A  6129    	POP	BC
0136D4 18 10               A  6130    	JR	L_409
0136D6                     A  6131    L_406:
0136D6 DD4EFF              A  6132    	LD	C,(IX+-1)
0136D9 0600                A  6133    	LD	B,0
0136DB C5                  A  6134    	PUSH	BC
0136DC DD07FC              A  6135    	LD	BC,(IX+-4)
0136DF C5                  A  6136    	PUSH	BC
Zilog eZ80 Macro Assembler Version 4.1 (10060805) RELISTED26-Aug-11     11:07:39     page: 119


PC     Object              I  Line    Source C:\Users\fog76\Desktop\CHFIGH~2\Debug\main.src
0136E0 CD 3D 06 01         A  6137    	CALL	_raccogli
0136E4 C1                  A  6138    	POP	BC
0136E5 C1                  A  6139    	POP	BC
0136E6                     A  6140    L_409:
0136E6 DD07F0              A  6141    	LD	BC,(IX+-16)
0136E9 DD0FF6              A  6142    	LD	(IX+-10),BC
0136EC DD07F3              A  6143    	LD	BC,(IX+-13)
0136EF DD0FF9              A  6144    	LD	(IX+-7),BC
0136F2 DD27F0              A  6145    	LD	HL,(IX+-16)
0136F5 29                  A  6146    	ADD	HL,HL
0136F6 29                  A  6147    	ADD	HL,HL
0136F7 29                  A  6148    	ADD	HL,HL
0136F8 29                  A  6149    	ADD	HL,HL
0136F9 29                  A  6150    	ADD	HL,HL
0136FA B7                  A  6151    	OR	A,A
0136FB DD07F0              A  6152    	LD	BC,(IX+-16)
0136FE ED42                A  6153    	SBC	HL,BC
013700 29                  A  6154    	ADD	HL,HL
013701 29                  A  6155    	ADD	HL,HL
013702 DD07F0              A  6156    	LD	BC,(IX+-16)
013705 09                  A  6157    	ADD	HL,BC
013706 29                  A  6158    	ADD	HL,HL
013707 29                  A  6159    	ADD	HL,HL
013708 29                  A  6160    	ADD	HL,HL
013709 E5C1                A  6161    	LD	BC,HL
01370B CD AB 71 01         A  6162    	CALL	__itol
01370F DD0FFC              A  6163    	LD	(IX+-4),BC
013712 DD77FF              A  6164    	LD	(IX+-1),A
013715 DD27F3              A  6165    	LD	HL,(IX+-13)
013718 29                  A  6166    	ADD	HL,HL
013719 29                  A  6167    	ADD	HL,HL
01371A B7                  A  6168    	OR	A,A
01371B DD07F3              A  6169    	LD	BC,(IX+-13)
01371E ED42                A  6170    	SBC	HL,BC
013720 29                  A  6171    	ADD	HL,HL
013721 29                  A  6172    	ADD	HL,HL
013722 29                  A  6173    	ADD	HL,HL
013723 DD07F3              A  6174    	LD	BC,(IX+-13)
013726 09                  A  6175    	ADD	HL,BC
013727 29                  A  6176    	ADD	HL,HL
013728 29                  A  6177    	ADD	HL,HL
013729 E5C1                A  6178    	LD	BC,HL
01372B CD AB 71 01         A  6179    	CALL	__itol
01372F 5F                  A  6180    	LD	E,A
013730 C5E1                A  6181    	LD	HL,BC
013732 DD07FC              A  6182    	LD	BC,(IX+-4)
013735 DD7EFF              A  6183    	LD	A,(IX+-1)
013738 CD 0B 6E 01         A  6184    	CALL	__ladd
01373C DD2FFC              A  6185    	LD	(IX+-4),HL
01373F DD73FF              A  6186    	LD	(IX+-1),E
013742 DD31F9              A  6187    	LD	IY,(IX+-7)
013745 ED03FE              A  6188    	LEA	BC,IY+-2
Zilog eZ80 Macro Assembler Version 4.1 (10060805) RELISTED26-Aug-11     11:07:39     page: 120


PC     Object              I  Line    Source C:\Users\fog76\Desktop\CHFIGH~2\Debug\main.src
013748 DD0FF9              A  6189    	LD	(IX+-7),BC
01374B DD17F6              A  6190    	LD	DE,(IX+-10)
01374E 13                  A  6191    	INC	DE
01374F DD1FF6              A  6192    	LD	(IX+-10),DE
013752 DD27FC              A  6193    	LD	HL,(IX+-4)
013755 DD5EFF              A  6194    	LD	E,(IX+-1)
013758 CD AB 71 01         A  6195    	CALL	__itol
01375C CD 0B 6E 01         A  6196    	CALL	__ladd
013760 DD2FFC              A  6197    	LD	(IX+-4),HL
013763 DD73FF              A  6198    	LD	(IX+-1),E
013766 DD27F6              A  6199    	LD	HL,(IX+-10)
013769 29                  A  6200    	ADD	HL,HL
01376A 29                  A  6201    	ADD	HL,HL
01376B DD07F6              A  6202    	LD	BC,(IX+-10)
01376E 09                  A  6203    	ADD	HL,BC
01376F 29                  A  6204    	ADD	HL,HL
013770 E5C1                A  6205    	LD	BC,HL
013772 CD AB 71 01         A  6206    	CALL	__itol
013776 5F                  A  6207    	LD	E,A
013777 C5E1                A  6208    	LD	HL,BC
013779 DD07FC              A  6209    	LD	BC,(IX+-4)
01377C DD7EFF              A  6210    	LD	A,(IX+-1)
01377F CD 0B 6E 01         A  6211    	CALL	__ladd
013783 DD2FFC              A  6212    	LD	(IX+-4),HL
013786 DD73FF              A  6213    	LD	(IX+-1),E
013789 DD4EFF              A  6214    	LD	C,(IX+-1)
01378C 0600                A  6215    	LD	B,0
01378E C5                  A  6216    	PUSH	BC
01378F DD07FC              A  6217    	LD	BC,(IX+-4)
013792 C5                  A  6218    	PUSH	BC
013793 C5                  A  6219    	PUSH	BC
013794 E5                  A  6220    	PUSH	HL
013795 FDE5E1              A  6221    	LD	HL,IY
013798 0125FFFF            A  6222    	LD	BC,-219
01379C CD 2A 70 01         A  6223    	CALL	__istix
0137A0 E1                  A  6224    	POP	HL
0137A1 C1                  A  6225    	POP	BC
0137A2 CD 98 1E 01         A  6226    	CALL	_mossaimposs
0137A6 C5                  A  6227    	PUSH	BC
0137A7 0125FFFF            A  6228    	LD	BC,-219
0137AB E5                  A  6229    	PUSH	HL
0137AC CD CD 72 01         A  6230    	CALL	__ildix
0137B0 E5FDE1              A  6231    	LD	IY,HL
0137B3 E1                  A  6232    	POP	HL
0137B4 C1                  A  6233    	POP	BC
0137B5 C1                  A  6234    	POP	BC
0137B6 C1                  A  6235    	POP	BC
0137B7 01020000            A  6236    	LD	BC,2
0137BB B7                  A  6237    	OR	A,A
0137BC ED42                A  6238    	SBC	HL,BC
0137BE CA 00 39 01         A  6239    	JR	Z,L_416
0137C2 DD27FC              A  6240    	LD	HL,(IX+-4)
Zilog eZ80 Macro Assembler Version 4.1 (10060805) RELISTED26-Aug-11     11:07:39     page: 121


PC     Object              I  Line    Source C:\Users\fog76\Desktop\CHFIGH~2\Debug\main.src
0137C5 DD5EFF              A  6241    	LD	E,(IX+-1)
0137C8 010A0000            A  6242    	LD	BC,10
0137CC AF                  A  6243    	XOR	A,A
0137CD CD 60 70 01         A  6244    	CALL	__ldivu
0137D1 010A0000            A  6245    	LD	BC,10
0137D5 AF                  A  6246    	XOR	A,A
0137D6 CD 1D 72 01         A  6247    	CALL	__lremu
0137DA 01280000            A  6248    	LD	BC,40
0137DE AF                  A  6249    	XOR	A,A
0137DF CD 60 72 01         A  6250    	CALL	__lmulu
0137E3 01 D5 75 01         A  6251    	LD	BC,_scac
0137E7 09                  A  6252    	ADD	HL,BC
0137E8 FDE5                A  6253    	PUSH	IY
0137EA ED5580              A  6254    	LEA	IY,IX+-128	; spill
0137ED FD2FB7              A  6255    	LD	(IY+-73),HL	; spill
0137F0 FDE1                A  6256    	POP	IY
0137F2 DD27FC              A  6257    	LD	HL,(IX+-4)
0137F5 DD5EFF              A  6258    	LD	E,(IX+-1)
0137F8 010A0000            A  6259    	LD	BC,10
0137FC AF                  A  6260    	XOR	A,A
0137FD CD 1D 72 01         A  6261    	CALL	__lremu
013801 01040000            A  6262    	LD	BC,4
013805 AF                  A  6263    	XOR	A,A
013806 CD 60 72 01         A  6264    	CALL	__lmulu
01380A FDE5                A  6265    	PUSH	IY
01380C ED5580              A  6266    	LEA	IY,IX+-128	; unspill
01380F FD07B7              A  6267    	LD	BC,(IY+-73)
013812 FDE1                A  6268    	POP	IY
013814 09                  A  6269    	ADD	HL,BC
013815 E5FDE1              A  6270    	LD	IY,HL
013818 FD2700              A  6271    	LD	HL,(IY)
01381B FD5E03              A  6272    	LD	E,(IY+3)
01381E 01102700            A  6273    	LD	BC,10000
013822 AF                  A  6274    	XOR	A,A
013823 CD 60 72 01         A  6275    	CALL	__lmuls
013827 DD07FC              A  6276    	LD	BC,(IX+-4)
01382A DD7EFF              A  6277    	LD	A,(IX+-1)
01382D CD 0B 6E 01         A  6278    	CALL	__ladd
013831 DD2FFC              A  6279    	LD	(IX+-4),HL
013834 DD73FF              A  6280    	LD	(IX+-1),E
013837 DD27FC              A  6281    	LD	HL,(IX+-4)
01383A DD5EFF              A  6282    	LD	E,(IX+-1)
01383D 01E80300            A  6283    	LD	BC,1000
013841 AF                  A  6284    	XOR	A,A
013842 CD 60 70 01         A  6285    	CALL	__ldivu
013846 010A0000            A  6286    	LD	BC,10
01384A AF                  A  6287    	XOR	A,A
01384B CD 1D 72 01         A  6288    	CALL	__lremu
01384F 01280000            A  6289    	LD	BC,40
013853 AF                  A  6290    	XOR	A,A
013854 CD 60 72 01         A  6291    	CALL	__lmulu
013858 01 D5 75 01         A  6292    	LD	BC,_scac
Zilog eZ80 Macro Assembler Version 4.1 (10060805) RELISTED26-Aug-11     11:07:39     page: 122


PC     Object              I  Line    Source C:\Users\fog76\Desktop\CHFIGH~2\Debug\main.src
01385C 09                  A  6293    	ADD	HL,BC
01385D FDE5                A  6294    	PUSH	IY
01385F ED5580              A  6295    	LEA	IY,IX+-128	; spill
013862 FD2FB4              A  6296    	LD	(IY+-76),HL	; spill
013865 FDE1                A  6297    	POP	IY
013867 DD27FC              A  6298    	LD	HL,(IX+-4)
01386A DD5EFF              A  6299    	LD	E,(IX+-1)
01386D 01640000            A  6300    	LD	BC,100
013871 AF                  A  6301    	XOR	A,A
013872 CD 60 70 01         A  6302    	CALL	__ldivu
013876 010A0000            A  6303    	LD	BC,10
01387A AF                  A  6304    	XOR	A,A
01387B CD 1D 72 01         A  6305    	CALL	__lremu
01387F 01040000            A  6306    	LD	BC,4
013883 AF                  A  6307    	XOR	A,A
013884 CD 60 72 01         A  6308    	CALL	__lmulu
013888 FDE5                A  6309    	PUSH	IY
01388A ED5580              A  6310    	LEA	IY,IX+-128	; unspill
01388D FD07B4              A  6311    	LD	BC,(IY+-76)
013890 FDE1                A  6312    	POP	IY
013892 09                  A  6313    	ADD	HL,BC
013893 E5FDE1              A  6314    	LD	IY,HL
013896 FD2700              A  6315    	LD	HL,(IY)
013899 FD5E03              A  6316    	LD	E,(IY+3)
01389C 0140420F            A  6317    	LD	BC,1000000
0138A0 AF                  A  6318    	XOR	A,A
0138A1 CD 60 72 01         A  6319    	CALL	__lmuls
0138A5 DD07FC              A  6320    	LD	BC,(IX+-4)
0138A8 DD7EFF              A  6321    	LD	A,(IX+-1)
0138AB CD 0B 6E 01         A  6322    	CALL	__ladd
0138AF DD2FFC              A  6323    	LD	(IX+-4),HL
0138B2 DD73FF              A  6324    	LD	(IX+-1),E
0138B5 2A EB 7F 01         A  6325    	LD	HL,(_prof)
0138B9 3A EE 7F 01         A  6326    	LD	A,(_prof+3)
0138BD 5F                  A  6327    	LD	E,A
0138BE AF                  A  6328    	XOR	A,A
0138BF 01000000            A  6329    	LD	BC,0
0138C3 CD B2 71 01         A  6330    	CALL	__lcmps
0138C7 20 0F               A  6331    	JR	NZ,L_414
0138C9 DD07FC              A  6332    	LD	BC,(IX+-4)
0138CC ED43 DC 7F 01       A  6333    	LD	(_mossa_in_analisi),BC
0138D1 DD7EFF              A  6334    	LD	A,(IX+-1)
0138D4 32 DF 7F 01         A  6335    	LD	(_mossa_in_analisi+3),A
0138D8                     A  6336    L_414:
0138D8 DD7E06              A  6337    	LD	A,(IX+6)
0138DB B7                  A  6338    	OR	A,A
0138DC 20 12               A  6339    	JR	NZ,L_413
0138DE DD4EFF              A  6340    	LD	C,(IX+-1)
0138E1 0600                A  6341    	LD	B,0
0138E3 C5                  A  6342    	PUSH	BC
0138E4 DD07FC              A  6343    	LD	BC,(IX+-4)
0138E7 C5                  A  6344    	PUSH	BC
Zilog eZ80 Macro Assembler Version 4.1 (10060805) RELISTED26-Aug-11     11:07:39     page: 123


PC     Object              I  Line    Source C:\Users\fog76\Desktop\CHFIGH~2\Debug\main.src
0138E8 CD 03 08 01         A  6345    	CALL	_sceglimossa
0138EC C1                  A  6346    	POP	BC
0138ED C1                  A  6347    	POP	BC
0138EE 18 10               A  6348    	JR	L_416
0138F0                     A  6349    L_413:
0138F0 DD4EFF              A  6350    	LD	C,(IX+-1)
0138F3 0600                A  6351    	LD	B,0
0138F5 C5                  A  6352    	PUSH	BC
0138F6 DD07FC              A  6353    	LD	BC,(IX+-4)
0138F9 C5                  A  6354    	PUSH	BC
0138FA CD 3D 06 01         A  6355    	CALL	_raccogli
0138FE C1                  A  6356    	POP	BC
0138FF C1                  A  6357    	POP	BC
013900                     A  6358    L_416:
013900 DD07F0              A  6359    	LD	BC,(IX+-16)
013903 DD0FF6              A  6360    	LD	(IX+-10),BC
013906 DD07F3              A  6361    	LD	BC,(IX+-13)
013909 DD0FF9              A  6362    	LD	(IX+-7),BC
01390C DD27F0              A  6363    	LD	HL,(IX+-16)
01390F 29                  A  6364    	ADD	HL,HL
013910 29                  A  6365    	ADD	HL,HL
013911 29                  A  6366    	ADD	HL,HL
013912 29                  A  6367    	ADD	HL,HL
013913 29                  A  6368    	ADD	HL,HL
013914 B7                  A  6369    	OR	A,A
013915 DD07F0              A  6370    	LD	BC,(IX+-16)
013918 ED42                A  6371    	SBC	HL,BC
01391A 29                  A  6372    	ADD	HL,HL
01391B 29                  A  6373    	ADD	HL,HL
01391C DD07F0              A  6374    	LD	BC,(IX+-16)
01391F 09                  A  6375    	ADD	HL,BC
013920 29                  A  6376    	ADD	HL,HL
013921 29                  A  6377    	ADD	HL,HL
013922 29                  A  6378    	ADD	HL,HL
013923 E5C1                A  6379    	LD	BC,HL
013925 CD AB 71 01         A  6380    	CALL	__itol
013929 DD0FFC              A  6381    	LD	(IX+-4),BC
01392C DD77FF              A  6382    	LD	(IX+-1),A
01392F DD27F3              A  6383    	LD	HL,(IX+-13)
013932 29                  A  6384    	ADD	HL,HL
013933 29                  A  6385    	ADD	HL,HL
013934 B7                  A  6386    	OR	A,A
013935 DD07F3              A  6387    	LD	BC,(IX+-13)
013938 ED42                A  6388    	SBC	HL,BC
01393A 29                  A  6389    	ADD	HL,HL
01393B 29                  A  6390    	ADD	HL,HL
01393C 29                  A  6391    	ADD	HL,HL
01393D DD07F3              A  6392    	LD	BC,(IX+-13)
013940 09                  A  6393    	ADD	HL,BC
013941 29                  A  6394    	ADD	HL,HL
013942 29                  A  6395    	ADD	HL,HL
013943 E5C1                A  6396    	LD	BC,HL
Zilog eZ80 Macro Assembler Version 4.1 (10060805) RELISTED26-Aug-11     11:07:39     page: 124


PC     Object              I  Line    Source C:\Users\fog76\Desktop\CHFIGH~2\Debug\main.src
013945 CD AB 71 01         A  6397    	CALL	__itol
013949 5F                  A  6398    	LD	E,A
01394A C5E1                A  6399    	LD	HL,BC
01394C DD07FC              A  6400    	LD	BC,(IX+-4)
01394F DD7EFF              A  6401    	LD	A,(IX+-1)
013952 CD 0B 6E 01         A  6402    	CALL	__ladd
013956 DD2FFC              A  6403    	LD	(IX+-4),HL
013959 DD73FF              A  6404    	LD	(IX+-1),E
01395C DD31F9              A  6405    	LD	IY,(IX+-7)
01395F ED03FE              A  6406    	LEA	BC,IY+-2
013962 DD0FF9              A  6407    	LD	(IX+-7),BC
013965 DD17F6              A  6408    	LD	DE,(IX+-10)
013968 1B                  A  6409    	DEC	DE
013969 DD1FF6              A  6410    	LD	(IX+-10),DE
01396C DD27FC              A  6411    	LD	HL,(IX+-4)
01396F DD5EFF              A  6412    	LD	E,(IX+-1)
013972 CD AB 71 01         A  6413    	CALL	__itol
013976 CD 0B 6E 01         A  6414    	CALL	__ladd
01397A DD2FFC              A  6415    	LD	(IX+-4),HL
01397D DD73FF              A  6416    	LD	(IX+-1),E
013980 DD27F6              A  6417    	LD	HL,(IX+-10)
013983 29                  A  6418    	ADD	HL,HL
013984 29                  A  6419    	ADD	HL,HL
013985 DD07F6              A  6420    	LD	BC,(IX+-10)
013988 09                  A  6421    	ADD	HL,BC
013989 29                  A  6422    	ADD	HL,HL
01398A E5C1                A  6423    	LD	BC,HL
01398C CD AB 71 01         A  6424    	CALL	__itol
013990 5F                  A  6425    	LD	E,A
013991 C5E1                A  6426    	LD	HL,BC
013993 DD07FC              A  6427    	LD	BC,(IX+-4)
013996 DD7EFF              A  6428    	LD	A,(IX+-1)
013999 CD 0B 6E 01         A  6429    	CALL	__ladd
01399D DD2FFC              A  6430    	LD	(IX+-4),HL
0139A0 DD73FF              A  6431    	LD	(IX+-1),E
0139A3 DD4EFF              A  6432    	LD	C,(IX+-1)
0139A6 0600                A  6433    	LD	B,0
0139A8 C5                  A  6434    	PUSH	BC
0139A9 DD07FC              A  6435    	LD	BC,(IX+-4)
0139AC C5                  A  6436    	PUSH	BC
0139AD C5                  A  6437    	PUSH	BC
0139AE E5                  A  6438    	PUSH	HL
0139AF FDE5E1              A  6439    	LD	HL,IY
0139B2 0125FFFF            A  6440    	LD	BC,-219
0139B6 CD 2A 70 01         A  6441    	CALL	__istix
0139BA E1                  A  6442    	POP	HL
0139BB C1                  A  6443    	POP	BC
0139BC CD 98 1E 01         A  6444    	CALL	_mossaimposs
0139C0 C5                  A  6445    	PUSH	BC
0139C1 0125FFFF            A  6446    	LD	BC,-219
0139C5 E5                  A  6447    	PUSH	HL
0139C6 CD CD 72 01         A  6448    	CALL	__ildix
Zilog eZ80 Macro Assembler Version 4.1 (10060805) RELISTED26-Aug-11     11:07:39     page: 125


PC     Object              I  Line    Source C:\Users\fog76\Desktop\CHFIGH~2\Debug\main.src
0139CA E5FDE1              A  6449    	LD	IY,HL
0139CD E1                  A  6450    	POP	HL
0139CE C1                  A  6451    	POP	BC
0139CF C1                  A  6452    	POP	BC
0139D0 C1                  A  6453    	POP	BC
0139D1 01020000            A  6454    	LD	BC,2
0139D5 B7                  A  6455    	OR	A,A
0139D6 ED42                A  6456    	SBC	HL,BC
0139D8 CA 1A 3B 01         A  6457    	JR	Z,L_423
0139DC DD27FC              A  6458    	LD	HL,(IX+-4)
0139DF DD5EFF              A  6459    	LD	E,(IX+-1)
0139E2 010A0000            A  6460    	LD	BC,10
0139E6 AF                  A  6461    	XOR	A,A
0139E7 CD 60 70 01         A  6462    	CALL	__ldivu
0139EB 010A0000            A  6463    	LD	BC,10
0139EF AF                  A  6464    	XOR	A,A
0139F0 CD 1D 72 01         A  6465    	CALL	__lremu
0139F4 01280000            A  6466    	LD	BC,40
0139F8 AF                  A  6467    	XOR	A,A
0139F9 CD 60 72 01         A  6468    	CALL	__lmulu
0139FD 01 D5 75 01         A  6469    	LD	BC,_scac
013A01 09                  A  6470    	ADD	HL,BC
013A02 FDE5                A  6471    	PUSH	IY
013A04 ED5580              A  6472    	LEA	IY,IX+-128	; spill
013A07 FD2FBD              A  6473    	LD	(IY+-67),HL	; spill
013A0A FDE1                A  6474    	POP	IY
013A0C DD27FC              A  6475    	LD	HL,(IX+-4)
013A0F DD5EFF              A  6476    	LD	E,(IX+-1)
013A12 010A0000            A  6477    	LD	BC,10
013A16 AF                  A  6478    	XOR	A,A
013A17 CD 1D 72 01         A  6479    	CALL	__lremu
013A1B 01040000            A  6480    	LD	BC,4
013A1F AF                  A  6481    	XOR	A,A
013A20 CD 60 72 01         A  6482    	CALL	__lmulu
013A24 FDE5                A  6483    	PUSH	IY
013A26 ED5580              A  6484    	LEA	IY,IX+-128	; unspill
013A29 FD07BD              A  6485    	LD	BC,(IY+-67)
013A2C FDE1                A  6486    	POP	IY
013A2E 09                  A  6487    	ADD	HL,BC
013A2F E5FDE1              A  6488    	LD	IY,HL
013A32 FD2700              A  6489    	LD	HL,(IY)
013A35 FD5E03              A  6490    	LD	E,(IY+3)
013A38 01102700            A  6491    	LD	BC,10000
013A3C AF                  A  6492    	XOR	A,A
013A3D CD 60 72 01         A  6493    	CALL	__lmuls
013A41 DD07FC              A  6494    	LD	BC,(IX+-4)
013A44 DD7EFF              A  6495    	LD	A,(IX+-1)
013A47 CD 0B 6E 01         A  6496    	CALL	__ladd
013A4B DD2FFC              A  6497    	LD	(IX+-4),HL
013A4E DD73FF              A  6498    	LD	(IX+-1),E
013A51 DD27FC              A  6499    	LD	HL,(IX+-4)
013A54 DD5EFF              A  6500    	LD	E,(IX+-1)
Zilog eZ80 Macro Assembler Version 4.1 (10060805) RELISTED26-Aug-11     11:07:39     page: 126


PC     Object              I  Line    Source C:\Users\fog76\Desktop\CHFIGH~2\Debug\main.src
013A57 01E80300            A  6501    	LD	BC,1000
013A5B AF                  A  6502    	XOR	A,A
013A5C CD 60 70 01         A  6503    	CALL	__ldivu
013A60 010A0000            A  6504    	LD	BC,10
013A64 AF                  A  6505    	XOR	A,A
013A65 CD 1D 72 01         A  6506    	CALL	__lremu
013A69 01280000            A  6507    	LD	BC,40
013A6D AF                  A  6508    	XOR	A,A
013A6E CD 60 72 01         A  6509    	CALL	__lmulu
013A72 01 D5 75 01         A  6510    	LD	BC,_scac
013A76 09                  A  6511    	ADD	HL,BC
013A77 FDE5                A  6512    	PUSH	IY
013A79 ED5580              A  6513    	LEA	IY,IX+-128	; spill
013A7C FD2FBA              A  6514    	LD	(IY+-70),HL	; spill
013A7F FDE1                A  6515    	POP	IY
013A81 DD27FC              A  6516    	LD	HL,(IX+-4)
013A84 DD5EFF              A  6517    	LD	E,(IX+-1)
013A87 01640000            A  6518    	LD	BC,100
013A8B AF                  A  6519    	XOR	A,A
013A8C CD 60 70 01         A  6520    	CALL	__ldivu
013A90 010A0000            A  6521    	LD	BC,10
013A94 AF                  A  6522    	XOR	A,A
013A95 CD 1D 72 01         A  6523    	CALL	__lremu
013A99 01040000            A  6524    	LD	BC,4
013A9D AF                  A  6525    	XOR	A,A
013A9E CD 60 72 01         A  6526    	CALL	__lmulu
013AA2 FDE5                A  6527    	PUSH	IY
013AA4 ED5580              A  6528    	LEA	IY,IX+-128	; unspill
013AA7 FD07BA              A  6529    	LD	BC,(IY+-70)
013AAA FDE1                A  6530    	POP	IY
013AAC 09                  A  6531    	ADD	HL,BC
013AAD E5FDE1              A  6532    	LD	IY,HL
013AB0 FD2700              A  6533    	LD	HL,(IY)
013AB3 FD5E03              A  6534    	LD	E,(IY+3)
013AB6 0140420F            A  6535    	LD	BC,1000000
013ABA AF                  A  6536    	XOR	A,A
013ABB CD 60 72 01         A  6537    	CALL	__lmuls
013ABF DD07FC              A  6538    	LD	BC,(IX+-4)
013AC2 DD7EFF              A  6539    	LD	A,(IX+-1)
013AC5 CD 0B 6E 01         A  6540    	CALL	__ladd
013AC9 DD2FFC              A  6541    	LD	(IX+-4),HL
013ACC DD73FF              A  6542    	LD	(IX+-1),E
013ACF 2A EB 7F 01         A  6543    	LD	HL,(_prof)
013AD3 3A EE 7F 01         A  6544    	LD	A,(_prof+3)
013AD7 5F                  A  6545    	LD	E,A
013AD8 AF                  A  6546    	XOR	A,A
013AD9 01000000            A  6547    	LD	BC,0
013ADD CD B2 71 01         A  6548    	CALL	__lcmps
013AE1 20 0F               A  6549    	JR	NZ,L_421
013AE3 DD07FC              A  6550    	LD	BC,(IX+-4)
013AE6 ED43 DC 7F 01       A  6551    	LD	(_mossa_in_analisi),BC
013AEB DD7EFF              A  6552    	LD	A,(IX+-1)
Zilog eZ80 Macro Assembler Version 4.1 (10060805) RELISTED26-Aug-11     11:07:39     page: 127


PC     Object              I  Line    Source C:\Users\fog76\Desktop\CHFIGH~2\Debug\main.src
013AEE 32 DF 7F 01         A  6553    	LD	(_mossa_in_analisi+3),A
013AF2                     A  6554    L_421:
013AF2 DD7E06              A  6555    	LD	A,(IX+6)
013AF5 B7                  A  6556    	OR	A,A
013AF6 20 12               A  6557    	JR	NZ,L_420
013AF8 DD4EFF              A  6558    	LD	C,(IX+-1)
013AFB 0600                A  6559    	LD	B,0
013AFD C5                  A  6560    	PUSH	BC
013AFE DD07FC              A  6561    	LD	BC,(IX+-4)
013B01 C5                  A  6562    	PUSH	BC
013B02 CD 03 08 01         A  6563    	CALL	_sceglimossa
013B06 C1                  A  6564    	POP	BC
013B07 C1                  A  6565    	POP	BC
013B08 18 10               A  6566    	JR	L_423
013B0A                     A  6567    L_420:
013B0A DD4EFF              A  6568    	LD	C,(IX+-1)
013B0D 0600                A  6569    	LD	B,0
013B0F C5                  A  6570    	PUSH	BC
013B10 DD07FC              A  6571    	LD	BC,(IX+-4)
013B13 C5                  A  6572    	PUSH	BC
013B14 CD 3D 06 01         A  6573    	CALL	_raccogli
013B18 C1                  A  6574    	POP	BC
013B19 C1                  A  6575    	POP	BC
013B1A                     A  6576    L_423:
013B1A DD07F0              A  6577    	LD	BC,(IX+-16)
013B1D DD0FF6              A  6578    	LD	(IX+-10),BC
013B20 DD07F3              A  6579    	LD	BC,(IX+-13)
013B23 DD0FF9              A  6580    	LD	(IX+-7),BC
013B26 DD27F0              A  6581    	LD	HL,(IX+-16)
013B29 29                  A  6582    	ADD	HL,HL
013B2A 29                  A  6583    	ADD	HL,HL
013B2B 29                  A  6584    	ADD	HL,HL
013B2C 29                  A  6585    	ADD	HL,HL
013B2D 29                  A  6586    	ADD	HL,HL
013B2E B7                  A  6587    	OR	A,A
013B2F DD07F0              A  6588    	LD	BC,(IX+-16)
013B32 ED42                A  6589    	SBC	HL,BC
013B34 29                  A  6590    	ADD	HL,HL
013B35 29                  A  6591    	ADD	HL,HL
013B36 DD07F0              A  6592    	LD	BC,(IX+-16)
013B39 09                  A  6593    	ADD	HL,BC
013B3A 29                  A  6594    	ADD	HL,HL
013B3B 29                  A  6595    	ADD	HL,HL
013B3C 29                  A  6596    	ADD	HL,HL
013B3D E5C1                A  6597    	LD	BC,HL
013B3F CD AB 71 01         A  6598    	CALL	__itol
013B43 DD0FFC              A  6599    	LD	(IX+-4),BC
013B46 DD77FF              A  6600    	LD	(IX+-1),A
013B49 DD27F3              A  6601    	LD	HL,(IX+-13)
013B4C 29                  A  6602    	ADD	HL,HL
013B4D 29                  A  6603    	ADD	HL,HL
013B4E B7                  A  6604    	OR	A,A
Zilog eZ80 Macro Assembler Version 4.1 (10060805) RELISTED26-Aug-11     11:07:39     page: 128


PC     Object              I  Line    Source C:\Users\fog76\Desktop\CHFIGH~2\Debug\main.src
013B4F DD07F3              A  6605    	LD	BC,(IX+-13)
013B52 ED42                A  6606    	SBC	HL,BC
013B54 29                  A  6607    	ADD	HL,HL
013B55 29                  A  6608    	ADD	HL,HL
013B56 29                  A  6609    	ADD	HL,HL
013B57 DD07F3              A  6610    	LD	BC,(IX+-13)
013B5A 09                  A  6611    	ADD	HL,BC
013B5B 29                  A  6612    	ADD	HL,HL
013B5C 29                  A  6613    	ADD	HL,HL
013B5D E5C1                A  6614    	LD	BC,HL
013B5F CD AB 71 01         A  6615    	CALL	__itol
013B63 5F                  A  6616    	LD	E,A
013B64 C5E1                A  6617    	LD	HL,BC
013B66 DD07FC              A  6618    	LD	BC,(IX+-4)
013B69 DD7EFF              A  6619    	LD	A,(IX+-1)
013B6C CD 0B 6E 01         A  6620    	CALL	__ladd
013B70 DD2FFC              A  6621    	LD	(IX+-4),HL
013B73 DD73FF              A  6622    	LD	(IX+-1),E
013B76 DD31F6              A  6623    	LD	IY,(IX+-10)
013B79 ED3302              A  6624    	LEA	IY,IY+2
013B7C DD3EF6              A  6625    	LD	(IX+-10),IY
013B7F DD07F9              A  6626    	LD	BC,(IX+-7)
013B82 03                  A  6627    	INC	BC
013B83 DD0FF9              A  6628    	LD	(IX+-7),BC
013B86 CD AB 71 01         A  6629    	CALL	__itol
013B8A DD27FC              A  6630    	LD	HL,(IX+-4)
013B8D DD5EFF              A  6631    	LD	E,(IX+-1)
013B90 CD 0B 6E 01         A  6632    	CALL	__ladd
013B94 DD2FFC              A  6633    	LD	(IX+-4),HL
013B97 DD73FF              A  6634    	LD	(IX+-1),E
013B9A DD27F6              A  6635    	LD	HL,(IX+-10)
013B9D 29                  A  6636    	ADD	HL,HL
013B9E 29                  A  6637    	ADD	HL,HL
013B9F DD07F6              A  6638    	LD	BC,(IX+-10)
013BA2 09                  A  6639    	ADD	HL,BC
013BA3 29                  A  6640    	ADD	HL,HL
013BA4 E5C1                A  6641    	LD	BC,HL
013BA6 CD AB 71 01         A  6642    	CALL	__itol
013BAA 5F                  A  6643    	LD	E,A
013BAB C5E1                A  6644    	LD	HL,BC
013BAD DD07FC              A  6645    	LD	BC,(IX+-4)
013BB0 DD7EFF              A  6646    	LD	A,(IX+-1)
013BB3 CD 0B 6E 01         A  6647    	CALL	__ladd
013BB7 DD2FFC              A  6648    	LD	(IX+-4),HL
013BBA DD73FF              A  6649    	LD	(IX+-1),E
013BBD DD4EFF              A  6650    	LD	C,(IX+-1)
013BC0 0600                A  6651    	LD	B,0
013BC2 C5                  A  6652    	PUSH	BC
013BC3 DD07FC              A  6653    	LD	BC,(IX+-4)
013BC6 C5                  A  6654    	PUSH	BC
013BC7 C5                  A  6655    	PUSH	BC
013BC8 E5                  A  6656    	PUSH	HL
Zilog eZ80 Macro Assembler Version 4.1 (10060805) RELISTED26-Aug-11     11:07:39     page: 129


PC     Object              I  Line    Source C:\Users\fog76\Desktop\CHFIGH~2\Debug\main.src
013BC9 FDE5E1              A  6657    	LD	HL,IY
013BCC 0125FFFF            A  6658    	LD	BC,-219
013BD0 CD 2A 70 01         A  6659    	CALL	__istix
013BD4 E1                  A  6660    	POP	HL
013BD5 C1                  A  6661    	POP	BC
013BD6 CD 98 1E 01         A  6662    	CALL	_mossaimposs
013BDA C5                  A  6663    	PUSH	BC
013BDB 0125FFFF            A  6664    	LD	BC,-219
013BDF E5                  A  6665    	PUSH	HL
013BE0 CD CD 72 01         A  6666    	CALL	__ildix
013BE4 E5FDE1              A  6667    	LD	IY,HL
013BE7 E1                  A  6668    	POP	HL
013BE8 C1                  A  6669    	POP	BC
013BE9 C1                  A  6670    	POP	BC
013BEA C1                  A  6671    	POP	BC
013BEB 01020000            A  6672    	LD	BC,2
013BEF B7                  A  6673    	OR	A,A
013BF0 ED42                A  6674    	SBC	HL,BC
013BF2 CA 34 3D 01         A  6675    	JR	Z,L_430
013BF6 DD27FC              A  6676    	LD	HL,(IX+-4)
013BF9 DD5EFF              A  6677    	LD	E,(IX+-1)
013BFC 010A0000            A  6678    	LD	BC,10
013C00 AF                  A  6679    	XOR	A,A
013C01 CD 60 70 01         A  6680    	CALL	__ldivu
013C05 010A0000            A  6681    	LD	BC,10
013C09 AF                  A  6682    	XOR	A,A
013C0A CD 1D 72 01         A  6683    	CALL	__lremu
013C0E 01280000            A  6684    	LD	BC,40
013C12 AF                  A  6685    	XOR	A,A
013C13 CD 60 72 01         A  6686    	CALL	__lmulu
013C17 01 D5 75 01         A  6687    	LD	BC,_scac
013C1B 09                  A  6688    	ADD	HL,BC
013C1C FDE5                A  6689    	PUSH	IY
013C1E ED5580              A  6690    	LEA	IY,IX+-128	; spill
013C21 FD2FC3              A  6691    	LD	(IY+-61),HL	; spill
013C24 FDE1                A  6692    	POP	IY
013C26 DD27FC              A  6693    	LD	HL,(IX+-4)
013C29 DD5EFF              A  6694    	LD	E,(IX+-1)
013C2C 010A0000            A  6695    	LD	BC,10
013C30 AF                  A  6696    	XOR	A,A
013C31 CD 1D 72 01         A  6697    	CALL	__lremu
013C35 01040000            A  6698    	LD	BC,4
013C39 AF                  A  6699    	XOR	A,A
013C3A CD 60 72 01         A  6700    	CALL	__lmulu
013C3E FDE5                A  6701    	PUSH	IY
013C40 ED5580              A  6702    	LEA	IY,IX+-128	; unspill
013C43 FD07C3              A  6703    	LD	BC,(IY+-61)
013C46 FDE1                A  6704    	POP	IY
013C48 09                  A  6705    	ADD	HL,BC
013C49 E5FDE1              A  6706    	LD	IY,HL
013C4C FD2700              A  6707    	LD	HL,(IY)
013C4F FD5E03              A  6708    	LD	E,(IY+3)
Zilog eZ80 Macro Assembler Version 4.1 (10060805) RELISTED26-Aug-11     11:07:39     page: 130


PC     Object              I  Line    Source C:\Users\fog76\Desktop\CHFIGH~2\Debug\main.src
013C52 01102700            A  6709    	LD	BC,10000
013C56 AF                  A  6710    	XOR	A,A
013C57 CD 60 72 01         A  6711    	CALL	__lmuls
013C5B DD07FC              A  6712    	LD	BC,(IX+-4)
013C5E DD7EFF              A  6713    	LD	A,(IX+-1)
013C61 CD 0B 6E 01         A  6714    	CALL	__ladd
013C65 DD2FFC              A  6715    	LD	(IX+-4),HL
013C68 DD73FF              A  6716    	LD	(IX+-1),E
013C6B DD27FC              A  6717    	LD	HL,(IX+-4)
013C6E DD5EFF              A  6718    	LD	E,(IX+-1)
013C71 01E80300            A  6719    	LD	BC,1000
013C75 AF                  A  6720    	XOR	A,A
013C76 CD 60 70 01         A  6721    	CALL	__ldivu
013C7A 010A0000            A  6722    	LD	BC,10
013C7E AF                  A  6723    	XOR	A,A
013C7F CD 1D 72 01         A  6724    	CALL	__lremu
013C83 01280000            A  6725    	LD	BC,40
013C87 AF                  A  6726    	XOR	A,A
013C88 CD 60 72 01         A  6727    	CALL	__lmulu
013C8C 01 D5 75 01         A  6728    	LD	BC,_scac
013C90 09                  A  6729    	ADD	HL,BC
013C91 FDE5                A  6730    	PUSH	IY
013C93 ED5580              A  6731    	LEA	IY,IX+-128	; spill
013C96 FD2FC0              A  6732    	LD	(IY+-64),HL	; spill
013C99 FDE1                A  6733    	POP	IY
013C9B DD27FC              A  6734    	LD	HL,(IX+-4)
013C9E DD5EFF              A  6735    	LD	E,(IX+-1)
013CA1 01640000            A  6736    	LD	BC,100
013CA5 AF                  A  6737    	XOR	A,A
013CA6 CD 60 70 01         A  6738    	CALL	__ldivu
013CAA 010A0000            A  6739    	LD	BC,10
013CAE AF                  A  6740    	XOR	A,A
013CAF CD 1D 72 01         A  6741    	CALL	__lremu
013CB3 01040000            A  6742    	LD	BC,4
013CB7 AF                  A  6743    	XOR	A,A
013CB8 CD 60 72 01         A  6744    	CALL	__lmulu
013CBC FDE5                A  6745    	PUSH	IY
013CBE ED5580              A  6746    	LEA	IY,IX+-128	; unspill
013CC1 FD07C0              A  6747    	LD	BC,(IY+-64)
013CC4 FDE1                A  6748    	POP	IY
013CC6 09                  A  6749    	ADD	HL,BC
013CC7 E5FDE1              A  6750    	LD	IY,HL
013CCA FD2700              A  6751    	LD	HL,(IY)
013CCD FD5E03              A  6752    	LD	E,(IY+3)
013CD0 0140420F            A  6753    	LD	BC,1000000
013CD4 AF                  A  6754    	XOR	A,A
013CD5 CD 60 72 01         A  6755    	CALL	__lmuls
013CD9 DD07FC              A  6756    	LD	BC,(IX+-4)
013CDC DD7EFF              A  6757    	LD	A,(IX+-1)
013CDF CD 0B 6E 01         A  6758    	CALL	__ladd
013CE3 DD2FFC              A  6759    	LD	(IX+-4),HL
013CE6 DD73FF              A  6760    	LD	(IX+-1),E
Zilog eZ80 Macro Assembler Version 4.1 (10060805) RELISTED26-Aug-11     11:07:39     page: 131


PC     Object              I  Line    Source C:\Users\fog76\Desktop\CHFIGH~2\Debug\main.src
013CE9 2A EB 7F 01         A  6761    	LD	HL,(_prof)
013CED 3A EE 7F 01         A  6762    	LD	A,(_prof+3)
013CF1 5F                  A  6763    	LD	E,A
013CF2 AF                  A  6764    	XOR	A,A
013CF3 01000000            A  6765    	LD	BC,0
013CF7 CD B2 71 01         A  6766    	CALL	__lcmps
013CFB 20 0F               A  6767    	JR	NZ,L_428
013CFD DD07FC              A  6768    	LD	BC,(IX+-4)
013D00 ED43 DC 7F 01       A  6769    	LD	(_mossa_in_analisi),BC
013D05 DD7EFF              A  6770    	LD	A,(IX+-1)
013D08 32 DF 7F 01         A  6771    	LD	(_mossa_in_analisi+3),A
013D0C                     A  6772    L_428:
013D0C DD7E06              A  6773    	LD	A,(IX+6)
013D0F B7                  A  6774    	OR	A,A
013D10 20 12               A  6775    	JR	NZ,L_427
013D12 DD4EFF              A  6776    	LD	C,(IX+-1)
013D15 0600                A  6777    	LD	B,0
013D17 C5                  A  6778    	PUSH	BC
013D18 DD07FC              A  6779    	LD	BC,(IX+-4)
013D1B C5                  A  6780    	PUSH	BC
013D1C CD 03 08 01         A  6781    	CALL	_sceglimossa
013D20 C1                  A  6782    	POP	BC
013D21 C1                  A  6783    	POP	BC
013D22 18 10               A  6784    	JR	L_430
013D24                     A  6785    L_427:
013D24 DD4EFF              A  6786    	LD	C,(IX+-1)
013D27 0600                A  6787    	LD	B,0
013D29 C5                  A  6788    	PUSH	BC
013D2A DD07FC              A  6789    	LD	BC,(IX+-4)
013D2D C5                  A  6790    	PUSH	BC
013D2E CD 3D 06 01         A  6791    	CALL	_raccogli
013D32 C1                  A  6792    	POP	BC
013D33 C1                  A  6793    	POP	BC
013D34                     A  6794    L_430:
013D34 DD07F0              A  6795    	LD	BC,(IX+-16)
013D37 DD0FF6              A  6796    	LD	(IX+-10),BC
013D3A DD07F3              A  6797    	LD	BC,(IX+-13)
013D3D DD0FF9              A  6798    	LD	(IX+-7),BC
013D40 DD27F0              A  6799    	LD	HL,(IX+-16)
013D43 29                  A  6800    	ADD	HL,HL
013D44 29                  A  6801    	ADD	HL,HL
013D45 29                  A  6802    	ADD	HL,HL
013D46 29                  A  6803    	ADD	HL,HL
013D47 29                  A  6804    	ADD	HL,HL
013D48 B7                  A  6805    	OR	A,A
013D49 DD07F0              A  6806    	LD	BC,(IX+-16)
013D4C ED42                A  6807    	SBC	HL,BC
013D4E 29                  A  6808    	ADD	HL,HL
013D4F 29                  A  6809    	ADD	HL,HL
013D50 DD07F0              A  6810    	LD	BC,(IX+-16)
013D53 09                  A  6811    	ADD	HL,BC
013D54 29                  A  6812    	ADD	HL,HL
Zilog eZ80 Macro Assembler Version 4.1 (10060805) RELISTED26-Aug-11     11:07:39     page: 132


PC     Object              I  Line    Source C:\Users\fog76\Desktop\CHFIGH~2\Debug\main.src
013D55 29                  A  6813    	ADD	HL,HL
013D56 29                  A  6814    	ADD	HL,HL
013D57 E5C1                A  6815    	LD	BC,HL
013D59 CD AB 71 01         A  6816    	CALL	__itol
013D5D DD0FFC              A  6817    	LD	(IX+-4),BC
013D60 DD77FF              A  6818    	LD	(IX+-1),A
013D63 DD27F3              A  6819    	LD	HL,(IX+-13)
013D66 29                  A  6820    	ADD	HL,HL
013D67 29                  A  6821    	ADD	HL,HL
013D68 B7                  A  6822    	OR	A,A
013D69 DD07F3              A  6823    	LD	BC,(IX+-13)
013D6C ED42                A  6824    	SBC	HL,BC
013D6E 29                  A  6825    	ADD	HL,HL
013D6F 29                  A  6826    	ADD	HL,HL
013D70 29                  A  6827    	ADD	HL,HL
013D71 DD07F3              A  6828    	LD	BC,(IX+-13)
013D74 09                  A  6829    	ADD	HL,BC
013D75 29                  A  6830    	ADD	HL,HL
013D76 29                  A  6831    	ADD	HL,HL
013D77 E5C1                A  6832    	LD	BC,HL
013D79 CD AB 71 01         A  6833    	CALL	__itol
013D7D 5F                  A  6834    	LD	E,A
013D7E C5E1                A  6835    	LD	HL,BC
013D80 DD07FC              A  6836    	LD	BC,(IX+-4)
013D83 DD7EFF              A  6837    	LD	A,(IX+-1)
013D86 CD 0B 6E 01         A  6838    	CALL	__ladd
013D8A DD2FFC              A  6839    	LD	(IX+-4),HL
013D8D DD73FF              A  6840    	LD	(IX+-1),E
013D90 DD31F6              A  6841    	LD	IY,(IX+-10)
013D93 ED3302              A  6842    	LEA	IY,IY+2
013D96 DD3EF6              A  6843    	LD	(IX+-10),IY
013D99 DD07F9              A  6844    	LD	BC,(IX+-7)
013D9C 0B                  A  6845    	DEC	BC
013D9D DD0FF9              A  6846    	LD	(IX+-7),BC
013DA0 CD AB 71 01         A  6847    	CALL	__itol
013DA4 DD27FC              A  6848    	LD	HL,(IX+-4)
013DA7 DD5EFF              A  6849    	LD	E,(IX+-1)
013DAA CD 0B 6E 01         A  6850    	CALL	__ladd
013DAE DD2FFC              A  6851    	LD	(IX+-4),HL
013DB1 DD73FF              A  6852    	LD	(IX+-1),E
013DB4 DD27F6              A  6853    	LD	HL,(IX+-10)
013DB7 29                  A  6854    	ADD	HL,HL
013DB8 29                  A  6855    	ADD	HL,HL
013DB9 DD07F6              A  6856    	LD	BC,(IX+-10)
013DBC 09                  A  6857    	ADD	HL,BC
013DBD 29                  A  6858    	ADD	HL,HL
013DBE E5C1                A  6859    	LD	BC,HL
013DC0 CD AB 71 01         A  6860    	CALL	__itol
013DC4 5F                  A  6861    	LD	E,A
013DC5 C5E1                A  6862    	LD	HL,BC
013DC7 DD07FC              A  6863    	LD	BC,(IX+-4)
013DCA DD7EFF              A  6864    	LD	A,(IX+-1)
Zilog eZ80 Macro Assembler Version 4.1 (10060805) RELISTED26-Aug-11     11:07:39     page: 133


PC     Object              I  Line    Source C:\Users\fog76\Desktop\CHFIGH~2\Debug\main.src
013DCD CD 0B 6E 01         A  6865    	CALL	__ladd
013DD1 DD2FFC              A  6866    	LD	(IX+-4),HL
013DD4 DD73FF              A  6867    	LD	(IX+-1),E
013DD7 DD4EFF              A  6868    	LD	C,(IX+-1)
013DDA 0600                A  6869    	LD	B,0
013DDC C5                  A  6870    	PUSH	BC
013DDD DD07FC              A  6871    	LD	BC,(IX+-4)
013DE0 C5                  A  6872    	PUSH	BC
013DE1 C5                  A  6873    	PUSH	BC
013DE2 E5                  A  6874    	PUSH	HL
013DE3 FDE5E1              A  6875    	LD	HL,IY
013DE6 0125FFFF            A  6876    	LD	BC,-219
013DEA CD 2A 70 01         A  6877    	CALL	__istix
013DEE E1                  A  6878    	POP	HL
013DEF C1                  A  6879    	POP	BC
013DF0 CD 98 1E 01         A  6880    	CALL	_mossaimposs
013DF4 C5                  A  6881    	PUSH	BC
013DF5 0125FFFF            A  6882    	LD	BC,-219
013DF9 E5                  A  6883    	PUSH	HL
013DFA CD CD 72 01         A  6884    	CALL	__ildix
013DFE E5FDE1              A  6885    	LD	IY,HL
013E01 E1                  A  6886    	POP	HL
013E02 C1                  A  6887    	POP	BC
013E03 C1                  A  6888    	POP	BC
013E04 C1                  A  6889    	POP	BC
013E05 01020000            A  6890    	LD	BC,2
013E09 B7                  A  6891    	OR	A,A
013E0A ED42                A  6892    	SBC	HL,BC
013E0C CA 4E 3F 01         A  6893    	JR	Z,L_437
013E10 DD27FC              A  6894    	LD	HL,(IX+-4)
013E13 DD5EFF              A  6895    	LD	E,(IX+-1)
013E16 010A0000            A  6896    	LD	BC,10
013E1A AF                  A  6897    	XOR	A,A
013E1B CD 60 70 01         A  6898    	CALL	__ldivu
013E1F 010A0000            A  6899    	LD	BC,10
013E23 AF                  A  6900    	XOR	A,A
013E24 CD 1D 72 01         A  6901    	CALL	__lremu
013E28 01280000            A  6902    	LD	BC,40
013E2C AF                  A  6903    	XOR	A,A
013E2D CD 60 72 01         A  6904    	CALL	__lmulu
013E31 01 D5 75 01         A  6905    	LD	BC,_scac
013E35 09                  A  6906    	ADD	HL,BC
013E36 FDE5                A  6907    	PUSH	IY
013E38 ED5580              A  6908    	LEA	IY,IX+-128	; spill
013E3B FD2FC9              A  6909    	LD	(IY+-55),HL	; spill
013E3E FDE1                A  6910    	POP	IY
013E40 DD27FC              A  6911    	LD	HL,(IX+-4)
013E43 DD5EFF              A  6912    	LD	E,(IX+-1)
013E46 010A0000            A  6913    	LD	BC,10
013E4A AF                  A  6914    	XOR	A,A
013E4B CD 1D 72 01         A  6915    	CALL	__lremu
013E4F 01040000            A  6916    	LD	BC,4
Zilog eZ80 Macro Assembler Version 4.1 (10060805) RELISTED26-Aug-11     11:07:39     page: 134


PC     Object              I  Line    Source C:\Users\fog76\Desktop\CHFIGH~2\Debug\main.src
013E53 AF                  A  6917    	XOR	A,A
013E54 CD 60 72 01         A  6918    	CALL	__lmulu
013E58 FDE5                A  6919    	PUSH	IY
013E5A ED5580              A  6920    	LEA	IY,IX+-128	; unspill
013E5D FD07C9              A  6921    	LD	BC,(IY+-55)
013E60 FDE1                A  6922    	POP	IY
013E62 09                  A  6923    	ADD	HL,BC
013E63 E5FDE1              A  6924    	LD	IY,HL
013E66 FD2700              A  6925    	LD	HL,(IY)
013E69 FD5E03              A  6926    	LD	E,(IY+3)
013E6C 01102700            A  6927    	LD	BC,10000
013E70 AF                  A  6928    	XOR	A,A
013E71 CD 60 72 01         A  6929    	CALL	__lmuls
013E75 DD07FC              A  6930    	LD	BC,(IX+-4)
013E78 DD7EFF              A  6931    	LD	A,(IX+-1)
013E7B CD 0B 6E 01         A  6932    	CALL	__ladd
013E7F DD2FFC              A  6933    	LD	(IX+-4),HL
013E82 DD73FF              A  6934    	LD	(IX+-1),E
013E85 DD27FC              A  6935    	LD	HL,(IX+-4)
013E88 DD5EFF              A  6936    	LD	E,(IX+-1)
013E8B 01E80300            A  6937    	LD	BC,1000
013E8F AF                  A  6938    	XOR	A,A
013E90 CD 60 70 01         A  6939    	CALL	__ldivu
013E94 010A0000            A  6940    	LD	BC,10
013E98 AF                  A  6941    	XOR	A,A
013E99 CD 1D 72 01         A  6942    	CALL	__lremu
013E9D 01280000            A  6943    	LD	BC,40
013EA1 AF                  A  6944    	XOR	A,A
013EA2 CD 60 72 01         A  6945    	CALL	__lmulu
013EA6 01 D5 75 01         A  6946    	LD	BC,_scac
013EAA 09                  A  6947    	ADD	HL,BC
013EAB FDE5                A  6948    	PUSH	IY
013EAD ED5580              A  6949    	LEA	IY,IX+-128	; spill
013EB0 FD2FC6              A  6950    	LD	(IY+-58),HL	; spill
013EB3 FDE1                A  6951    	POP	IY
013EB5 DD27FC              A  6952    	LD	HL,(IX+-4)
013EB8 DD5EFF              A  6953    	LD	E,(IX+-1)
013EBB 01640000            A  6954    	LD	BC,100
013EBF AF                  A  6955    	XOR	A,A
013EC0 CD 60 70 01         A  6956    	CALL	__ldivu
013EC4 010A0000            A  6957    	LD	BC,10
013EC8 AF                  A  6958    	XOR	A,A
013EC9 CD 1D 72 01         A  6959    	CALL	__lremu
013ECD 01040000            A  6960    	LD	BC,4
013ED1 AF                  A  6961    	XOR	A,A
013ED2 CD 60 72 01         A  6962    	CALL	__lmulu
013ED6 FDE5                A  6963    	PUSH	IY
013ED8 ED5580              A  6964    	LEA	IY,IX+-128	; unspill
013EDB FD07C6              A  6965    	LD	BC,(IY+-58)
013EDE FDE1                A  6966    	POP	IY
013EE0 09                  A  6967    	ADD	HL,BC
013EE1 E5FDE1              A  6968    	LD	IY,HL
Zilog eZ80 Macro Assembler Version 4.1 (10060805) RELISTED26-Aug-11     11:07:39     page: 135


PC     Object              I  Line    Source C:\Users\fog76\Desktop\CHFIGH~2\Debug\main.src
013EE4 FD2700              A  6969    	LD	HL,(IY)
013EE7 FD5E03              A  6970    	LD	E,(IY+3)
013EEA 0140420F            A  6971    	LD	BC,1000000
013EEE AF                  A  6972    	XOR	A,A
013EEF CD 60 72 01         A  6973    	CALL	__lmuls
013EF3 DD07FC              A  6974    	LD	BC,(IX+-4)
013EF6 DD7EFF              A  6975    	LD	A,(IX+-1)
013EF9 CD 0B 6E 01         A  6976    	CALL	__ladd
013EFD DD2FFC              A  6977    	LD	(IX+-4),HL
013F00 DD73FF              A  6978    	LD	(IX+-1),E
013F03 2A EB 7F 01         A  6979    	LD	HL,(_prof)
013F07 3A EE 7F 01         A  6980    	LD	A,(_prof+3)
013F0B 5F                  A  6981    	LD	E,A
013F0C AF                  A  6982    	XOR	A,A
013F0D 01000000            A  6983    	LD	BC,0
013F11 CD B2 71 01         A  6984    	CALL	__lcmps
013F15 20 0F               A  6985    	JR	NZ,L_435
013F17 DD07FC              A  6986    	LD	BC,(IX+-4)
013F1A ED43 DC 7F 01       A  6987    	LD	(_mossa_in_analisi),BC
013F1F DD7EFF              A  6988    	LD	A,(IX+-1)
013F22 32 DF 7F 01         A  6989    	LD	(_mossa_in_analisi+3),A
013F26                     A  6990    L_435:
013F26 DD7E06              A  6991    	LD	A,(IX+6)
013F29 B7                  A  6992    	OR	A,A
013F2A 20 12               A  6993    	JR	NZ,L_434
013F2C DD4EFF              A  6994    	LD	C,(IX+-1)
013F2F 0600                A  6995    	LD	B,0
013F31 C5                  A  6996    	PUSH	BC
013F32 DD07FC              A  6997    	LD	BC,(IX+-4)
013F35 C5                  A  6998    	PUSH	BC
013F36 CD 03 08 01         A  6999    	CALL	_sceglimossa
013F3A C1                  A  7000    	POP	BC
013F3B C1                  A  7001    	POP	BC
013F3C 18 10               A  7002    	JR	L_437
013F3E                     A  7003    L_434:
013F3E DD4EFF              A  7004    	LD	C,(IX+-1)
013F41 0600                A  7005    	LD	B,0
013F43 C5                  A  7006    	PUSH	BC
013F44 DD07FC              A  7007    	LD	BC,(IX+-4)
013F47 C5                  A  7008    	PUSH	BC
013F48 CD 3D 06 01         A  7009    	CALL	_raccogli
013F4C C1                  A  7010    	POP	BC
013F4D C1                  A  7011    	POP	BC
013F4E                     A  7012    L_437:
013F4E DD07F0              A  7013    	LD	BC,(IX+-16)
013F51 DD0FF6              A  7014    	LD	(IX+-10),BC
013F54 DD07F3              A  7015    	LD	BC,(IX+-13)
013F57 DD0FF9              A  7016    	LD	(IX+-7),BC
013F5A DD27F0              A  7017    	LD	HL,(IX+-16)
013F5D 29                  A  7018    	ADD	HL,HL
013F5E 29                  A  7019    	ADD	HL,HL
013F5F 29                  A  7020    	ADD	HL,HL
Zilog eZ80 Macro Assembler Version 4.1 (10060805) RELISTED26-Aug-11     11:07:39     page: 136


PC     Object              I  Line    Source C:\Users\fog76\Desktop\CHFIGH~2\Debug\main.src
013F60 29                  A  7021    	ADD	HL,HL
013F61 29                  A  7022    	ADD	HL,HL
013F62 B7                  A  7023    	OR	A,A
013F63 DD07F0              A  7024    	LD	BC,(IX+-16)
013F66 ED42                A  7025    	SBC	HL,BC
013F68 29                  A  7026    	ADD	HL,HL
013F69 29                  A  7027    	ADD	HL,HL
013F6A DD07F0              A  7028    	LD	BC,(IX+-16)
013F6D 09                  A  7029    	ADD	HL,BC
013F6E 29                  A  7030    	ADD	HL,HL
013F6F 29                  A  7031    	ADD	HL,HL
013F70 29                  A  7032    	ADD	HL,HL
013F71 E5C1                A  7033    	LD	BC,HL
013F73 CD AB 71 01         A  7034    	CALL	__itol
013F77 DD0FFC              A  7035    	LD	(IX+-4),BC
013F7A DD77FF              A  7036    	LD	(IX+-1),A
013F7D DD27F3              A  7037    	LD	HL,(IX+-13)
013F80 29                  A  7038    	ADD	HL,HL
013F81 29                  A  7039    	ADD	HL,HL
013F82 B7                  A  7040    	OR	A,A
013F83 DD07F3              A  7041    	LD	BC,(IX+-13)
013F86 ED42                A  7042    	SBC	HL,BC
013F88 29                  A  7043    	ADD	HL,HL
013F89 29                  A  7044    	ADD	HL,HL
013F8A 29                  A  7045    	ADD	HL,HL
013F8B DD07F3              A  7046    	LD	BC,(IX+-13)
013F8E 09                  A  7047    	ADD	HL,BC
013F8F 29                  A  7048    	ADD	HL,HL
013F90 29                  A  7049    	ADD	HL,HL
013F91 E5C1                A  7050    	LD	BC,HL
013F93 CD AB 71 01         A  7051    	CALL	__itol
013F97 5F                  A  7052    	LD	E,A
013F98 C5E1                A  7053    	LD	HL,BC
013F9A DD07FC              A  7054    	LD	BC,(IX+-4)
013F9D DD7EFF              A  7055    	LD	A,(IX+-1)
013FA0 CD 0B 6E 01         A  7056    	CALL	__ladd
013FA4 DD2FFC              A  7057    	LD	(IX+-4),HL
013FA7 DD73FF              A  7058    	LD	(IX+-1),E
013FAA DD31F6              A  7059    	LD	IY,(IX+-10)
013FAD ED33FE              A  7060    	LEA	IY,IY+-2
013FB0 DD3EF6              A  7061    	LD	(IX+-10),IY
013FB3 DD07F9              A  7062    	LD	BC,(IX+-7)
013FB6 03                  A  7063    	INC	BC
013FB7 DD0FF9              A  7064    	LD	(IX+-7),BC
013FBA CD AB 71 01         A  7065    	CALL	__itol
013FBE DD27FC              A  7066    	LD	HL,(IX+-4)
013FC1 DD5EFF              A  7067    	LD	E,(IX+-1)
013FC4 CD 0B 6E 01         A  7068    	CALL	__ladd
013FC8 DD2FFC              A  7069    	LD	(IX+-4),HL
013FCB DD73FF              A  7070    	LD	(IX+-1),E
013FCE DD27F6              A  7071    	LD	HL,(IX+-10)
013FD1 29                  A  7072    	ADD	HL,HL
Zilog eZ80 Macro Assembler Version 4.1 (10060805) RELISTED26-Aug-11     11:07:39     page: 137


PC     Object              I  Line    Source C:\Users\fog76\Desktop\CHFIGH~2\Debug\main.src
013FD2 29                  A  7073    	ADD	HL,HL
013FD3 DD07F6              A  7074    	LD	BC,(IX+-10)
013FD6 09                  A  7075    	ADD	HL,BC
013FD7 29                  A  7076    	ADD	HL,HL
013FD8 E5C1                A  7077    	LD	BC,HL
013FDA CD AB 71 01         A  7078    	CALL	__itol
013FDE 5F                  A  7079    	LD	E,A
013FDF C5E1                A  7080    	LD	HL,BC
013FE1 DD07FC              A  7081    	LD	BC,(IX+-4)
013FE4 DD7EFF              A  7082    	LD	A,(IX+-1)
013FE7 CD 0B 6E 01         A  7083    	CALL	__ladd
013FEB DD2FFC              A  7084    	LD	(IX+-4),HL
013FEE DD73FF              A  7085    	LD	(IX+-1),E
013FF1 DD4EFF              A  7086    	LD	C,(IX+-1)
013FF4 0600                A  7087    	LD	B,0
013FF6 C5                  A  7088    	PUSH	BC
013FF7 DD07FC              A  7089    	LD	BC,(IX+-4)
013FFA C5                  A  7090    	PUSH	BC
013FFB C5                  A  7091    	PUSH	BC
013FFC E5                  A  7092    	PUSH	HL
013FFD FDE5E1              A  7093    	LD	HL,IY
014000 0125FFFF            A  7094    	LD	BC,-219
014004 CD 2A 70 01         A  7095    	CALL	__istix
014008 E1                  A  7096    	POP	HL
014009 C1                  A  7097    	POP	BC
01400A CD 98 1E 01         A  7098    	CALL	_mossaimposs
01400E C5                  A  7099    	PUSH	BC
01400F 0125FFFF            A  7100    	LD	BC,-219
014013 E5                  A  7101    	PUSH	HL
014014 CD CD 72 01         A  7102    	CALL	__ildix
014018 E5FDE1              A  7103    	LD	IY,HL
01401B E1                  A  7104    	POP	HL
01401C C1                  A  7105    	POP	BC
01401D C1                  A  7106    	POP	BC
01401E C1                  A  7107    	POP	BC
01401F 01020000            A  7108    	LD	BC,2
014023 B7                  A  7109    	OR	A,A
014024 ED42                A  7110    	SBC	HL,BC
014026 CA 68 41 01         A  7111    	JR	Z,L_444
01402A DD27FC              A  7112    	LD	HL,(IX+-4)
01402D DD5EFF              A  7113    	LD	E,(IX+-1)
014030 010A0000            A  7114    	LD	BC,10
014034 AF                  A  7115    	XOR	A,A
014035 CD 60 70 01         A  7116    	CALL	__ldivu
014039 010A0000            A  7117    	LD	BC,10
01403D AF                  A  7118    	XOR	A,A
01403E CD 1D 72 01         A  7119    	CALL	__lremu
014042 01280000            A  7120    	LD	BC,40
014046 AF                  A  7121    	XOR	A,A
014047 CD 60 72 01         A  7122    	CALL	__lmulu
01404B 01 D5 75 01         A  7123    	LD	BC,_scac
01404F 09                  A  7124    	ADD	HL,BC
Zilog eZ80 Macro Assembler Version 4.1 (10060805) RELISTED26-Aug-11     11:07:39     page: 138


PC     Object              I  Line    Source C:\Users\fog76\Desktop\CHFIGH~2\Debug\main.src
014050 FDE5                A  7125    	PUSH	IY
014052 ED5580              A  7126    	LEA	IY,IX+-128	; spill
014055 FD2FCF              A  7127    	LD	(IY+-49),HL	; spill
014058 FDE1                A  7128    	POP	IY
01405A DD27FC              A  7129    	LD	HL,(IX+-4)
01405D DD5EFF              A  7130    	LD	E,(IX+-1)
014060 010A0000            A  7131    	LD	BC,10
014064 AF                  A  7132    	XOR	A,A
014065 CD 1D 72 01         A  7133    	CALL	__lremu
014069 01040000            A  7134    	LD	BC,4
01406D AF                  A  7135    	XOR	A,A
01406E CD 60 72 01         A  7136    	CALL	__lmulu
014072 FDE5                A  7137    	PUSH	IY
014074 ED5580              A  7138    	LEA	IY,IX+-128	; unspill
014077 FD07CF              A  7139    	LD	BC,(IY+-49)
01407A FDE1                A  7140    	POP	IY
01407C 09                  A  7141    	ADD	HL,BC
01407D E5FDE1              A  7142    	LD	IY,HL
014080 FD2700              A  7143    	LD	HL,(IY)
014083 FD5E03              A  7144    	LD	E,(IY+3)
014086 01102700            A  7145    	LD	BC,10000
01408A AF                  A  7146    	XOR	A,A
01408B CD 60 72 01         A  7147    	CALL	__lmuls
01408F DD07FC              A  7148    	LD	BC,(IX+-4)
014092 DD7EFF              A  7149    	LD	A,(IX+-1)
014095 CD 0B 6E 01         A  7150    	CALL	__ladd
014099 DD2FFC              A  7151    	LD	(IX+-4),HL
01409C DD73FF              A  7152    	LD	(IX+-1),E
01409F DD27FC              A  7153    	LD	HL,(IX+-4)
0140A2 DD5EFF              A  7154    	LD	E,(IX+-1)
0140A5 01E80300            A  7155    	LD	BC,1000
0140A9 AF                  A  7156    	XOR	A,A
0140AA CD 60 70 01         A  7157    	CALL	__ldivu
0140AE 010A0000            A  7158    	LD	BC,10
0140B2 AF                  A  7159    	XOR	A,A
0140B3 CD 1D 72 01         A  7160    	CALL	__lremu
0140B7 01280000            A  7161    	LD	BC,40
0140BB AF                  A  7162    	XOR	A,A
0140BC CD 60 72 01         A  7163    	CALL	__lmulu
0140C0 01 D5 75 01         A  7164    	LD	BC,_scac
0140C4 09                  A  7165    	ADD	HL,BC
0140C5 FDE5                A  7166    	PUSH	IY
0140C7 ED5580              A  7167    	LEA	IY,IX+-128	; spill
0140CA FD2FCC              A  7168    	LD	(IY+-52),HL	; spill
0140CD FDE1                A  7169    	POP	IY
0140CF DD27FC              A  7170    	LD	HL,(IX+-4)
0140D2 DD5EFF              A  7171    	LD	E,(IX+-1)
0140D5 01640000            A  7172    	LD	BC,100
0140D9 AF                  A  7173    	XOR	A,A
0140DA CD 60 70 01         A  7174    	CALL	__ldivu
0140DE 010A0000            A  7175    	LD	BC,10
0140E2 AF                  A  7176    	XOR	A,A
Zilog eZ80 Macro Assembler Version 4.1 (10060805) RELISTED26-Aug-11     11:07:39     page: 139


PC     Object              I  Line    Source C:\Users\fog76\Desktop\CHFIGH~2\Debug\main.src
0140E3 CD 1D 72 01         A  7177    	CALL	__lremu
0140E7 01040000            A  7178    	LD	BC,4
0140EB AF                  A  7179    	XOR	A,A
0140EC CD 60 72 01         A  7180    	CALL	__lmulu
0140F0 FDE5                A  7181    	PUSH	IY
0140F2 ED5580              A  7182    	LEA	IY,IX+-128	; unspill
0140F5 FD07CC              A  7183    	LD	BC,(IY+-52)
0140F8 FDE1                A  7184    	POP	IY
0140FA 09                  A  7185    	ADD	HL,BC
0140FB E5FDE1              A  7186    	LD	IY,HL
0140FE FD2700              A  7187    	LD	HL,(IY)
014101 FD5E03              A  7188    	LD	E,(IY+3)
014104 0140420F            A  7189    	LD	BC,1000000
014108 AF                  A  7190    	XOR	A,A
014109 CD 60 72 01         A  7191    	CALL	__lmuls
01410D DD07FC              A  7192    	LD	BC,(IX+-4)
014110 DD7EFF              A  7193    	LD	A,(IX+-1)
014113 CD 0B 6E 01         A  7194    	CALL	__ladd
014117 DD2FFC              A  7195    	LD	(IX+-4),HL
01411A DD73FF              A  7196    	LD	(IX+-1),E
01411D 2A EB 7F 01         A  7197    	LD	HL,(_prof)
014121 3A EE 7F 01         A  7198    	LD	A,(_prof+3)
014125 5F                  A  7199    	LD	E,A
014126 AF                  A  7200    	XOR	A,A
014127 01000000            A  7201    	LD	BC,0
01412B CD B2 71 01         A  7202    	CALL	__lcmps
01412F 20 0F               A  7203    	JR	NZ,L_442
014131 DD07FC              A  7204    	LD	BC,(IX+-4)
014134 ED43 DC 7F 01       A  7205    	LD	(_mossa_in_analisi),BC
014139 DD7EFF              A  7206    	LD	A,(IX+-1)
01413C 32 DF 7F 01         A  7207    	LD	(_mossa_in_analisi+3),A
014140                     A  7208    L_442:
014140 DD7E06              A  7209    	LD	A,(IX+6)
014143 B7                  A  7210    	OR	A,A
014144 20 12               A  7211    	JR	NZ,L_441
014146 DD4EFF              A  7212    	LD	C,(IX+-1)
014149 0600                A  7213    	LD	B,0
01414B C5                  A  7214    	PUSH	BC
01414C DD07FC              A  7215    	LD	BC,(IX+-4)
01414F C5                  A  7216    	PUSH	BC
014150 CD 03 08 01         A  7217    	CALL	_sceglimossa
014154 C1                  A  7218    	POP	BC
014155 C1                  A  7219    	POP	BC
014156 18 10               A  7220    	JR	L_444
014158                     A  7221    L_441:
014158 DD4EFF              A  7222    	LD	C,(IX+-1)
01415B 0600                A  7223    	LD	B,0
01415D C5                  A  7224    	PUSH	BC
01415E DD07FC              A  7225    	LD	BC,(IX+-4)
014161 C5                  A  7226    	PUSH	BC
014162 CD 3D 06 01         A  7227    	CALL	_raccogli
014166 C1                  A  7228    	POP	BC
Zilog eZ80 Macro Assembler Version 4.1 (10060805) RELISTED26-Aug-11     11:07:39     page: 140


PC     Object              I  Line    Source C:\Users\fog76\Desktop\CHFIGH~2\Debug\main.src
014167 C1                  A  7229    	POP	BC
014168                     A  7230    L_444:
014168 DD07F0              A  7231    	LD	BC,(IX+-16)
01416B DD0FF6              A  7232    	LD	(IX+-10),BC
01416E DD07F3              A  7233    	LD	BC,(IX+-13)
014171 DD0FF9              A  7234    	LD	(IX+-7),BC
014174 DD27F0              A  7235    	LD	HL,(IX+-16)
014177 29                  A  7236    	ADD	HL,HL
014178 29                  A  7237    	ADD	HL,HL
014179 29                  A  7238    	ADD	HL,HL
01417A 29                  A  7239    	ADD	HL,HL
01417B 29                  A  7240    	ADD	HL,HL
01417C B7                  A  7241    	OR	A,A
01417D DD07F0              A  7242    	LD	BC,(IX+-16)
014180 ED42                A  7243    	SBC	HL,BC
014182 29                  A  7244    	ADD	HL,HL
014183 29                  A  7245    	ADD	HL,HL
014184 DD07F0              A  7246    	LD	BC,(IX+-16)
014187 09                  A  7247    	ADD	HL,BC
014188 29                  A  7248    	ADD	HL,HL
014189 29                  A  7249    	ADD	HL,HL
01418A 29                  A  7250    	ADD	HL,HL
01418B E5C1                A  7251    	LD	BC,HL
01418D CD AB 71 01         A  7252    	CALL	__itol
014191 DD0FFC              A  7253    	LD	(IX+-4),BC
014194 DD77FF              A  7254    	LD	(IX+-1),A
014197 DD27F3              A  7255    	LD	HL,(IX+-13)
01419A 29                  A  7256    	ADD	HL,HL
01419B 29                  A  7257    	ADD	HL,HL
01419C B7                  A  7258    	OR	A,A
01419D DD07F3              A  7259    	LD	BC,(IX+-13)
0141A0 ED42                A  7260    	SBC	HL,BC
0141A2 29                  A  7261    	ADD	HL,HL
0141A3 29                  A  7262    	ADD	HL,HL
0141A4 29                  A  7263    	ADD	HL,HL
0141A5 DD07F3              A  7264    	LD	BC,(IX+-13)
0141A8 09                  A  7265    	ADD	HL,BC
0141A9 29                  A  7266    	ADD	HL,HL
0141AA 29                  A  7267    	ADD	HL,HL
0141AB E5C1                A  7268    	LD	BC,HL
0141AD CD AB 71 01         A  7269    	CALL	__itol
0141B1 5F                  A  7270    	LD	E,A
0141B2 C5E1                A  7271    	LD	HL,BC
0141B4 DD07FC              A  7272    	LD	BC,(IX+-4)
0141B7 DD7EFF              A  7273    	LD	A,(IX+-1)
0141BA CD 0B 6E 01         A  7274    	CALL	__ladd
0141BE DD2FFC              A  7275    	LD	(IX+-4),HL
0141C1 DD73FF              A  7276    	LD	(IX+-1),E
0141C4 DD31F6              A  7277    	LD	IY,(IX+-10)
0141C7 ED33FE              A  7278    	LEA	IY,IY+-2
0141CA DD3EF6              A  7279    	LD	(IX+-10),IY
0141CD DD07F9              A  7280    	LD	BC,(IX+-7)
Zilog eZ80 Macro Assembler Version 4.1 (10060805) RELISTED26-Aug-11     11:07:39     page: 141


PC     Object              I  Line    Source C:\Users\fog76\Desktop\CHFIGH~2\Debug\main.src
0141D0 0B                  A  7281    	DEC	BC
0141D1 DD0FF9              A  7282    	LD	(IX+-7),BC
0141D4 CD AB 71 01         A  7283    	CALL	__itol
0141D8 DD27FC              A  7284    	LD	HL,(IX+-4)
0141DB DD5EFF              A  7285    	LD	E,(IX+-1)
0141DE CD 0B 6E 01         A  7286    	CALL	__ladd
0141E2 DD2FFC              A  7287    	LD	(IX+-4),HL
0141E5 DD73FF              A  7288    	LD	(IX+-1),E
0141E8 DD27F6              A  7289    	LD	HL,(IX+-10)
0141EB 29                  A  7290    	ADD	HL,HL
0141EC 29                  A  7291    	ADD	HL,HL
0141ED DD07F6              A  7292    	LD	BC,(IX+-10)
0141F0 09                  A  7293    	ADD	HL,BC
0141F1 29                  A  7294    	ADD	HL,HL
0141F2 E5C1                A  7295    	LD	BC,HL
0141F4 CD AB 71 01         A  7296    	CALL	__itol
0141F8 5F                  A  7297    	LD	E,A
0141F9 C5E1                A  7298    	LD	HL,BC
0141FB DD07FC              A  7299    	LD	BC,(IX+-4)
0141FE DD7EFF              A  7300    	LD	A,(IX+-1)
014201 CD 0B 6E 01         A  7301    	CALL	__ladd
014205 DD2FFC              A  7302    	LD	(IX+-4),HL
014208 DD73FF              A  7303    	LD	(IX+-1),E
01420B DD4EFF              A  7304    	LD	C,(IX+-1)
01420E 0600                A  7305    	LD	B,0
014210 C5                  A  7306    	PUSH	BC
014211 DD07FC              A  7307    	LD	BC,(IX+-4)
014214 C5                  A  7308    	PUSH	BC
014215 C5                  A  7309    	PUSH	BC
014216 E5                  A  7310    	PUSH	HL
014217 FDE5E1              A  7311    	LD	HL,IY
01421A 0125FFFF            A  7312    	LD	BC,-219
01421E CD 2A 70 01         A  7313    	CALL	__istix
014222 E1                  A  7314    	POP	HL
014223 C1                  A  7315    	POP	BC
014224 CD 98 1E 01         A  7316    	CALL	_mossaimposs
014228 C5                  A  7317    	PUSH	BC
014229 0125FFFF            A  7318    	LD	BC,-219
01422D E5                  A  7319    	PUSH	HL
01422E CD CD 72 01         A  7320    	CALL	__ildix
014232 E5FDE1              A  7321    	LD	IY,HL
014235 E1                  A  7322    	POP	HL
014236 C1                  A  7323    	POP	BC
014237 C1                  A  7324    	POP	BC
014238 C1                  A  7325    	POP	BC
014239 01020000            A  7326    	LD	BC,2
01423D B7                  A  7327    	OR	A,A
01423E ED42                A  7328    	SBC	HL,BC
014240 CA 82 43 01         A  7329    	JR	Z,L_489
014244 DD27FC              A  7330    	LD	HL,(IX+-4)
014247 DD5EFF              A  7331    	LD	E,(IX+-1)
01424A 010A0000            A  7332    	LD	BC,10
Zilog eZ80 Macro Assembler Version 4.1 (10060805) RELISTED26-Aug-11     11:07:39     page: 142


PC     Object              I  Line    Source C:\Users\fog76\Desktop\CHFIGH~2\Debug\main.src
01424E AF                  A  7333    	XOR	A,A
01424F CD 60 70 01         A  7334    	CALL	__ldivu
014253 010A0000            A  7335    	LD	BC,10
014257 AF                  A  7336    	XOR	A,A
014258 CD 1D 72 01         A  7337    	CALL	__lremu
01425C 01280000            A  7338    	LD	BC,40
014260 AF                  A  7339    	XOR	A,A
014261 CD 60 72 01         A  7340    	CALL	__lmulu
014265 01 D5 75 01         A  7341    	LD	BC,_scac
014269 09                  A  7342    	ADD	HL,BC
01426A FDE5                A  7343    	PUSH	IY
01426C ED5580              A  7344    	LEA	IY,IX+-128	; spill
01426F FD2FD5              A  7345    	LD	(IY+-43),HL	; spill
014272 FDE1                A  7346    	POP	IY
014274 DD27FC              A  7347    	LD	HL,(IX+-4)
014277 DD5EFF              A  7348    	LD	E,(IX+-1)
01427A 010A0000            A  7349    	LD	BC,10
01427E AF                  A  7350    	XOR	A,A
01427F CD 1D 72 01         A  7351    	CALL	__lremu
014283 01040000            A  7352    	LD	BC,4
014287 AF                  A  7353    	XOR	A,A
014288 CD 60 72 01         A  7354    	CALL	__lmulu
01428C FDE5                A  7355    	PUSH	IY
01428E ED5580              A  7356    	LEA	IY,IX+-128	; unspill
014291 FD07D5              A  7357    	LD	BC,(IY+-43)
014294 FDE1                A  7358    	POP	IY
014296 09                  A  7359    	ADD	HL,BC
014297 E5FDE1              A  7360    	LD	IY,HL
01429A FD2700              A  7361    	LD	HL,(IY)
01429D FD5E03              A  7362    	LD	E,(IY+3)
0142A0 01102700            A  7363    	LD	BC,10000
0142A4 AF                  A  7364    	XOR	A,A
0142A5 CD 60 72 01         A  7365    	CALL	__lmuls
0142A9 DD07FC              A  7366    	LD	BC,(IX+-4)
0142AC DD7EFF              A  7367    	LD	A,(IX+-1)
0142AF CD 0B 6E 01         A  7368    	CALL	__ladd
0142B3 DD2FFC              A  7369    	LD	(IX+-4),HL
0142B6 DD73FF              A  7370    	LD	(IX+-1),E
0142B9 DD27FC              A  7371    	LD	HL,(IX+-4)
0142BC DD5EFF              A  7372    	LD	E,(IX+-1)
0142BF 01E80300            A  7373    	LD	BC,1000
0142C3 AF                  A  7374    	XOR	A,A
0142C4 CD 60 70 01         A  7375    	CALL	__ldivu
0142C8 010A0000            A  7376    	LD	BC,10
0142CC AF                  A  7377    	XOR	A,A
0142CD CD 1D 72 01         A  7378    	CALL	__lremu
0142D1 01280000            A  7379    	LD	BC,40
0142D5 AF                  A  7380    	XOR	A,A
0142D6 CD 60 72 01         A  7381    	CALL	__lmulu
0142DA 01 D5 75 01         A  7382    	LD	BC,_scac
0142DE 09                  A  7383    	ADD	HL,BC
0142DF FDE5                A  7384    	PUSH	IY
Zilog eZ80 Macro Assembler Version 4.1 (10060805) RELISTED26-Aug-11     11:07:39     page: 143


PC     Object              I  Line    Source C:\Users\fog76\Desktop\CHFIGH~2\Debug\main.src
0142E1 ED5580              A  7385    	LEA	IY,IX+-128	; spill
0142E4 FD2FD2              A  7386    	LD	(IY+-46),HL	; spill
0142E7 FDE1                A  7387    	POP	IY
0142E9 DD27FC              A  7388    	LD	HL,(IX+-4)
0142EC DD5EFF              A  7389    	LD	E,(IX+-1)
0142EF 01640000            A  7390    	LD	BC,100
0142F3 AF                  A  7391    	XOR	A,A
0142F4 CD 60 70 01         A  7392    	CALL	__ldivu
0142F8 010A0000            A  7393    	LD	BC,10
0142FC AF                  A  7394    	XOR	A,A
0142FD CD 1D 72 01         A  7395    	CALL	__lremu
014301 01040000            A  7396    	LD	BC,4
014305 AF                  A  7397    	XOR	A,A
014306 CD 60 72 01         A  7398    	CALL	__lmulu
01430A FDE5                A  7399    	PUSH	IY
01430C ED5580              A  7400    	LEA	IY,IX+-128	; unspill
01430F FD07D2              A  7401    	LD	BC,(IY+-46)
014312 FDE1                A  7402    	POP	IY
014314 09                  A  7403    	ADD	HL,BC
014315 E5FDE1              A  7404    	LD	IY,HL
014318 FD2700              A  7405    	LD	HL,(IY)
01431B FD5E03              A  7406    	LD	E,(IY+3)
01431E 0140420F            A  7407    	LD	BC,1000000
014322 AF                  A  7408    	XOR	A,A
014323 CD 60 72 01         A  7409    	CALL	__lmuls
014327 DD07FC              A  7410    	LD	BC,(IX+-4)
01432A DD7EFF              A  7411    	LD	A,(IX+-1)
01432D CD 0B 6E 01         A  7412    	CALL	__ladd
014331 DD2FFC              A  7413    	LD	(IX+-4),HL
014334 DD73FF              A  7414    	LD	(IX+-1),E
014337 2A EB 7F 01         A  7415    	LD	HL,(_prof)
01433B 3A EE 7F 01         A  7416    	LD	A,(_prof+3)
01433F 5F                  A  7417    	LD	E,A
014340 AF                  A  7418    	XOR	A,A
014341 01000000            A  7419    	LD	BC,0
014345 CD B2 71 01         A  7420    	CALL	__lcmps
014349 20 0F               A  7421    	JR	NZ,L_449
01434B DD07FC              A  7422    	LD	BC,(IX+-4)
01434E ED43 DC 7F 01       A  7423    	LD	(_mossa_in_analisi),BC
014353 DD7EFF              A  7424    	LD	A,(IX+-1)
014356 32 DF 7F 01         A  7425    	LD	(_mossa_in_analisi+3),A
01435A                     A  7426    L_449:
01435A DD7E06              A  7427    	LD	A,(IX+6)
01435D B7                  A  7428    	OR	A,A
01435E 20 12               A  7429    	JR	NZ,L_448
014360 DD4EFF              A  7430    	LD	C,(IX+-1)
014363 0600                A  7431    	LD	B,0
014365 C5                  A  7432    	PUSH	BC
014366 DD07FC              A  7433    	LD	BC,(IX+-4)
014369 C5                  A  7434    	PUSH	BC
01436A CD 03 08 01         A  7435    	CALL	_sceglimossa
01436E C1                  A  7436    	POP	BC
Zilog eZ80 Macro Assembler Version 4.1 (10060805) RELISTED26-Aug-11     11:07:39     page: 144


PC     Object              I  Line    Source C:\Users\fog76\Desktop\CHFIGH~2\Debug\main.src
01436F C1                  A  7437    	POP	BC
014370 18 10               A  7438    	JR	L_489
014372                     A  7439    L_448:
014372 DD4EFF              A  7440    	LD	C,(IX+-1)
014375 0600                A  7441    	LD	B,0
014377 C5                  A  7442    	PUSH	BC
014378 DD07FC              A  7443    	LD	BC,(IX+-4)
01437B C5                  A  7444    	PUSH	BC
01437C CD 3D 06 01         A  7445    	CALL	_raccogli
014380 C1                  A  7446    	POP	BC
014381 C1                  A  7447    	POP	BC
014382                     A  7448    L_489:
014382 DD27F0              A  7449    	LD	HL,(IX+-16)
014385 29                  A  7450    	ADD	HL,HL
014386 29                  A  7451    	ADD	HL,HL
014387 DD07F0              A  7452    	LD	BC,(IX+-16)
01438A 09                  A  7453    	ADD	HL,BC
01438B 29                  A  7454    	ADD	HL,HL
01438C 29                  A  7455    	ADD	HL,HL
01438D 29                  A  7456    	ADD	HL,HL
01438E 01 D5 75 01         A  7457    	LD	BC,_scac
014392 09                  A  7458    	ADD	HL,BC
014393 DD2FEA              A  7459    	LD	(IX+-22),HL
014396 DD2FD3              A  7460    	LD	(IX+-45),HL
014399 DD27F3              A  7461    	LD	HL,(IX+-13)
01439C 29                  A  7462    	ADD	HL,HL
01439D 29                  A  7463    	ADD	HL,HL
01439E DD07EA              A  7464    	LD	BC,(IX+-22)
0143A1 09                  A  7465    	ADD	HL,BC
0143A2 DD2FC1              A  7466    	LD	(IX+-63),HL
0143A5 DD31C1              A  7467    	LD	IY,(IX+-63)
0143A8 FD2700              A  7468    	LD	HL,(IY)
0143AB FD5E03              A  7469    	LD	E,(IY+3)
0143AE 01060000            A  7470    	LD	BC,6
0143B2 AF                  A  7471    	XOR	A,A
0143B3 CD B2 71 01         A  7472    	CALL	__lcmps
0143B7 C2 EE 4C 01         A  7473    	JR	NZ,L_526
0143BB 01000000            A  7474    	LD	BC,0
0143BF 2A E0 7F 01         A  7475    	LD	HL,(_col_prof)
0143C3 B7                  A  7476    	OR	A,A
0143C4 ED42                A  7477    	SBC	HL,BC
0143C6 C2 EE 4C 01         A  7478    	JR	NZ,L_526
0143CA DD27F3              A  7479    	LD	HL,(IX+-13)
0143CD 23                  A  7480    	INC	HL
0143CE 29                  A  7481    	ADD	HL,HL
0143CF 29                  A  7482    	ADD	HL,HL
0143D0 DD2FD7              A  7483    	LD	(IX+-41),HL
0143D3 DD07EA              A  7484    	LD	BC,(IX+-22)
0143D6 DD0FD3              A  7485    	LD	(IX+-45),BC
0143D9 DD27EA              A  7486    	LD	HL,(IX+-22)
0143DC DD07D7              A  7487    	LD	BC,(IX+-41)
0143DF 09                  A  7488    	ADD	HL,BC
Zilog eZ80 Macro Assembler Version 4.1 (10060805) RELISTED26-Aug-11     11:07:39     page: 145


PC     Object              I  Line    Source C:\Users\fog76\Desktop\CHFIGH~2\Debug\main.src
0143E0 DD2FBE              A  7489    	LD	(IX+-66),HL
0143E3 DD31BE              A  7490    	LD	IY,(IX+-66)
0143E6 FD2700              A  7491    	LD	HL,(IY)
0143E9 FD5E03              A  7492    	LD	E,(IY+3)
0143EC 01000000            A  7493    	LD	BC,0
0143F0 AF                  A  7494    	XOR	A,A
0143F1 CD B2 71 01         A  7495    	CALL	__lcmps
0143F5 28 04               A  7496    	JR	Z,L__281
0143F7 3E01                A  7497    	LD	A,1
0143F9 18 01               A  7498    	JR	L__282
0143FB                     A  7499    L__281:
0143FB AF                  A  7500    	XOR	A,A
0143FC                     A  7501    L__282:
0143FC DD77D6              A  7502    	LD	(IX+-42),A
0143FF B7                  A  7503    	OR	A,A
014400 C2 15 46 01         A  7504    	JR	NZ,L_469
014404 DD07F0              A  7505    	LD	BC,(IX+-16)
014407 DD0FF6              A  7506    	LD	(IX+-10),BC
01440A DD07F3              A  7507    	LD	BC,(IX+-13)
01440D DD0FF9              A  7508    	LD	(IX+-7),BC
014410 DD27F0              A  7509    	LD	HL,(IX+-16)
014413 29                  A  7510    	ADD	HL,HL
014414 29                  A  7511    	ADD	HL,HL
014415 29                  A  7512    	ADD	HL,HL
014416 29                  A  7513    	ADD	HL,HL
014417 29                  A  7514    	ADD	HL,HL
014418 B7                  A  7515    	OR	A,A
014419 DD07F0              A  7516    	LD	BC,(IX+-16)
01441C ED42                A  7517    	SBC	HL,BC
01441E 29                  A  7518    	ADD	HL,HL
01441F 29                  A  7519    	ADD	HL,HL
014420 DD07F0              A  7520    	LD	BC,(IX+-16)
014423 09                  A  7521    	ADD	HL,BC
014424 29                  A  7522    	ADD	HL,HL
014425 29                  A  7523    	ADD	HL,HL
014426 29                  A  7524    	ADD	HL,HL
014427 E5C1                A  7525    	LD	BC,HL
014429 CD AB 71 01         A  7526    	CALL	__itol
01442D DD0FFC              A  7527    	LD	(IX+-4),BC
014430 DD77FF              A  7528    	LD	(IX+-1),A
014433 DD27F3              A  7529    	LD	HL,(IX+-13)
014436 29                  A  7530    	ADD	HL,HL
014437 29                  A  7531    	ADD	HL,HL
014438 B7                  A  7532    	OR	A,A
014439 DD07F3              A  7533    	LD	BC,(IX+-13)
01443C ED42                A  7534    	SBC	HL,BC
01443E 29                  A  7535    	ADD	HL,HL
01443F 29                  A  7536    	ADD	HL,HL
014440 29                  A  7537    	ADD	HL,HL
014441 DD07F3              A  7538    	LD	BC,(IX+-13)
014444 09                  A  7539    	ADD	HL,BC
014445 29                  A  7540    	ADD	HL,HL
Zilog eZ80 Macro Assembler Version 4.1 (10060805) RELISTED26-Aug-11     11:07:39     page: 146


PC     Object              I  Line    Source C:\Users\fog76\Desktop\CHFIGH~2\Debug\main.src
014446 29                  A  7541    	ADD	HL,HL
014447 E5C1                A  7542    	LD	BC,HL
014449 CD AB 71 01         A  7543    	CALL	__itol
01444D 5F                  A  7544    	LD	E,A
01444E C5E1                A  7545    	LD	HL,BC
014450 DD07FC              A  7546    	LD	BC,(IX+-4)
014453 DD7EFF              A  7547    	LD	A,(IX+-1)
014456 CD 0B 6E 01         A  7548    	CALL	__ladd
01445A DD2FFC              A  7549    	LD	(IX+-4),HL
01445D DD73FF              A  7550    	LD	(IX+-1),E
014460 DD07F9              A  7551    	LD	BC,(IX+-7)
014463 03                  A  7552    	INC	BC
014464 DD0FF9              A  7553    	LD	(IX+-7),BC
014467 CD AB 71 01         A  7554    	CALL	__itol
01446B DD27FC              A  7555    	LD	HL,(IX+-4)
01446E DD5EFF              A  7556    	LD	E,(IX+-1)
014471 CD 0B 6E 01         A  7557    	CALL	__ladd
014475 DD2FFC              A  7558    	LD	(IX+-4),HL
014478 DD73FF              A  7559    	LD	(IX+-1),E
01447B DD27F6              A  7560    	LD	HL,(IX+-10)
01447E 29                  A  7561    	ADD	HL,HL
01447F 29                  A  7562    	ADD	HL,HL
014480 DD07F6              A  7563    	LD	BC,(IX+-10)
014483 09                  A  7564    	ADD	HL,BC
014484 29                  A  7565    	ADD	HL,HL
014485 E5C1                A  7566    	LD	BC,HL
014487 CD AB 71 01         A  7567    	CALL	__itol
01448B 5F                  A  7568    	LD	E,A
01448C C5E1                A  7569    	LD	HL,BC
01448E DD07FC              A  7570    	LD	BC,(IX+-4)
014491 DD7EFF              A  7571    	LD	A,(IX+-1)
014494 CD 0B 6E 01         A  7572    	CALL	__ladd
014498 DD2FFC              A  7573    	LD	(IX+-4),HL
01449B DD73FF              A  7574    	LD	(IX+-1),E
01449E DD4EFF              A  7575    	LD	C,(IX+-1)
0144A1 0600                A  7576    	LD	B,0
0144A3 C5                  A  7577    	PUSH	BC
0144A4 DD07FC              A  7578    	LD	BC,(IX+-4)
0144A7 C5                  A  7579    	PUSH	BC
0144A8 C5                  A  7580    	PUSH	BC
0144A9 E5                  A  7581    	PUSH	HL
0144AA FDE5E1              A  7582    	LD	HL,IY
0144AD 0125FFFF            A  7583    	LD	BC,-219
0144B1 CD 2A 70 01         A  7584    	CALL	__istix
0144B5 E1                  A  7585    	POP	HL
0144B6 C1                  A  7586    	POP	BC
0144B7 CD 98 1E 01         A  7587    	CALL	_mossaimposs
0144BB C5                  A  7588    	PUSH	BC
0144BC 0125FFFF            A  7589    	LD	BC,-219
0144C0 E5                  A  7590    	PUSH	HL
0144C1 CD CD 72 01         A  7591    	CALL	__ildix
0144C5 E5FDE1              A  7592    	LD	IY,HL
Zilog eZ80 Macro Assembler Version 4.1 (10060805) RELISTED26-Aug-11     11:07:39     page: 147


PC     Object              I  Line    Source C:\Users\fog76\Desktop\CHFIGH~2\Debug\main.src
0144C8 E1                  A  7593    	POP	HL
0144C9 C1                  A  7594    	POP	BC
0144CA C1                  A  7595    	POP	BC
0144CB C1                  A  7596    	POP	BC
0144CC 01020000            A  7597    	LD	BC,2
0144D0 B7                  A  7598    	OR	A,A
0144D1 ED42                A  7599    	SBC	HL,BC
0144D3 CA 15 46 01         A  7600    	JR	Z,L_469
0144D7 DD27FC              A  7601    	LD	HL,(IX+-4)
0144DA DD5EFF              A  7602    	LD	E,(IX+-1)
0144DD 010A0000            A  7603    	LD	BC,10
0144E1 AF                  A  7604    	XOR	A,A
0144E2 CD 60 70 01         A  7605    	CALL	__ldivu
0144E6 010A0000            A  7606    	LD	BC,10
0144EA AF                  A  7607    	XOR	A,A
0144EB CD 1D 72 01         A  7608    	CALL	__lremu
0144EF 01280000            A  7609    	LD	BC,40
0144F3 AF                  A  7610    	XOR	A,A
0144F4 CD 60 72 01         A  7611    	CALL	__lmulu
0144F8 01 D5 75 01         A  7612    	LD	BC,_scac
0144FC 09                  A  7613    	ADD	HL,BC
0144FD FDE5                A  7614    	PUSH	IY
0144FF ED5580              A  7615    	LEA	IY,IX+-128	; spill
014502 FD2FDB              A  7616    	LD	(IY+-37),HL	; spill
014505 FDE1                A  7617    	POP	IY
014507 DD27FC              A  7618    	LD	HL,(IX+-4)
01450A DD5EFF              A  7619    	LD	E,(IX+-1)
01450D 010A0000            A  7620    	LD	BC,10
014511 AF                  A  7621    	XOR	A,A
014512 CD 1D 72 01         A  7622    	CALL	__lremu
014516 01040000            A  7623    	LD	BC,4
01451A AF                  A  7624    	XOR	A,A
01451B CD 60 72 01         A  7625    	CALL	__lmulu
01451F FDE5                A  7626    	PUSH	IY
014521 ED5580              A  7627    	LEA	IY,IX+-128	; unspill
014524 FD07DB              A  7628    	LD	BC,(IY+-37)
014527 FDE1                A  7629    	POP	IY
014529 09                  A  7630    	ADD	HL,BC
01452A E5FDE1              A  7631    	LD	IY,HL
01452D FD2700              A  7632    	LD	HL,(IY)
014530 FD5E03              A  7633    	LD	E,(IY+3)
014533 01102700            A  7634    	LD	BC,10000
014537 AF                  A  7635    	XOR	A,A
014538 CD 60 72 01         A  7636    	CALL	__lmuls
01453C DD07FC              A  7637    	LD	BC,(IX+-4)
01453F DD7EFF              A  7638    	LD	A,(IX+-1)
014542 CD 0B 6E 01         A  7639    	CALL	__ladd
014546 DD2FFC              A  7640    	LD	(IX+-4),HL
014549 DD73FF              A  7641    	LD	(IX+-1),E
01454C DD27FC              A  7642    	LD	HL,(IX+-4)
01454F DD5EFF              A  7643    	LD	E,(IX+-1)
014552 01E80300            A  7644    	LD	BC,1000
Zilog eZ80 Macro Assembler Version 4.1 (10060805) RELISTED26-Aug-11     11:07:39     page: 148


PC     Object              I  Line    Source C:\Users\fog76\Desktop\CHFIGH~2\Debug\main.src
014556 AF                  A  7645    	XOR	A,A
014557 CD 60 70 01         A  7646    	CALL	__ldivu
01455B 010A0000            A  7647    	LD	BC,10
01455F AF                  A  7648    	XOR	A,A
014560 CD 1D 72 01         A  7649    	CALL	__lremu
014564 01280000            A  7650    	LD	BC,40
014568 AF                  A  7651    	XOR	A,A
014569 CD 60 72 01         A  7652    	CALL	__lmulu
01456D 01 D5 75 01         A  7653    	LD	BC,_scac
014571 09                  A  7654    	ADD	HL,BC
014572 FDE5                A  7655    	PUSH	IY
014574 ED5580              A  7656    	LEA	IY,IX+-128	; spill
014577 FD2FD8              A  7657    	LD	(IY+-40),HL	; spill
01457A FDE1                A  7658    	POP	IY
01457C DD27FC              A  7659    	LD	HL,(IX+-4)
01457F DD5EFF              A  7660    	LD	E,(IX+-1)
014582 01640000            A  7661    	LD	BC,100
014586 AF                  A  7662    	XOR	A,A
014587 CD 60 70 01         A  7663    	CALL	__ldivu
01458B 010A0000            A  7664    	LD	BC,10
01458F AF                  A  7665    	XOR	A,A
014590 CD 1D 72 01         A  7666    	CALL	__lremu
014594 01040000            A  7667    	LD	BC,4
014598 AF                  A  7668    	XOR	A,A
014599 CD 60 72 01         A  7669    	CALL	__lmulu
01459D FDE5                A  7670    	PUSH	IY
01459F ED5580              A  7671    	LEA	IY,IX+-128	; unspill
0145A2 FD07D8              A  7672    	LD	BC,(IY+-40)
0145A5 FDE1                A  7673    	POP	IY
0145A7 09                  A  7674    	ADD	HL,BC
0145A8 E5FDE1              A  7675    	LD	IY,HL
0145AB FD2700              A  7676    	LD	HL,(IY)
0145AE FD5E03              A  7677    	LD	E,(IY+3)
0145B1 0140420F            A  7678    	LD	BC,1000000
0145B5 AF                  A  7679    	XOR	A,A
0145B6 CD 60 72 01         A  7680    	CALL	__lmuls
0145BA DD07FC              A  7681    	LD	BC,(IX+-4)
0145BD DD7EFF              A  7682    	LD	A,(IX+-1)
0145C0 CD 0B 6E 01         A  7683    	CALL	__ladd
0145C4 DD2FFC              A  7684    	LD	(IX+-4),HL
0145C7 DD73FF              A  7685    	LD	(IX+-1),E
0145CA 2A EB 7F 01         A  7686    	LD	HL,(_prof)
0145CE 3A EE 7F 01         A  7687    	LD	A,(_prof+3)
0145D2 5F                  A  7688    	LD	E,A
0145D3 AF                  A  7689    	XOR	A,A
0145D4 01000000            A  7690    	LD	BC,0
0145D8 CD B2 71 01         A  7691    	CALL	__lcmps
0145DC 20 0F               A  7692    	JR	NZ,L_458
0145DE DD07FC              A  7693    	LD	BC,(IX+-4)
0145E1 ED43 DC 7F 01       A  7694    	LD	(_mossa_in_analisi),BC
0145E6 DD7EFF              A  7695    	LD	A,(IX+-1)
0145E9 32 DF 7F 01         A  7696    	LD	(_mossa_in_analisi+3),A
Zilog eZ80 Macro Assembler Version 4.1 (10060805) RELISTED26-Aug-11     11:07:39     page: 149


PC     Object              I  Line    Source C:\Users\fog76\Desktop\CHFIGH~2\Debug\main.src
0145ED                     A  7697    L_458:
0145ED DD7E06              A  7698    	LD	A,(IX+6)
0145F0 B7                  A  7699    	OR	A,A
0145F1 20 12               A  7700    	JR	NZ,L_457
0145F3 DD4EFF              A  7701    	LD	C,(IX+-1)
0145F6 0600                A  7702    	LD	B,0
0145F8 C5                  A  7703    	PUSH	BC
0145F9 DD07FC              A  7704    	LD	BC,(IX+-4)
0145FC C5                  A  7705    	PUSH	BC
0145FD CD 03 08 01         A  7706    	CALL	_sceglimossa
014601 C1                  A  7707    	POP	BC
014602 C1                  A  7708    	POP	BC
014603 18 10               A  7709    	JR	L_469
014605                     A  7710    L_457:
014605 DD4EFF              A  7711    	LD	C,(IX+-1)
014608 0600                A  7712    	LD	B,0
01460A C5                  A  7713    	PUSH	BC
01460B DD07FC              A  7714    	LD	BC,(IX+-4)
01460E C5                  A  7715    	PUSH	BC
01460F CD 3D 06 01         A  7716    	CALL	_raccogli
014613 C1                  A  7717    	POP	BC
014614 C1                  A  7718    	POP	BC
014615                     A  7719    L_469:
014615 01020000            A  7720    	LD	BC,2
014619 DD27F3              A  7721    	LD	HL,(IX+-13)
01461C B7                  A  7722    	OR	A,A
01461D ED42                A  7723    	SBC	HL,BC
01461F C2 68 48 01         A  7724    	JR	NZ,L_478
014623 DD7ED6              A  7725    	LD	A,(IX+-42)
014626 B7                  A  7726    	OR	A,A
014627 C2 68 48 01         A  7727    	JR	NZ,L_478
01462B DD07EA              A  7728    	LD	BC,(IX+-22)
01462E DD0FD3              A  7729    	LD	(IX+-45),BC
014631 DD31F3              A  7730    	LD	IY,(IX+-13)
014634 ED0302              A  7731    	LEA	BC,IY+2
014637 C5E1                A  7732    	LD	HL,BC
014639 29                  A  7733    	ADD	HL,HL
01463A 29                  A  7734    	ADD	HL,HL
01463B DD07EA              A  7735    	LD	BC,(IX+-22)
01463E 09                  A  7736    	ADD	HL,BC
01463F E5FDE1              A  7737    	LD	IY,HL
014642 FD2700              A  7738    	LD	HL,(IY)
014645 FD5E03              A  7739    	LD	E,(IY+3)
014648 01000000            A  7740    	LD	BC,0
01464C AF                  A  7741    	XOR	A,A
01464D CD B2 71 01         A  7742    	CALL	__lcmps
014651 C2 68 48 01         A  7743    	JR	NZ,L_478
014655 DD07F0              A  7744    	LD	BC,(IX+-16)
014658 DD0FF6              A  7745    	LD	(IX+-10),BC
01465B DD07F3              A  7746    	LD	BC,(IX+-13)
01465E DD0FF9              A  7747    	LD	(IX+-7),BC
014661 DD27F0              A  7748    	LD	HL,(IX+-16)
Zilog eZ80 Macro Assembler Version 4.1 (10060805) RELISTED26-Aug-11     11:07:39     page: 150


PC     Object              I  Line    Source C:\Users\fog76\Desktop\CHFIGH~2\Debug\main.src
014664 29                  A  7749    	ADD	HL,HL
014665 29                  A  7750    	ADD	HL,HL
014666 29                  A  7751    	ADD	HL,HL
014667 29                  A  7752    	ADD	HL,HL
014668 29                  A  7753    	ADD	HL,HL
014669 B7                  A  7754    	OR	A,A
01466A DD07F0              A  7755    	LD	BC,(IX+-16)
01466D ED42                A  7756    	SBC	HL,BC
01466F 29                  A  7757    	ADD	HL,HL
014670 29                  A  7758    	ADD	HL,HL
014671 DD07F0              A  7759    	LD	BC,(IX+-16)
014674 09                  A  7760    	ADD	HL,BC
014675 29                  A  7761    	ADD	HL,HL
014676 29                  A  7762    	ADD	HL,HL
014677 29                  A  7763    	ADD	HL,HL
014678 E5C1                A  7764    	LD	BC,HL
01467A CD AB 71 01         A  7765    	CALL	__itol
01467E DD0FFC              A  7766    	LD	(IX+-4),BC
014681 DD77FF              A  7767    	LD	(IX+-1),A
014684 DD27F3              A  7768    	LD	HL,(IX+-13)
014687 29                  A  7769    	ADD	HL,HL
014688 29                  A  7770    	ADD	HL,HL
014689 B7                  A  7771    	OR	A,A
01468A DD07F3              A  7772    	LD	BC,(IX+-13)
01468D ED42                A  7773    	SBC	HL,BC
01468F 29                  A  7774    	ADD	HL,HL
014690 29                  A  7775    	ADD	HL,HL
014691 29                  A  7776    	ADD	HL,HL
014692 DD07F3              A  7777    	LD	BC,(IX+-13)
014695 09                  A  7778    	ADD	HL,BC
014696 29                  A  7779    	ADD	HL,HL
014697 29                  A  7780    	ADD	HL,HL
014698 E5C1                A  7781    	LD	BC,HL
01469A CD AB 71 01         A  7782    	CALL	__itol
01469E 5F                  A  7783    	LD	E,A
01469F C5E1                A  7784    	LD	HL,BC
0146A1 DD07FC              A  7785    	LD	BC,(IX+-4)
0146A4 DD7EFF              A  7786    	LD	A,(IX+-1)
0146A7 CD 0B 6E 01         A  7787    	CALL	__ladd
0146AB DD2FFC              A  7788    	LD	(IX+-4),HL
0146AE DD73FF              A  7789    	LD	(IX+-1),E
0146B1 DD31F9              A  7790    	LD	IY,(IX+-7)
0146B4 ED0302              A  7791    	LEA	BC,IY+2
0146B7 DD0FF9              A  7792    	LD	(IX+-7),BC
0146BA CD AB 71 01         A  7793    	CALL	__itol
0146BE DD27FC              A  7794    	LD	HL,(IX+-4)
0146C1 DD5EFF              A  7795    	LD	E,(IX+-1)
0146C4 CD 0B 6E 01         A  7796    	CALL	__ladd
0146C8 DD2FFC              A  7797    	LD	(IX+-4),HL
0146CB DD73FF              A  7798    	LD	(IX+-1),E
0146CE DD27F6              A  7799    	LD	HL,(IX+-10)
0146D1 29                  A  7800    	ADD	HL,HL
Zilog eZ80 Macro Assembler Version 4.1 (10060805) RELISTED26-Aug-11     11:07:39     page: 151


PC     Object              I  Line    Source C:\Users\fog76\Desktop\CHFIGH~2\Debug\main.src
0146D2 29                  A  7801    	ADD	HL,HL
0146D3 DD07F6              A  7802    	LD	BC,(IX+-10)
0146D6 09                  A  7803    	ADD	HL,BC
0146D7 29                  A  7804    	ADD	HL,HL
0146D8 E5C1                A  7805    	LD	BC,HL
0146DA CD AB 71 01         A  7806    	CALL	__itol
0146DE 5F                  A  7807    	LD	E,A
0146DF C5E1                A  7808    	LD	HL,BC
0146E1 DD07FC              A  7809    	LD	BC,(IX+-4)
0146E4 DD7EFF              A  7810    	LD	A,(IX+-1)
0146E7 CD 0B 6E 01         A  7811    	CALL	__ladd
0146EB DD2FFC              A  7812    	LD	(IX+-4),HL
0146EE DD73FF              A  7813    	LD	(IX+-1),E
0146F1 DD4EFF              A  7814    	LD	C,(IX+-1)
0146F4 0600                A  7815    	LD	B,0
0146F6 C5                  A  7816    	PUSH	BC
0146F7 DD07FC              A  7817    	LD	BC,(IX+-4)
0146FA C5                  A  7818    	PUSH	BC
0146FB C5                  A  7819    	PUSH	BC
0146FC E5                  A  7820    	PUSH	HL
0146FD FDE5E1              A  7821    	LD	HL,IY
014700 0125FFFF            A  7822    	LD	BC,-219
014704 CD 2A 70 01         A  7823    	CALL	__istix
014708 E1                  A  7824    	POP	HL
014709 C1                  A  7825    	POP	BC
01470A CD 98 1E 01         A  7826    	CALL	_mossaimposs
01470E C5                  A  7827    	PUSH	BC
01470F 0125FFFF            A  7828    	LD	BC,-219
014713 E5                  A  7829    	PUSH	HL
014714 CD CD 72 01         A  7830    	CALL	__ildix
014718 E5FDE1              A  7831    	LD	IY,HL
01471B E1                  A  7832    	POP	HL
01471C C1                  A  7833    	POP	BC
01471D C1                  A  7834    	POP	BC
01471E C1                  A  7835    	POP	BC
01471F 01020000            A  7836    	LD	BC,2
014723 B7                  A  7837    	OR	A,A
014724 ED42                A  7838    	SBC	HL,BC
014726 CA 68 48 01         A  7839    	JR	Z,L_478
01472A DD27FC              A  7840    	LD	HL,(IX+-4)
01472D DD5EFF              A  7841    	LD	E,(IX+-1)
014730 010A0000            A  7842    	LD	BC,10
014734 AF                  A  7843    	XOR	A,A
014735 CD 60 70 01         A  7844    	CALL	__ldivu
014739 010A0000            A  7845    	LD	BC,10
01473D AF                  A  7846    	XOR	A,A
01473E CD 1D 72 01         A  7847    	CALL	__lremu
014742 01280000            A  7848    	LD	BC,40
014746 AF                  A  7849    	XOR	A,A
014747 CD 60 72 01         A  7850    	CALL	__lmulu
01474B 01 D5 75 01         A  7851    	LD	BC,_scac
01474F 09                  A  7852    	ADD	HL,BC
Zilog eZ80 Macro Assembler Version 4.1 (10060805) RELISTED26-Aug-11     11:07:39     page: 152


PC     Object              I  Line    Source C:\Users\fog76\Desktop\CHFIGH~2\Debug\main.src
014750 FDE5                A  7853    	PUSH	IY
014752 ED5580              A  7854    	LEA	IY,IX+-128	; spill
014755 FD2FE1              A  7855    	LD	(IY+-31),HL	; spill
014758 FDE1                A  7856    	POP	IY
01475A DD27FC              A  7857    	LD	HL,(IX+-4)
01475D DD5EFF              A  7858    	LD	E,(IX+-1)
014760 010A0000            A  7859    	LD	BC,10
014764 AF                  A  7860    	XOR	A,A
014765 CD 1D 72 01         A  7861    	CALL	__lremu
014769 01040000            A  7862    	LD	BC,4
01476D AF                  A  7863    	XOR	A,A
01476E CD 60 72 01         A  7864    	CALL	__lmulu
014772 FDE5                A  7865    	PUSH	IY
014774 ED5580              A  7866    	LEA	IY,IX+-128	; unspill
014777 FD07E1              A  7867    	LD	BC,(IY+-31)
01477A FDE1                A  7868    	POP	IY
01477C 09                  A  7869    	ADD	HL,BC
01477D E5FDE1              A  7870    	LD	IY,HL
014780 FD2700              A  7871    	LD	HL,(IY)
014783 FD5E03              A  7872    	LD	E,(IY+3)
014786 01102700            A  7873    	LD	BC,10000
01478A AF                  A  7874    	XOR	A,A
01478B CD 60 72 01         A  7875    	CALL	__lmuls
01478F DD07FC              A  7876    	LD	BC,(IX+-4)
014792 DD7EFF              A  7877    	LD	A,(IX+-1)
014795 CD 0B 6E 01         A  7878    	CALL	__ladd
014799 DD2FFC              A  7879    	LD	(IX+-4),HL
01479C DD73FF              A  7880    	LD	(IX+-1),E
01479F DD27FC              A  7881    	LD	HL,(IX+-4)
0147A2 DD5EFF              A  7882    	LD	E,(IX+-1)
0147A5 01E80300            A  7883    	LD	BC,1000
0147A9 AF                  A  7884    	XOR	A,A
0147AA CD 60 70 01         A  7885    	CALL	__ldivu
0147AE 010A0000            A  7886    	LD	BC,10
0147B2 AF                  A  7887    	XOR	A,A
0147B3 CD 1D 72 01         A  7888    	CALL	__lremu
0147B7 01280000            A  7889    	LD	BC,40
0147BB AF                  A  7890    	XOR	A,A
0147BC CD 60 72 01         A  7891    	CALL	__lmulu
0147C0 01 D5 75 01         A  7892    	LD	BC,_scac
0147C4 09                  A  7893    	ADD	HL,BC
0147C5 FDE5                A  7894    	PUSH	IY
0147C7 ED5580              A  7895    	LEA	IY,IX+-128	; spill
0147CA FD2FDE              A  7896    	LD	(IY+-34),HL	; spill
0147CD FDE1                A  7897    	POP	IY
0147CF DD27FC              A  7898    	LD	HL,(IX+-4)
0147D2 DD5EFF              A  7899    	LD	E,(IX+-1)
0147D5 01640000            A  7900    	LD	BC,100
0147D9 AF                  A  7901    	XOR	A,A
0147DA CD 60 70 01         A  7902    	CALL	__ldivu
0147DE 010A0000            A  7903    	LD	BC,10
0147E2 AF                  A  7904    	XOR	A,A
Zilog eZ80 Macro Assembler Version 4.1 (10060805) RELISTED26-Aug-11     11:07:39     page: 153


PC     Object              I  Line    Source C:\Users\fog76\Desktop\CHFIGH~2\Debug\main.src
0147E3 CD 1D 72 01         A  7905    	CALL	__lremu
0147E7 01040000            A  7906    	LD	BC,4
0147EB AF                  A  7907    	XOR	A,A
0147EC CD 60 72 01         A  7908    	CALL	__lmulu
0147F0 FDE5                A  7909    	PUSH	IY
0147F2 ED5580              A  7910    	LEA	IY,IX+-128	; unspill
0147F5 FD07DE              A  7911    	LD	BC,(IY+-34)
0147F8 FDE1                A  7912    	POP	IY
0147FA 09                  A  7913    	ADD	HL,BC
0147FB E5FDE1              A  7914    	LD	IY,HL
0147FE FD2700              A  7915    	LD	HL,(IY)
014801 FD5E03              A  7916    	LD	E,(IY+3)
014804 0140420F            A  7917    	LD	BC,1000000
014808 AF                  A  7918    	XOR	A,A
014809 CD 60 72 01         A  7919    	CALL	__lmuls
01480D DD07FC              A  7920    	LD	BC,(IX+-4)
014810 DD7EFF              A  7921    	LD	A,(IX+-1)
014813 CD 0B 6E 01         A  7922    	CALL	__ladd
014817 DD2FFC              A  7923    	LD	(IX+-4),HL
01481A DD73FF              A  7924    	LD	(IX+-1),E
01481D 2A EB 7F 01         A  7925    	LD	HL,(_prof)
014821 3A EE 7F 01         A  7926    	LD	A,(_prof+3)
014825 5F                  A  7927    	LD	E,A
014826 AF                  A  7928    	XOR	A,A
014827 01000000            A  7929    	LD	BC,0
01482B CD B2 71 01         A  7930    	CALL	__lcmps
01482F 20 0F               A  7931    	JR	NZ,L_466
014831 DD07FC              A  7932    	LD	BC,(IX+-4)
014834 ED43 DC 7F 01       A  7933    	LD	(_mossa_in_analisi),BC
014839 DD7EFF              A  7934    	LD	A,(IX+-1)
01483C 32 DF 7F 01         A  7935    	LD	(_mossa_in_analisi+3),A
014840                     A  7936    L_466:
014840 DD7E06              A  7937    	LD	A,(IX+6)
014843 B7                  A  7938    	OR	A,A
014844 20 12               A  7939    	JR	NZ,L_465
014846 DD4EFF              A  7940    	LD	C,(IX+-1)
014849 0600                A  7941    	LD	B,0
01484B C5                  A  7942    	PUSH	BC
01484C DD07FC              A  7943    	LD	BC,(IX+-4)
01484F C5                  A  7944    	PUSH	BC
014850 CD 03 08 01         A  7945    	CALL	_sceglimossa
014854 C1                  A  7946    	POP	BC
014855 C1                  A  7947    	POP	BC
014856 18 10               A  7948    	JR	L_478
014858                     A  7949    L_465:
014858 DD4EFF              A  7950    	LD	C,(IX+-1)
01485B 0600                A  7951    	LD	B,0
01485D C5                  A  7952    	PUSH	BC
01485E DD07FC              A  7953    	LD	BC,(IX+-4)
014861 C5                  A  7954    	PUSH	BC
014862 CD 3D 06 01         A  7955    	CALL	_raccogli
014866 C1                  A  7956    	POP	BC
Zilog eZ80 Macro Assembler Version 4.1 (10060805) RELISTED26-Aug-11     11:07:39     page: 154


PC     Object              I  Line    Source C:\Users\fog76\Desktop\CHFIGH~2\Debug\main.src
014867 C1                  A  7957    	POP	BC
014868                     A  7958    L_478:
014868 DD07F0              A  7959    	LD	BC,(IX+-16)
01486B 03                  A  7960    	INC	BC
01486C C5E1                A  7961    	LD	HL,BC
01486E 29                  A  7962    	ADD	HL,HL
01486F 29                  A  7963    	ADD	HL,HL
014870 09                  A  7964    	ADD	HL,BC
014871 29                  A  7965    	ADD	HL,HL
014872 29                  A  7966    	ADD	HL,HL
014873 29                  A  7967    	ADD	HL,HL
014874 01 D5 75 01         A  7968    	LD	BC,_scac
014878 09                  A  7969    	ADD	HL,BC
014879 DD07D7              A  7970    	LD	BC,(IX+-41)
01487C 09                  A  7971    	ADD	HL,BC
01487D E5FDE1              A  7972    	LD	IY,HL
014880 FD2700              A  7973    	LD	HL,(IY)
014883 FD5E03              A  7974    	LD	E,(IY+3)
014886 01000000            A  7975    	LD	BC,0
01488A AF                  A  7976    	XOR	A,A
01488B CD B2 71 01         A  7977    	CALL	__lcmps
01488F CA AB 4A 01         A  7978    	JR	Z,L_487
014893 DD07F0              A  7979    	LD	BC,(IX+-16)
014896 DD0FF6              A  7980    	LD	(IX+-10),BC
014899 DD07F3              A  7981    	LD	BC,(IX+-13)
01489C DD0FF9              A  7982    	LD	(IX+-7),BC
01489F DD27F0              A  7983    	LD	HL,(IX+-16)
0148A2 29                  A  7984    	ADD	HL,HL
0148A3 29                  A  7985    	ADD	HL,HL
0148A4 29                  A  7986    	ADD	HL,HL
0148A5 29                  A  7987    	ADD	HL,HL
0148A6 29                  A  7988    	ADD	HL,HL
0148A7 B7                  A  7989    	OR	A,A
0148A8 DD07F0              A  7990    	LD	BC,(IX+-16)
0148AB ED42                A  7991    	SBC	HL,BC
0148AD 29                  A  7992    	ADD	HL,HL
0148AE 29                  A  7993    	ADD	HL,HL
0148AF DD07F0              A  7994    	LD	BC,(IX+-16)
0148B2 09                  A  7995    	ADD	HL,BC
0148B3 29                  A  7996    	ADD	HL,HL
0148B4 29                  A  7997    	ADD	HL,HL
0148B5 29                  A  7998    	ADD	HL,HL
0148B6 E5C1                A  7999    	LD	BC,HL
0148B8 CD AB 71 01         A  8000    	CALL	__itol
0148BC DD0FFC              A  8001    	LD	(IX+-4),BC
0148BF DD77FF              A  8002    	LD	(IX+-1),A
0148C2 DD27F3              A  8003    	LD	HL,(IX+-13)
0148C5 29                  A  8004    	ADD	HL,HL
0148C6 29                  A  8005    	ADD	HL,HL
0148C7 B7                  A  8006    	OR	A,A
0148C8 DD07F3              A  8007    	LD	BC,(IX+-13)
0148CB ED42                A  8008    	SBC	HL,BC
Zilog eZ80 Macro Assembler Version 4.1 (10060805) RELISTED26-Aug-11     11:07:39     page: 155


PC     Object              I  Line    Source C:\Users\fog76\Desktop\CHFIGH~2\Debug\main.src
0148CD 29                  A  8009    	ADD	HL,HL
0148CE 29                  A  8010    	ADD	HL,HL
0148CF 29                  A  8011    	ADD	HL,HL
0148D0 DD07F3              A  8012    	LD	BC,(IX+-13)
0148D3 09                  A  8013    	ADD	HL,BC
0148D4 29                  A  8014    	ADD	HL,HL
0148D5 29                  A  8015    	ADD	HL,HL
0148D6 E5C1                A  8016    	LD	BC,HL
0148D8 CD AB 71 01         A  8017    	CALL	__itol
0148DC 5F                  A  8018    	LD	E,A
0148DD C5E1                A  8019    	LD	HL,BC
0148DF DD07FC              A  8020    	LD	BC,(IX+-4)
0148E2 DD7EFF              A  8021    	LD	A,(IX+-1)
0148E5 CD 0B 6E 01         A  8022    	CALL	__ladd
0148E9 DD2FFC              A  8023    	LD	(IX+-4),HL
0148EC DD73FF              A  8024    	LD	(IX+-1),E
0148EF DD07F6              A  8025    	LD	BC,(IX+-10)
0148F2 03                  A  8026    	INC	BC
0148F3 DD0FF6              A  8027    	LD	(IX+-10),BC
0148F6 DD07F9              A  8028    	LD	BC,(IX+-7)
0148F9 03                  A  8029    	INC	BC
0148FA DD0FF9              A  8030    	LD	(IX+-7),BC
0148FD CD AB 71 01         A  8031    	CALL	__itol
014901 DD27FC              A  8032    	LD	HL,(IX+-4)
014904 DD5EFF              A  8033    	LD	E,(IX+-1)
014907 CD 0B 6E 01         A  8034    	CALL	__ladd
01490B DD2FFC              A  8035    	LD	(IX+-4),HL
01490E DD73FF              A  8036    	LD	(IX+-1),E
014911 DD27F6              A  8037    	LD	HL,(IX+-10)
014914 29                  A  8038    	ADD	HL,HL
014915 29                  A  8039    	ADD	HL,HL
014916 DD07F6              A  8040    	LD	BC,(IX+-10)
014919 09                  A  8041    	ADD	HL,BC
01491A 29                  A  8042    	ADD	HL,HL
01491B E5C1                A  8043    	LD	BC,HL
01491D CD AB 71 01         A  8044    	CALL	__itol
014921 5F                  A  8045    	LD	E,A
014922 C5E1                A  8046    	LD	HL,BC
014924 DD07FC              A  8047    	LD	BC,(IX+-4)
014927 DD7EFF              A  8048    	LD	A,(IX+-1)
01492A CD 0B 6E 01         A  8049    	CALL	__ladd
01492E DD2FFC              A  8050    	LD	(IX+-4),HL
014931 DD73FF              A  8051    	LD	(IX+-1),E
014934 DD4EFF              A  8052    	LD	C,(IX+-1)
014937 0600                A  8053    	LD	B,0
014939 C5                  A  8054    	PUSH	BC
01493A DD07FC              A  8055    	LD	BC,(IX+-4)
01493D C5                  A  8056    	PUSH	BC
01493E C5                  A  8057    	PUSH	BC
01493F E5                  A  8058    	PUSH	HL
014940 FDE5E1              A  8059    	LD	HL,IY
014943 0125FFFF            A  8060    	LD	BC,-219
Zilog eZ80 Macro Assembler Version 4.1 (10060805) RELISTED26-Aug-11     11:07:39     page: 156


PC     Object              I  Line    Source C:\Users\fog76\Desktop\CHFIGH~2\Debug\main.src
014947 CD 2A 70 01         A  8061    	CALL	__istix
01494B E1                  A  8062    	POP	HL
01494C C1                  A  8063    	POP	BC
01494D CD 98 1E 01         A  8064    	CALL	_mossaimposs
014951 C5                  A  8065    	PUSH	BC
014952 0125FFFF            A  8066    	LD	BC,-219
014956 E5                  A  8067    	PUSH	HL
014957 CD CD 72 01         A  8068    	CALL	__ildix
01495B E5FDE1              A  8069    	LD	IY,HL
01495E E1                  A  8070    	POP	HL
01495F C1                  A  8071    	POP	BC
014960 C1                  A  8072    	POP	BC
014961 C1                  A  8073    	POP	BC
014962 01020000            A  8074    	LD	BC,2
014966 B7                  A  8075    	OR	A,A
014967 ED42                A  8076    	SBC	HL,BC
014969 CA AB 4A 01         A  8077    	JR	Z,L_487
01496D DD27FC              A  8078    	LD	HL,(IX+-4)
014970 DD5EFF              A  8079    	LD	E,(IX+-1)
014973 010A0000            A  8080    	LD	BC,10
014977 AF                  A  8081    	XOR	A,A
014978 CD 60 70 01         A  8082    	CALL	__ldivu
01497C 010A0000            A  8083    	LD	BC,10
014980 AF                  A  8084    	XOR	A,A
014981 CD 1D 72 01         A  8085    	CALL	__lremu
014985 01280000            A  8086    	LD	BC,40
014989 AF                  A  8087    	XOR	A,A
01498A CD 60 72 01         A  8088    	CALL	__lmulu
01498E 01 D5 75 01         A  8089    	LD	BC,_scac
014992 09                  A  8090    	ADD	HL,BC
014993 FDE5                A  8091    	PUSH	IY
014995 ED5580              A  8092    	LEA	IY,IX+-128	; spill
014998 FD2FE7              A  8093    	LD	(IY+-25),HL	; spill
01499B FDE1                A  8094    	POP	IY
01499D DD27FC              A  8095    	LD	HL,(IX+-4)
0149A0 DD5EFF              A  8096    	LD	E,(IX+-1)
0149A3 010A0000            A  8097    	LD	BC,10
0149A7 AF                  A  8098    	XOR	A,A
0149A8 CD 1D 72 01         A  8099    	CALL	__lremu
0149AC 01040000            A  8100    	LD	BC,4
0149B0 AF                  A  8101    	XOR	A,A
0149B1 CD 60 72 01         A  8102    	CALL	__lmulu
0149B5 FDE5                A  8103    	PUSH	IY
0149B7 ED5580              A  8104    	LEA	IY,IX+-128	; unspill
0149BA FD07E7              A  8105    	LD	BC,(IY+-25)
0149BD FDE1                A  8106    	POP	IY
0149BF 09                  A  8107    	ADD	HL,BC
0149C0 E5FDE1              A  8108    	LD	IY,HL
0149C3 FD2700              A  8109    	LD	HL,(IY)
0149C6 FD5E03              A  8110    	LD	E,(IY+3)
0149C9 01102700            A  8111    	LD	BC,10000
0149CD AF                  A  8112    	XOR	A,A
Zilog eZ80 Macro Assembler Version 4.1 (10060805) RELISTED26-Aug-11     11:07:39     page: 157


PC     Object              I  Line    Source C:\Users\fog76\Desktop\CHFIGH~2\Debug\main.src
0149CE CD 60 72 01         A  8113    	CALL	__lmuls
0149D2 DD07FC              A  8114    	LD	BC,(IX+-4)
0149D5 DD7EFF              A  8115    	LD	A,(IX+-1)
0149D8 CD 0B 6E 01         A  8116    	CALL	__ladd
0149DC DD2FFC              A  8117    	LD	(IX+-4),HL
0149DF DD73FF              A  8118    	LD	(IX+-1),E
0149E2 DD27FC              A  8119    	LD	HL,(IX+-4)
0149E5 DD5EFF              A  8120    	LD	E,(IX+-1)
0149E8 01E80300            A  8121    	LD	BC,1000
0149EC AF                  A  8122    	XOR	A,A
0149ED CD 60 70 01         A  8123    	CALL	__ldivu
0149F1 010A0000            A  8124    	LD	BC,10
0149F5 AF                  A  8125    	XOR	A,A
0149F6 CD 1D 72 01         A  8126    	CALL	__lremu
0149FA 01280000            A  8127    	LD	BC,40
0149FE AF                  A  8128    	XOR	A,A
0149FF CD 60 72 01         A  8129    	CALL	__lmulu
014A03 01 D5 75 01         A  8130    	LD	BC,_scac
014A07 09                  A  8131    	ADD	HL,BC
014A08 FDE5                A  8132    	PUSH	IY
014A0A ED5580              A  8133    	LEA	IY,IX+-128	; spill
014A0D FD2FE4              A  8134    	LD	(IY+-28),HL	; spill
014A10 FDE1                A  8135    	POP	IY
014A12 DD27FC              A  8136    	LD	HL,(IX+-4)
014A15 DD5EFF              A  8137    	LD	E,(IX+-1)
014A18 01640000            A  8138    	LD	BC,100
014A1C AF                  A  8139    	XOR	A,A
014A1D CD 60 70 01         A  8140    	CALL	__ldivu
014A21 010A0000            A  8141    	LD	BC,10
014A25 AF                  A  8142    	XOR	A,A
014A26 CD 1D 72 01         A  8143    	CALL	__lremu
014A2A 01040000            A  8144    	LD	BC,4
014A2E AF                  A  8145    	XOR	A,A
014A2F CD 60 72 01         A  8146    	CALL	__lmulu
014A33 FDE5                A  8147    	PUSH	IY
014A35 ED5580              A  8148    	LEA	IY,IX+-128	; unspill
014A38 FD07E4              A  8149    	LD	BC,(IY+-28)
014A3B FDE1                A  8150    	POP	IY
014A3D 09                  A  8151    	ADD	HL,BC
014A3E E5FDE1              A  8152    	LD	IY,HL
014A41 FD2700              A  8153    	LD	HL,(IY)
014A44 FD5E03              A  8154    	LD	E,(IY+3)
014A47 0140420F            A  8155    	LD	BC,1000000
014A4B AF                  A  8156    	XOR	A,A
014A4C CD 60 72 01         A  8157    	CALL	__lmuls
014A50 DD07FC              A  8158    	LD	BC,(IX+-4)
014A53 DD7EFF              A  8159    	LD	A,(IX+-1)
014A56 CD 0B 6E 01         A  8160    	CALL	__ladd
014A5A DD2FFC              A  8161    	LD	(IX+-4),HL
014A5D DD73FF              A  8162    	LD	(IX+-1),E
014A60 2A EB 7F 01         A  8163    	LD	HL,(_prof)
014A64 3A EE 7F 01         A  8164    	LD	A,(_prof+3)
Zilog eZ80 Macro Assembler Version 4.1 (10060805) RELISTED26-Aug-11     11:07:39     page: 158


PC     Object              I  Line    Source C:\Users\fog76\Desktop\CHFIGH~2\Debug\main.src
014A68 5F                  A  8165    	LD	E,A
014A69 AF                  A  8166    	XOR	A,A
014A6A 01000000            A  8167    	LD	BC,0
014A6E CD B2 71 01         A  8168    	CALL	__lcmps
014A72 20 0F               A  8169    	JR	NZ,L_475
014A74 DD07FC              A  8170    	LD	BC,(IX+-4)
014A77 ED43 DC 7F 01       A  8171    	LD	(_mossa_in_analisi),BC
014A7C DD7EFF              A  8172    	LD	A,(IX+-1)
014A7F 32 DF 7F 01         A  8173    	LD	(_mossa_in_analisi+3),A
014A83                     A  8174    L_475:
014A83 DD7E06              A  8175    	LD	A,(IX+6)
014A86 B7                  A  8176    	OR	A,A
014A87 20 12               A  8177    	JR	NZ,L_474
014A89 DD4EFF              A  8178    	LD	C,(IX+-1)
014A8C 0600                A  8179    	LD	B,0
014A8E C5                  A  8180    	PUSH	BC
014A8F DD07FC              A  8181    	LD	BC,(IX+-4)
014A92 C5                  A  8182    	PUSH	BC
014A93 CD 03 08 01         A  8183    	CALL	_sceglimossa
014A97 C1                  A  8184    	POP	BC
014A98 C1                  A  8185    	POP	BC
014A99 18 10               A  8186    	JR	L_487
014A9B                     A  8187    L_474:
014A9B DD4EFF              A  8188    	LD	C,(IX+-1)
014A9E 0600                A  8189    	LD	B,0
014AA0 C5                  A  8190    	PUSH	BC
014AA1 DD07FC              A  8191    	LD	BC,(IX+-4)
014AA4 C5                  A  8192    	PUSH	BC
014AA5 CD 3D 06 01         A  8193    	CALL	_raccogli
014AA9 C1                  A  8194    	POP	BC
014AAA C1                  A  8195    	POP	BC
014AAB                     A  8196    L_487:
014AAB DD07F0              A  8197    	LD	BC,(IX+-16)
014AAE 0B                  A  8198    	DEC	BC
014AAF C5E1                A  8199    	LD	HL,BC
014AB1 29                  A  8200    	ADD	HL,HL
014AB2 29                  A  8201    	ADD	HL,HL
014AB3 09                  A  8202    	ADD	HL,BC
014AB4 29                  A  8203    	ADD	HL,HL
014AB5 29                  A  8204    	ADD	HL,HL
014AB6 29                  A  8205    	ADD	HL,HL
014AB7 01 D5 75 01         A  8206    	LD	BC,_scac
014ABB 09                  A  8207    	ADD	HL,BC
014ABC DD07D7              A  8208    	LD	BC,(IX+-41)
014ABF 09                  A  8209    	ADD	HL,BC
014AC0 E5FDE1              A  8210    	LD	IY,HL
014AC3 FD2700              A  8211    	LD	HL,(IY)
014AC6 FD5E03              A  8212    	LD	E,(IY+3)
014AC9 01000000            A  8213    	LD	BC,0
014ACD AF                  A  8214    	XOR	A,A
014ACE CD B2 71 01         A  8215    	CALL	__lcmps
014AD2 CA EE 4C 01         A  8216    	JR	Z,L_526
Zilog eZ80 Macro Assembler Version 4.1 (10060805) RELISTED26-Aug-11     11:07:39     page: 159


PC     Object              I  Line    Source C:\Users\fog76\Desktop\CHFIGH~2\Debug\main.src
014AD6 DD07F0              A  8217    	LD	BC,(IX+-16)
014AD9 DD0FF6              A  8218    	LD	(IX+-10),BC
014ADC DD07F3              A  8219    	LD	BC,(IX+-13)
014ADF DD0FF9              A  8220    	LD	(IX+-7),BC
014AE2 DD27F0              A  8221    	LD	HL,(IX+-16)
014AE5 29                  A  8222    	ADD	HL,HL
014AE6 29                  A  8223    	ADD	HL,HL
014AE7 29                  A  8224    	ADD	HL,HL
014AE8 29                  A  8225    	ADD	HL,HL
014AE9 29                  A  8226    	ADD	HL,HL
014AEA B7                  A  8227    	OR	A,A
014AEB DD07F0              A  8228    	LD	BC,(IX+-16)
014AEE ED42                A  8229    	SBC	HL,BC
014AF0 29                  A  8230    	ADD	HL,HL
014AF1 29                  A  8231    	ADD	HL,HL
014AF2 DD07F0              A  8232    	LD	BC,(IX+-16)
014AF5 09                  A  8233    	ADD	HL,BC
014AF6 29                  A  8234    	ADD	HL,HL
014AF7 29                  A  8235    	ADD	HL,HL
014AF8 29                  A  8236    	ADD	HL,HL
014AF9 E5C1                A  8237    	LD	BC,HL
014AFB CD AB 71 01         A  8238    	CALL	__itol
014AFF DD0FFC              A  8239    	LD	(IX+-4),BC
014B02 DD77FF              A  8240    	LD	(IX+-1),A
014B05 DD27F3              A  8241    	LD	HL,(IX+-13)
014B08 29                  A  8242    	ADD	HL,HL
014B09 29                  A  8243    	ADD	HL,HL
014B0A B7                  A  8244    	OR	A,A
014B0B DD07F3              A  8245    	LD	BC,(IX+-13)
014B0E ED42                A  8246    	SBC	HL,BC
014B10 29                  A  8247    	ADD	HL,HL
014B11 29                  A  8248    	ADD	HL,HL
014B12 29                  A  8249    	ADD	HL,HL
014B13 DD07F3              A  8250    	LD	BC,(IX+-13)
014B16 09                  A  8251    	ADD	HL,BC
014B17 29                  A  8252    	ADD	HL,HL
014B18 29                  A  8253    	ADD	HL,HL
014B19 E5C1                A  8254    	LD	BC,HL
014B1B CD AB 71 01         A  8255    	CALL	__itol
014B1F 5F                  A  8256    	LD	E,A
014B20 C5E1                A  8257    	LD	HL,BC
014B22 DD07FC              A  8258    	LD	BC,(IX+-4)
014B25 DD7EFF              A  8259    	LD	A,(IX+-1)
014B28 CD 0B 6E 01         A  8260    	CALL	__ladd
014B2C DD2FFC              A  8261    	LD	(IX+-4),HL
014B2F DD73FF              A  8262    	LD	(IX+-1),E
014B32 DD07F9              A  8263    	LD	BC,(IX+-7)
014B35 03                  A  8264    	INC	BC
014B36 DD0FF9              A  8265    	LD	(IX+-7),BC
014B39 DD17F6              A  8266    	LD	DE,(IX+-10)
014B3C 1B                  A  8267    	DEC	DE
014B3D DD1FF6              A  8268    	LD	(IX+-10),DE
Zilog eZ80 Macro Assembler Version 4.1 (10060805) RELISTED26-Aug-11     11:07:39     page: 160


PC     Object              I  Line    Source C:\Users\fog76\Desktop\CHFIGH~2\Debug\main.src
014B40 DD27FC              A  8269    	LD	HL,(IX+-4)
014B43 DD5EFF              A  8270    	LD	E,(IX+-1)
014B46 CD AB 71 01         A  8271    	CALL	__itol
014B4A CD 0B 6E 01         A  8272    	CALL	__ladd
014B4E DD2FFC              A  8273    	LD	(IX+-4),HL
014B51 DD73FF              A  8274    	LD	(IX+-1),E
014B54 DD27F6              A  8275    	LD	HL,(IX+-10)
014B57 29                  A  8276    	ADD	HL,HL
014B58 29                  A  8277    	ADD	HL,HL
014B59 DD07F6              A  8278    	LD	BC,(IX+-10)
014B5C 09                  A  8279    	ADD	HL,BC
014B5D 29                  A  8280    	ADD	HL,HL
014B5E E5C1                A  8281    	LD	BC,HL
014B60 CD AB 71 01         A  8282    	CALL	__itol
014B64 5F                  A  8283    	LD	E,A
014B65 C5E1                A  8284    	LD	HL,BC
014B67 DD07FC              A  8285    	LD	BC,(IX+-4)
014B6A DD7EFF              A  8286    	LD	A,(IX+-1)
014B6D CD 0B 6E 01         A  8287    	CALL	__ladd
014B71 DD2FFC              A  8288    	LD	(IX+-4),HL
014B74 DD73FF              A  8289    	LD	(IX+-1),E
014B77 DD4EFF              A  8290    	LD	C,(IX+-1)
014B7A 0600                A  8291    	LD	B,0
014B7C C5                  A  8292    	PUSH	BC
014B7D DD07FC              A  8293    	LD	BC,(IX+-4)
014B80 C5                  A  8294    	PUSH	BC
014B81 C5                  A  8295    	PUSH	BC
014B82 E5                  A  8296    	PUSH	HL
014B83 FDE5E1              A  8297    	LD	HL,IY
014B86 0125FFFF            A  8298    	LD	BC,-219
014B8A CD 2A 70 01         A  8299    	CALL	__istix
014B8E E1                  A  8300    	POP	HL
014B8F C1                  A  8301    	POP	BC
014B90 CD 98 1E 01         A  8302    	CALL	_mossaimposs
014B94 C5                  A  8303    	PUSH	BC
014B95 0125FFFF            A  8304    	LD	BC,-219
014B99 E5                  A  8305    	PUSH	HL
014B9A CD CD 72 01         A  8306    	CALL	__ildix
014B9E E5FDE1              A  8307    	LD	IY,HL
014BA1 E1                  A  8308    	POP	HL
014BA2 C1                  A  8309    	POP	BC
014BA3 C1                  A  8310    	POP	BC
014BA4 C1                  A  8311    	POP	BC
014BA5 01020000            A  8312    	LD	BC,2
014BA9 B7                  A  8313    	OR	A,A
014BAA ED42                A  8314    	SBC	HL,BC
014BAC CA EE 4C 01         A  8315    	JR	Z,L_526
014BB0 DD27FC              A  8316    	LD	HL,(IX+-4)
014BB3 DD5EFF              A  8317    	LD	E,(IX+-1)
014BB6 010A0000            A  8318    	LD	BC,10
014BBA AF                  A  8319    	XOR	A,A
014BBB CD 60 70 01         A  8320    	CALL	__ldivu
Zilog eZ80 Macro Assembler Version 4.1 (10060805) RELISTED26-Aug-11     11:07:39     page: 161


PC     Object              I  Line    Source C:\Users\fog76\Desktop\CHFIGH~2\Debug\main.src
014BBF 010A0000            A  8321    	LD	BC,10
014BC3 AF                  A  8322    	XOR	A,A
014BC4 CD 1D 72 01         A  8323    	CALL	__lremu
014BC8 01280000            A  8324    	LD	BC,40
014BCC AF                  A  8325    	XOR	A,A
014BCD CD 60 72 01         A  8326    	CALL	__lmulu
014BD1 01 D5 75 01         A  8327    	LD	BC,_scac
014BD5 09                  A  8328    	ADD	HL,BC
014BD6 FDE5                A  8329    	PUSH	IY
014BD8 ED5580              A  8330    	LEA	IY,IX+-128	; spill
014BDB FD2FED              A  8331    	LD	(IY+-19),HL	; spill
014BDE FDE1                A  8332    	POP	IY
014BE0 DD27FC              A  8333    	LD	HL,(IX+-4)
014BE3 DD5EFF              A  8334    	LD	E,(IX+-1)
014BE6 010A0000            A  8335    	LD	BC,10
014BEA AF                  A  8336    	XOR	A,A
014BEB CD 1D 72 01         A  8337    	CALL	__lremu
014BEF 01040000            A  8338    	LD	BC,4
014BF3 AF                  A  8339    	XOR	A,A
014BF4 CD 60 72 01         A  8340    	CALL	__lmulu
014BF8 FDE5                A  8341    	PUSH	IY
014BFA ED5580              A  8342    	LEA	IY,IX+-128	; unspill
014BFD FD07ED              A  8343    	LD	BC,(IY+-19)
014C00 FDE1                A  8344    	POP	IY
014C02 09                  A  8345    	ADD	HL,BC
014C03 E5FDE1              A  8346    	LD	IY,HL
014C06 FD2700              A  8347    	LD	HL,(IY)
014C09 FD5E03              A  8348    	LD	E,(IY+3)
014C0C 01102700            A  8349    	LD	BC,10000
014C10 AF                  A  8350    	XOR	A,A
014C11 CD 60 72 01         A  8351    	CALL	__lmuls
014C15 DD07FC              A  8352    	LD	BC,(IX+-4)
014C18 DD7EFF              A  8353    	LD	A,(IX+-1)
014C1B CD 0B 6E 01         A  8354    	CALL	__ladd
014C1F DD2FFC              A  8355    	LD	(IX+-4),HL
014C22 DD73FF              A  8356    	LD	(IX+-1),E
014C25 DD27FC              A  8357    	LD	HL,(IX+-4)
014C28 DD5EFF              A  8358    	LD	E,(IX+-1)
014C2B 01E80300            A  8359    	LD	BC,1000
014C2F AF                  A  8360    	XOR	A,A
014C30 CD 60 70 01         A  8361    	CALL	__ldivu
014C34 010A0000            A  8362    	LD	BC,10
014C38 AF                  A  8363    	XOR	A,A
014C39 CD 1D 72 01         A  8364    	CALL	__lremu
014C3D 01280000            A  8365    	LD	BC,40
014C41 AF                  A  8366    	XOR	A,A
014C42 CD 60 72 01         A  8367    	CALL	__lmulu
014C46 01 D5 75 01         A  8368    	LD	BC,_scac
014C4A 09                  A  8369    	ADD	HL,BC
014C4B FDE5                A  8370    	PUSH	IY
014C4D ED5580              A  8371    	LEA	IY,IX+-128	; spill
014C50 FD2FEA              A  8372    	LD	(IY+-22),HL	; spill
Zilog eZ80 Macro Assembler Version 4.1 (10060805) RELISTED26-Aug-11     11:07:39     page: 162


PC     Object              I  Line    Source C:\Users\fog76\Desktop\CHFIGH~2\Debug\main.src
014C53 FDE1                A  8373    	POP	IY
014C55 DD27FC              A  8374    	LD	HL,(IX+-4)
014C58 DD5EFF              A  8375    	LD	E,(IX+-1)
014C5B 01640000            A  8376    	LD	BC,100
014C5F AF                  A  8377    	XOR	A,A
014C60 CD 60 70 01         A  8378    	CALL	__ldivu
014C64 010A0000            A  8379    	LD	BC,10
014C68 AF                  A  8380    	XOR	A,A
014C69 CD 1D 72 01         A  8381    	CALL	__lremu
014C6D 01040000            A  8382    	LD	BC,4
014C71 AF                  A  8383    	XOR	A,A
014C72 CD 60 72 01         A  8384    	CALL	__lmulu
014C76 FDE5                A  8385    	PUSH	IY
014C78 ED5580              A  8386    	LEA	IY,IX+-128	; unspill
014C7B FD07EA              A  8387    	LD	BC,(IY+-22)
014C7E FDE1                A  8388    	POP	IY
014C80 09                  A  8389    	ADD	HL,BC
014C81 E5FDE1              A  8390    	LD	IY,HL
014C84 FD2700              A  8391    	LD	HL,(IY)
014C87 FD5E03              A  8392    	LD	E,(IY+3)
014C8A 0140420F            A  8393    	LD	BC,1000000
014C8E AF                  A  8394    	XOR	A,A
014C8F CD 60 72 01         A  8395    	CALL	__lmuls
014C93 DD07FC              A  8396    	LD	BC,(IX+-4)
014C96 DD7EFF              A  8397    	LD	A,(IX+-1)
014C99 CD 0B 6E 01         A  8398    	CALL	__ladd
014C9D DD2FFC              A  8399    	LD	(IX+-4),HL
014CA0 DD73FF              A  8400    	LD	(IX+-1),E
014CA3 2A EB 7F 01         A  8401    	LD	HL,(_prof)
014CA7 3A EE 7F 01         A  8402    	LD	A,(_prof+3)
014CAB 5F                  A  8403    	LD	E,A
014CAC AF                  A  8404    	XOR	A,A
014CAD 01000000            A  8405    	LD	BC,0
014CB1 CD B2 71 01         A  8406    	CALL	__lcmps
014CB5 20 0F               A  8407    	JR	NZ,L_484
014CB7 DD07FC              A  8408    	LD	BC,(IX+-4)
014CBA ED43 DC 7F 01       A  8409    	LD	(_mossa_in_analisi),BC
014CBF DD7EFF              A  8410    	LD	A,(IX+-1)
014CC2 32 DF 7F 01         A  8411    	LD	(_mossa_in_analisi+3),A
014CC6                     A  8412    L_484:
014CC6 DD7E06              A  8413    	LD	A,(IX+6)
014CC9 B7                  A  8414    	OR	A,A
014CCA 20 12               A  8415    	JR	NZ,L_483
014CCC DD4EFF              A  8416    	LD	C,(IX+-1)
014CCF 0600                A  8417    	LD	B,0
014CD1 C5                  A  8418    	PUSH	BC
014CD2 DD07FC              A  8419    	LD	BC,(IX+-4)
014CD5 C5                  A  8420    	PUSH	BC
014CD6 CD 03 08 01         A  8421    	CALL	_sceglimossa
014CDA C1                  A  8422    	POP	BC
014CDB C1                  A  8423    	POP	BC
014CDC 18 10               A  8424    	JR	L_526
Zilog eZ80 Macro Assembler Version 4.1 (10060805) RELISTED26-Aug-11     11:07:39     page: 163


PC     Object              I  Line    Source C:\Users\fog76\Desktop\CHFIGH~2\Debug\main.src
014CDE                     A  8425    L_483:
014CDE DD4EFF              A  8426    	LD	C,(IX+-1)
014CE1 0600                A  8427    	LD	B,0
014CE3 C5                  A  8428    	PUSH	BC
014CE4 DD07FC              A  8429    	LD	BC,(IX+-4)
014CE7 C5                  A  8430    	PUSH	BC
014CE8 CD 3D 06 01         A  8431    	CALL	_raccogli
014CEC C1                  A  8432    	POP	BC
014CED C1                  A  8433    	POP	BC
014CEE                     A  8434    L_526:
014CEE DD31C1              A  8435    	LD	IY,(IX+-63)
014CF1 FD2700              A  8436    	LD	HL,(IY)
014CF4 FD5E03              A  8437    	LD	E,(IY+3)
014CF7 010C0000            A  8438    	LD	BC,12
014CFB AF                  A  8439    	XOR	A,A
014CFC CD B2 71 01         A  8440    	CALL	__lcmps
014D00 C2 F4 55 01         A  8441    	JR	NZ,L_528
014D04 01010000            A  8442    	LD	BC,1
014D08 2A E0 7F 01         A  8443    	LD	HL,(_col_prof)
014D0C B7                  A  8444    	OR	A,A
014D0D ED42                A  8445    	SBC	HL,BC
014D0F C2 F4 55 01         A  8446    	JR	NZ,L_528
014D13 DD07D3              A  8447    	LD	BC,(IX+-45)
014D16 DD0FC4              A  8448    	LD	(IX+-60),BC
014D19 DD27F3              A  8449    	LD	HL,(IX+-13)
014D1C 2B                  A  8450    	DEC	HL
014D1D 29                  A  8451    	ADD	HL,HL
014D1E 29                  A  8452    	ADD	HL,HL
014D1F DD2FE7              A  8453    	LD	(IX+-25),HL
014D22 DD07C4              A  8454    	LD	BC,(IX+-60)
014D25 09                  A  8455    	ADD	HL,BC
014D26 DD2FBB              A  8456    	LD	(IX+-69),HL
014D29 DD31BB              A  8457    	LD	IY,(IX+-69)
014D2C FD2700              A  8458    	LD	HL,(IY)
014D2F FD5E03              A  8459    	LD	E,(IY+3)
014D32 01000000            A  8460    	LD	BC,0
014D36 AF                  A  8461    	XOR	A,A
014D37 CD B2 71 01         A  8462    	CALL	__lcmps
014D3B 28 04               A  8463    	JR	Z,L__304
014D3D 3E01                A  8464    	LD	A,1
014D3F 18 01               A  8465    	JR	L__305
014D41                     A  8466    L__304:
014D41 AF                  A  8467    	XOR	A,A
014D42                     A  8468    L__305:
014D42 DD77E6              A  8469    	LD	(IX+-26),A
014D45 B7                  A  8470    	OR	A,A
014D46 C2 5B 4F 01         A  8471    	JR	NZ,L_506
014D4A DD07F0              A  8472    	LD	BC,(IX+-16)
014D4D DD0FF6              A  8473    	LD	(IX+-10),BC
014D50 DD07F3              A  8474    	LD	BC,(IX+-13)
014D53 DD0FF9              A  8475    	LD	(IX+-7),BC
014D56 DD27F0              A  8476    	LD	HL,(IX+-16)
Zilog eZ80 Macro Assembler Version 4.1 (10060805) RELISTED26-Aug-11     11:07:39     page: 164


PC     Object              I  Line    Source C:\Users\fog76\Desktop\CHFIGH~2\Debug\main.src
014D59 29                  A  8477    	ADD	HL,HL
014D5A 29                  A  8478    	ADD	HL,HL
014D5B 29                  A  8479    	ADD	HL,HL
014D5C 29                  A  8480    	ADD	HL,HL
014D5D 29                  A  8481    	ADD	HL,HL
014D5E B7                  A  8482    	OR	A,A
014D5F DD07F0              A  8483    	LD	BC,(IX+-16)
014D62 ED42                A  8484    	SBC	HL,BC
014D64 29                  A  8485    	ADD	HL,HL
014D65 29                  A  8486    	ADD	HL,HL
014D66 DD07F0              A  8487    	LD	BC,(IX+-16)
014D69 09                  A  8488    	ADD	HL,BC
014D6A 29                  A  8489    	ADD	HL,HL
014D6B 29                  A  8490    	ADD	HL,HL
014D6C 29                  A  8491    	ADD	HL,HL
014D6D E5C1                A  8492    	LD	BC,HL
014D6F CD AB 71 01         A  8493    	CALL	__itol
014D73 DD0FFC              A  8494    	LD	(IX+-4),BC
014D76 DD77FF              A  8495    	LD	(IX+-1),A
014D79 DD27F3              A  8496    	LD	HL,(IX+-13)
014D7C 29                  A  8497    	ADD	HL,HL
014D7D 29                  A  8498    	ADD	HL,HL
014D7E B7                  A  8499    	OR	A,A
014D7F DD07F3              A  8500    	LD	BC,(IX+-13)
014D82 ED42                A  8501    	SBC	HL,BC
014D84 29                  A  8502    	ADD	HL,HL
014D85 29                  A  8503    	ADD	HL,HL
014D86 29                  A  8504    	ADD	HL,HL
014D87 DD07F3              A  8505    	LD	BC,(IX+-13)
014D8A 09                  A  8506    	ADD	HL,BC
014D8B 29                  A  8507    	ADD	HL,HL
014D8C 29                  A  8508    	ADD	HL,HL
014D8D E5C1                A  8509    	LD	BC,HL
014D8F CD AB 71 01         A  8510    	CALL	__itol
014D93 5F                  A  8511    	LD	E,A
014D94 C5E1                A  8512    	LD	HL,BC
014D96 DD07FC              A  8513    	LD	BC,(IX+-4)
014D99 DD7EFF              A  8514    	LD	A,(IX+-1)
014D9C CD 0B 6E 01         A  8515    	CALL	__ladd
014DA0 DD2FFC              A  8516    	LD	(IX+-4),HL
014DA3 DD73FF              A  8517    	LD	(IX+-1),E
014DA6 DD07F9              A  8518    	LD	BC,(IX+-7)
014DA9 0B                  A  8519    	DEC	BC
014DAA DD0FF9              A  8520    	LD	(IX+-7),BC
014DAD CD AB 71 01         A  8521    	CALL	__itol
014DB1 DD27FC              A  8522    	LD	HL,(IX+-4)
014DB4 DD5EFF              A  8523    	LD	E,(IX+-1)
014DB7 CD 0B 6E 01         A  8524    	CALL	__ladd
014DBB DD2FFC              A  8525    	LD	(IX+-4),HL
014DBE DD73FF              A  8526    	LD	(IX+-1),E
014DC1 DD27F6              A  8527    	LD	HL,(IX+-10)
014DC4 29                  A  8528    	ADD	HL,HL
Zilog eZ80 Macro Assembler Version 4.1 (10060805) RELISTED26-Aug-11     11:07:39     page: 165


PC     Object              I  Line    Source C:\Users\fog76\Desktop\CHFIGH~2\Debug\main.src
014DC5 29                  A  8529    	ADD	HL,HL
014DC6 DD07F6              A  8530    	LD	BC,(IX+-10)
014DC9 09                  A  8531    	ADD	HL,BC
014DCA 29                  A  8532    	ADD	HL,HL
014DCB E5C1                A  8533    	LD	BC,HL
014DCD CD AB 71 01         A  8534    	CALL	__itol
014DD1 5F                  A  8535    	LD	E,A
014DD2 C5E1                A  8536    	LD	HL,BC
014DD4 DD07FC              A  8537    	LD	BC,(IX+-4)
014DD7 DD7EFF              A  8538    	LD	A,(IX+-1)
014DDA CD 0B 6E 01         A  8539    	CALL	__ladd
014DDE DD2FFC              A  8540    	LD	(IX+-4),HL
014DE1 DD73FF              A  8541    	LD	(IX+-1),E
014DE4 DD4EFF              A  8542    	LD	C,(IX+-1)
014DE7 0600                A  8543    	LD	B,0
014DE9 C5                  A  8544    	PUSH	BC
014DEA DD07FC              A  8545    	LD	BC,(IX+-4)
014DED C5                  A  8546    	PUSH	BC
014DEE C5                  A  8547    	PUSH	BC
014DEF E5                  A  8548    	PUSH	HL
014DF0 FDE5E1              A  8549    	LD	HL,IY
014DF3 0125FFFF            A  8550    	LD	BC,-219
014DF7 CD 2A 70 01         A  8551    	CALL	__istix
014DFB E1                  A  8552    	POP	HL
014DFC C1                  A  8553    	POP	BC
014DFD CD 98 1E 01         A  8554    	CALL	_mossaimposs
014E01 C5                  A  8555    	PUSH	BC
014E02 0125FFFF            A  8556    	LD	BC,-219
014E06 E5                  A  8557    	PUSH	HL
014E07 CD CD 72 01         A  8558    	CALL	__ildix
014E0B E5FDE1              A  8559    	LD	IY,HL
014E0E E1                  A  8560    	POP	HL
014E0F C1                  A  8561    	POP	BC
014E10 C1                  A  8562    	POP	BC
014E11 C1                  A  8563    	POP	BC
014E12 01020000            A  8564    	LD	BC,2
014E16 B7                  A  8565    	OR	A,A
014E17 ED42                A  8566    	SBC	HL,BC
014E19 CA 5B 4F 01         A  8567    	JR	Z,L_506
014E1D DD27FC              A  8568    	LD	HL,(IX+-4)
014E20 DD5EFF              A  8569    	LD	E,(IX+-1)
014E23 010A0000            A  8570    	LD	BC,10
014E27 AF                  A  8571    	XOR	A,A
014E28 CD 60 70 01         A  8572    	CALL	__ldivu
014E2C 010A0000            A  8573    	LD	BC,10
014E30 AF                  A  8574    	XOR	A,A
014E31 CD 1D 72 01         A  8575    	CALL	__lremu
014E35 01280000            A  8576    	LD	BC,40
014E39 AF                  A  8577    	XOR	A,A
014E3A CD 60 72 01         A  8578    	CALL	__lmulu
014E3E 01 D5 75 01         A  8579    	LD	BC,_scac
014E42 09                  A  8580    	ADD	HL,BC
Zilog eZ80 Macro Assembler Version 4.1 (10060805) RELISTED26-Aug-11     11:07:39     page: 166


PC     Object              I  Line    Source C:\Users\fog76\Desktop\CHFIGH~2\Debug\main.src
014E43 FDE5                A  8581    	PUSH	IY
014E45 ED5580              A  8582    	LEA	IY,IX+-128	; spill
014E48 FD2FF3              A  8583    	LD	(IY+-13),HL	; spill
014E4B FDE1                A  8584    	POP	IY
014E4D DD27FC              A  8585    	LD	HL,(IX+-4)
014E50 DD5EFF              A  8586    	LD	E,(IX+-1)
014E53 010A0000            A  8587    	LD	BC,10
014E57 AF                  A  8588    	XOR	A,A
014E58 CD 1D 72 01         A  8589    	CALL	__lremu
014E5C 01040000            A  8590    	LD	BC,4
014E60 AF                  A  8591    	XOR	A,A
014E61 CD 60 72 01         A  8592    	CALL	__lmulu
014E65 FDE5                A  8593    	PUSH	IY
014E67 ED5580              A  8594    	LEA	IY,IX+-128	; unspill
014E6A FD07F3              A  8595    	LD	BC,(IY+-13)
014E6D FDE1                A  8596    	POP	IY
014E6F 09                  A  8597    	ADD	HL,BC
014E70 E5FDE1              A  8598    	LD	IY,HL
014E73 FD2700              A  8599    	LD	HL,(IY)
014E76 FD5E03              A  8600    	LD	E,(IY+3)
014E79 01102700            A  8601    	LD	BC,10000
014E7D AF                  A  8602    	XOR	A,A
014E7E CD 60 72 01         A  8603    	CALL	__lmuls
014E82 DD07FC              A  8604    	LD	BC,(IX+-4)
014E85 DD7EFF              A  8605    	LD	A,(IX+-1)
014E88 CD 0B 6E 01         A  8606    	CALL	__ladd
014E8C DD2FFC              A  8607    	LD	(IX+-4),HL
014E8F DD73FF              A  8608    	LD	(IX+-1),E
014E92 DD27FC              A  8609    	LD	HL,(IX+-4)
014E95 DD5EFF              A  8610    	LD	E,(IX+-1)
014E98 01E80300            A  8611    	LD	BC,1000
014E9C AF                  A  8612    	XOR	A,A
014E9D CD 60 70 01         A  8613    	CALL	__ldivu
014EA1 010A0000            A  8614    	LD	BC,10
014EA5 AF                  A  8615    	XOR	A,A
014EA6 CD 1D 72 01         A  8616    	CALL	__lremu
014EAA 01280000            A  8617    	LD	BC,40
014EAE AF                  A  8618    	XOR	A,A
014EAF CD 60 72 01         A  8619    	CALL	__lmulu
014EB3 01 D5 75 01         A  8620    	LD	BC,_scac
014EB7 09                  A  8621    	ADD	HL,BC
014EB8 FDE5                A  8622    	PUSH	IY
014EBA ED5580              A  8623    	LEA	IY,IX+-128	; spill
014EBD FD2FF0              A  8624    	LD	(IY+-16),HL	; spill
014EC0 FDE1                A  8625    	POP	IY
014EC2 DD27FC              A  8626    	LD	HL,(IX+-4)
014EC5 DD5EFF              A  8627    	LD	E,(IX+-1)
014EC8 01640000            A  8628    	LD	BC,100
014ECC AF                  A  8629    	XOR	A,A
014ECD CD 60 70 01         A  8630    	CALL	__ldivu
014ED1 010A0000            A  8631    	LD	BC,10
014ED5 AF                  A  8632    	XOR	A,A
Zilog eZ80 Macro Assembler Version 4.1 (10060805) RELISTED26-Aug-11     11:07:39     page: 167


PC     Object              I  Line    Source C:\Users\fog76\Desktop\CHFIGH~2\Debug\main.src
014ED6 CD 1D 72 01         A  8633    	CALL	__lremu
014EDA 01040000            A  8634    	LD	BC,4
014EDE AF                  A  8635    	XOR	A,A
014EDF CD 60 72 01         A  8636    	CALL	__lmulu
014EE3 FDE5                A  8637    	PUSH	IY
014EE5 ED5580              A  8638    	LEA	IY,IX+-128	; unspill
014EE8 FD07F0              A  8639    	LD	BC,(IY+-16)
014EEB FDE1                A  8640    	POP	IY
014EED 09                  A  8641    	ADD	HL,BC
014EEE E5FDE1              A  8642    	LD	IY,HL
014EF1 FD2700              A  8643    	LD	HL,(IY)
014EF4 FD5E03              A  8644    	LD	E,(IY+3)
014EF7 0140420F            A  8645    	LD	BC,1000000
014EFB AF                  A  8646    	XOR	A,A
014EFC CD 60 72 01         A  8647    	CALL	__lmuls
014F00 DD07FC              A  8648    	LD	BC,(IX+-4)
014F03 DD7EFF              A  8649    	LD	A,(IX+-1)
014F06 CD 0B 6E 01         A  8650    	CALL	__ladd
014F0A DD2FFC              A  8651    	LD	(IX+-4),HL
014F0D DD73FF              A  8652    	LD	(IX+-1),E
014F10 2A EB 7F 01         A  8653    	LD	HL,(_prof)
014F14 3A EE 7F 01         A  8654    	LD	A,(_prof+3)
014F18 5F                  A  8655    	LD	E,A
014F19 AF                  A  8656    	XOR	A,A
014F1A 01000000            A  8657    	LD	BC,0
014F1E CD B2 71 01         A  8658    	CALL	__lcmps
014F22 20 0F               A  8659    	JR	NZ,L_495
014F24 DD07FC              A  8660    	LD	BC,(IX+-4)
014F27 ED43 DC 7F 01       A  8661    	LD	(_mossa_in_analisi),BC
014F2C DD7EFF              A  8662    	LD	A,(IX+-1)
014F2F 32 DF 7F 01         A  8663    	LD	(_mossa_in_analisi+3),A
014F33                     A  8664    L_495:
014F33 DD7E06              A  8665    	LD	A,(IX+6)
014F36 B7                  A  8666    	OR	A,A
014F37 20 12               A  8667    	JR	NZ,L_494
014F39 DD4EFF              A  8668    	LD	C,(IX+-1)
014F3C 0600                A  8669    	LD	B,0
014F3E C5                  A  8670    	PUSH	BC
014F3F DD07FC              A  8671    	LD	BC,(IX+-4)
014F42 C5                  A  8672    	PUSH	BC
014F43 CD 03 08 01         A  8673    	CALL	_sceglimossa
014F47 C1                  A  8674    	POP	BC
014F48 C1                  A  8675    	POP	BC
014F49 18 10               A  8676    	JR	L_506
014F4B                     A  8677    L_494:
014F4B DD4EFF              A  8678    	LD	C,(IX+-1)
014F4E 0600                A  8679    	LD	B,0
014F50 C5                  A  8680    	PUSH	BC
014F51 DD07FC              A  8681    	LD	BC,(IX+-4)
014F54 C5                  A  8682    	PUSH	BC
014F55 CD 3D 06 01         A  8683    	CALL	_raccogli
014F59 C1                  A  8684    	POP	BC
Zilog eZ80 Macro Assembler Version 4.1 (10060805) RELISTED26-Aug-11     11:07:39     page: 168


PC     Object              I  Line    Source C:\Users\fog76\Desktop\CHFIGH~2\Debug\main.src
014F5A C1                  A  8685    	POP	BC
014F5B                     A  8686    L_506:
014F5B 01070000            A  8687    	LD	BC,7
014F5F DD27F3              A  8688    	LD	HL,(IX+-13)
014F62 B7                  A  8689    	OR	A,A
014F63 ED42                A  8690    	SBC	HL,BC
014F65 C2 A8 51 01         A  8691    	JR	NZ,L_515
014F69 DD7EE6              A  8692    	LD	A,(IX+-26)
014F6C B7                  A  8693    	OR	A,A
014F6D C2 A8 51 01         A  8694    	JR	NZ,L_515
014F71 DD31F3              A  8695    	LD	IY,(IX+-13)
014F74 ED03FE              A  8696    	LEA	BC,IY+-2
014F77 C5E1                A  8697    	LD	HL,BC
014F79 29                  A  8698    	ADD	HL,HL
014F7A 29                  A  8699    	ADD	HL,HL
014F7B DD07C4              A  8700    	LD	BC,(IX+-60)
014F7E 09                  A  8701    	ADD	HL,BC
014F7F 01000000            A  8702    	LD	BC,0
014F83 AF                  A  8703    	XOR	A,A
014F84 E5FDE1              A  8704    	LD	IY,HL
014F87 FD2700              A  8705    	LD	HL,(IY)
014F8A FD5E03              A  8706    	LD	E,(IY+3)
014F8D CD B2 71 01         A  8707    	CALL	__lcmps
014F91 C2 A8 51 01         A  8708    	JR	NZ,L_515
014F95 DD07F0              A  8709    	LD	BC,(IX+-16)
014F98 DD0FF6              A  8710    	LD	(IX+-10),BC
014F9B DD07F3              A  8711    	LD	BC,(IX+-13)
014F9E DD0FF9              A  8712    	LD	(IX+-7),BC
014FA1 DD27F0              A  8713    	LD	HL,(IX+-16)
014FA4 29                  A  8714    	ADD	HL,HL
014FA5 29                  A  8715    	ADD	HL,HL
014FA6 29                  A  8716    	ADD	HL,HL
014FA7 29                  A  8717    	ADD	HL,HL
014FA8 29                  A  8718    	ADD	HL,HL
014FA9 B7                  A  8719    	OR	A,A
014FAA DD07F0              A  8720    	LD	BC,(IX+-16)
014FAD ED42                A  8721    	SBC	HL,BC
014FAF 29                  A  8722    	ADD	HL,HL
014FB0 29                  A  8723    	ADD	HL,HL
014FB1 DD07F0              A  8724    	LD	BC,(IX+-16)
014FB4 09                  A  8725    	ADD	HL,BC
014FB5 29                  A  8726    	ADD	HL,HL
014FB6 29                  A  8727    	ADD	HL,HL
014FB7 29                  A  8728    	ADD	HL,HL
014FB8 E5C1                A  8729    	LD	BC,HL
014FBA CD AB 71 01         A  8730    	CALL	__itol
014FBE DD0FFC              A  8731    	LD	(IX+-4),BC
014FC1 DD77FF              A  8732    	LD	(IX+-1),A
014FC4 DD27F3              A  8733    	LD	HL,(IX+-13)
014FC7 29                  A  8734    	ADD	HL,HL
014FC8 29                  A  8735    	ADD	HL,HL
014FC9 B7                  A  8736    	OR	A,A
Zilog eZ80 Macro Assembler Version 4.1 (10060805) RELISTED26-Aug-11     11:07:39     page: 169


PC     Object              I  Line    Source C:\Users\fog76\Desktop\CHFIGH~2\Debug\main.src
014FCA DD07F3              A  8737    	LD	BC,(IX+-13)
014FCD ED42                A  8738    	SBC	HL,BC
014FCF 29                  A  8739    	ADD	HL,HL
014FD0 29                  A  8740    	ADD	HL,HL
014FD1 29                  A  8741    	ADD	HL,HL
014FD2 DD07F3              A  8742    	LD	BC,(IX+-13)
014FD5 09                  A  8743    	ADD	HL,BC
014FD6 29                  A  8744    	ADD	HL,HL
014FD7 29                  A  8745    	ADD	HL,HL
014FD8 E5C1                A  8746    	LD	BC,HL
014FDA CD AB 71 01         A  8747    	CALL	__itol
014FDE 5F                  A  8748    	LD	E,A
014FDF C5E1                A  8749    	LD	HL,BC
014FE1 DD07FC              A  8750    	LD	BC,(IX+-4)
014FE4 DD7EFF              A  8751    	LD	A,(IX+-1)
014FE7 CD 0B 6E 01         A  8752    	CALL	__ladd
014FEB DD2FFC              A  8753    	LD	(IX+-4),HL
014FEE DD73FF              A  8754    	LD	(IX+-1),E
014FF1 DD31F9              A  8755    	LD	IY,(IX+-7)
014FF4 ED03FE              A  8756    	LEA	BC,IY+-2
014FF7 DD0FF9              A  8757    	LD	(IX+-7),BC
014FFA CD AB 71 01         A  8758    	CALL	__itol
014FFE DD27FC              A  8759    	LD	HL,(IX+-4)
015001 DD5EFF              A  8760    	LD	E,(IX+-1)
015004 CD 0B 6E 01         A  8761    	CALL	__ladd
015008 DD2FFC              A  8762    	LD	(IX+-4),HL
01500B DD73FF              A  8763    	LD	(IX+-1),E
01500E DD27F6              A  8764    	LD	HL,(IX+-10)
015011 29                  A  8765    	ADD	HL,HL
015012 29                  A  8766    	ADD	HL,HL
015013 DD07F6              A  8767    	LD	BC,(IX+-10)
015016 09                  A  8768    	ADD	HL,BC
015017 29                  A  8769    	ADD	HL,HL
015018 E5C1                A  8770    	LD	BC,HL
01501A CD AB 71 01         A  8771    	CALL	__itol
01501E 5F                  A  8772    	LD	E,A
01501F C5E1                A  8773    	LD	HL,BC
015021 DD07FC              A  8774    	LD	BC,(IX+-4)
015024 DD7EFF              A  8775    	LD	A,(IX+-1)
015027 CD 0B 6E 01         A  8776    	CALL	__ladd
01502B DD2FFC              A  8777    	LD	(IX+-4),HL
01502E DD73FF              A  8778    	LD	(IX+-1),E
015031 DD4EFF              A  8779    	LD	C,(IX+-1)
015034 0600                A  8780    	LD	B,0
015036 C5                  A  8781    	PUSH	BC
015037 DD07FC              A  8782    	LD	BC,(IX+-4)
01503A C5                  A  8783    	PUSH	BC
01503B C5                  A  8784    	PUSH	BC
01503C E5                  A  8785    	PUSH	HL
01503D FDE5E1              A  8786    	LD	HL,IY
015040 0125FFFF            A  8787    	LD	BC,-219
015044 CD 2A 70 01         A  8788    	CALL	__istix
Zilog eZ80 Macro Assembler Version 4.1 (10060805) RELISTED26-Aug-11     11:07:39     page: 170


PC     Object              I  Line    Source C:\Users\fog76\Desktop\CHFIGH~2\Debug\main.src
015048 E1                  A  8789    	POP	HL
015049 C1                  A  8790    	POP	BC
01504A CD 98 1E 01         A  8791    	CALL	_mossaimposs
01504E C5                  A  8792    	PUSH	BC
01504F 0125FFFF            A  8793    	LD	BC,-219
015053 E5                  A  8794    	PUSH	HL
015054 CD CD 72 01         A  8795    	CALL	__ildix
015058 E5FDE1              A  8796    	LD	IY,HL
01505B E1                  A  8797    	POP	HL
01505C C1                  A  8798    	POP	BC
01505D C1                  A  8799    	POP	BC
01505E C1                  A  8800    	POP	BC
01505F 01020000            A  8801    	LD	BC,2
015063 B7                  A  8802    	OR	A,A
015064 ED42                A  8803    	SBC	HL,BC
015066 CA A8 51 01         A  8804    	JR	Z,L_515
01506A DD27FC              A  8805    	LD	HL,(IX+-4)
01506D DD5EFF              A  8806    	LD	E,(IX+-1)
015070 010A0000            A  8807    	LD	BC,10
015074 AF                  A  8808    	XOR	A,A
015075 CD 60 70 01         A  8809    	CALL	__ldivu
015079 010A0000            A  8810    	LD	BC,10
01507D AF                  A  8811    	XOR	A,A
01507E CD 1D 72 01         A  8812    	CALL	__lremu
015082 01280000            A  8813    	LD	BC,40
015086 AF                  A  8814    	XOR	A,A
015087 CD 60 72 01         A  8815    	CALL	__lmulu
01508B 01 D5 75 01         A  8816    	LD	BC,_scac
01508F 09                  A  8817    	ADD	HL,BC
015090 FDE5                A  8818    	PUSH	IY
015092 ED5580              A  8819    	LEA	IY,IX+-128	; spill
015095 FD2FF9              A  8820    	LD	(IY+-7),HL	; spill
015098 FDE1                A  8821    	POP	IY
01509A DD27FC              A  8822    	LD	HL,(IX+-4)
01509D DD5EFF              A  8823    	LD	E,(IX+-1)
0150A0 010A0000            A  8824    	LD	BC,10
0150A4 AF                  A  8825    	XOR	A,A
0150A5 CD 1D 72 01         A  8826    	CALL	__lremu
0150A9 01040000            A  8827    	LD	BC,4
0150AD AF                  A  8828    	XOR	A,A
0150AE CD 60 72 01         A  8829    	CALL	__lmulu
0150B2 FDE5                A  8830    	PUSH	IY
0150B4 ED5580              A  8831    	LEA	IY,IX+-128	; unspill
0150B7 FD07F9              A  8832    	LD	BC,(IY+-7)
0150BA FDE1                A  8833    	POP	IY
0150BC 09                  A  8834    	ADD	HL,BC
0150BD E5FDE1              A  8835    	LD	IY,HL
0150C0 FD2700              A  8836    	LD	HL,(IY)
0150C3 FD5E03              A  8837    	LD	E,(IY+3)
0150C6 01102700            A  8838    	LD	BC,10000
0150CA AF                  A  8839    	XOR	A,A
0150CB CD 60 72 01         A  8840    	CALL	__lmuls
Zilog eZ80 Macro Assembler Version 4.1 (10060805) RELISTED26-Aug-11     11:07:39     page: 171


PC     Object              I  Line    Source C:\Users\fog76\Desktop\CHFIGH~2\Debug\main.src
0150CF DD07FC              A  8841    	LD	BC,(IX+-4)
0150D2 DD7EFF              A  8842    	LD	A,(IX+-1)
0150D5 CD 0B 6E 01         A  8843    	CALL	__ladd
0150D9 DD2FFC              A  8844    	LD	(IX+-4),HL
0150DC DD73FF              A  8845    	LD	(IX+-1),E
0150DF DD27FC              A  8846    	LD	HL,(IX+-4)
0150E2 DD5EFF              A  8847    	LD	E,(IX+-1)
0150E5 01E80300            A  8848    	LD	BC,1000
0150E9 AF                  A  8849    	XOR	A,A
0150EA CD 60 70 01         A  8850    	CALL	__ldivu
0150EE 010A0000            A  8851    	LD	BC,10
0150F2 AF                  A  8852    	XOR	A,A
0150F3 CD 1D 72 01         A  8853    	CALL	__lremu
0150F7 01280000            A  8854    	LD	BC,40
0150FB AF                  A  8855    	XOR	A,A
0150FC CD 60 72 01         A  8856    	CALL	__lmulu
015100 01 D5 75 01         A  8857    	LD	BC,_scac
015104 09                  A  8858    	ADD	HL,BC
015105 FDE5                A  8859    	PUSH	IY
015107 ED5580              A  8860    	LEA	IY,IX+-128	; spill
01510A FD2FF6              A  8861    	LD	(IY+-10),HL	; spill
01510D FDE1                A  8862    	POP	IY
01510F DD27FC              A  8863    	LD	HL,(IX+-4)
015112 DD5EFF              A  8864    	LD	E,(IX+-1)
015115 01640000            A  8865    	LD	BC,100
015119 AF                  A  8866    	XOR	A,A
01511A CD 60 70 01         A  8867    	CALL	__ldivu
01511E 010A0000            A  8868    	LD	BC,10
015122 AF                  A  8869    	XOR	A,A
015123 CD 1D 72 01         A  8870    	CALL	__lremu
015127 01040000            A  8871    	LD	BC,4
01512B AF                  A  8872    	XOR	A,A
01512C CD 60 72 01         A  8873    	CALL	__lmulu
015130 FDE5                A  8874    	PUSH	IY
015132 ED5580              A  8875    	LEA	IY,IX+-128	; unspill
015135 FD07F6              A  8876    	LD	BC,(IY+-10)
015138 FDE1                A  8877    	POP	IY
01513A 09                  A  8878    	ADD	HL,BC
01513B E5FDE1              A  8879    	LD	IY,HL
01513E FD2700              A  8880    	LD	HL,(IY)
015141 FD5E03              A  8881    	LD	E,(IY+3)
015144 0140420F            A  8882    	LD	BC,1000000
015148 AF                  A  8883    	XOR	A,A
015149 CD 60 72 01         A  8884    	CALL	__lmuls
01514D DD07FC              A  8885    	LD	BC,(IX+-4)
015150 DD7EFF              A  8886    	LD	A,(IX+-1)
015153 CD 0B 6E 01         A  8887    	CALL	__ladd
015157 DD2FFC              A  8888    	LD	(IX+-4),HL
01515A DD73FF              A  8889    	LD	(IX+-1),E
01515D 2A EB 7F 01         A  8890    	LD	HL,(_prof)
015161 3A EE 7F 01         A  8891    	LD	A,(_prof+3)
015165 5F                  A  8892    	LD	E,A
Zilog eZ80 Macro Assembler Version 4.1 (10060805) RELISTED26-Aug-11     11:07:39     page: 172


PC     Object              I  Line    Source C:\Users\fog76\Desktop\CHFIGH~2\Debug\main.src
015166 AF                  A  8893    	XOR	A,A
015167 01000000            A  8894    	LD	BC,0
01516B CD B2 71 01         A  8895    	CALL	__lcmps
01516F 20 0F               A  8896    	JR	NZ,L_503
015171 DD07FC              A  8897    	LD	BC,(IX+-4)
015174 ED43 DC 7F 01       A  8898    	LD	(_mossa_in_analisi),BC
015179 DD7EFF              A  8899    	LD	A,(IX+-1)
01517C 32 DF 7F 01         A  8900    	LD	(_mossa_in_analisi+3),A
015180                     A  8901    L_503:
015180 DD7E06              A  8902    	LD	A,(IX+6)
015183 B7                  A  8903    	OR	A,A
015184 20 12               A  8904    	JR	NZ,L_502
015186 DD4EFF              A  8905    	LD	C,(IX+-1)
015189 0600                A  8906    	LD	B,0
01518B C5                  A  8907    	PUSH	BC
01518C DD07FC              A  8908    	LD	BC,(IX+-4)
01518F C5                  A  8909    	PUSH	BC
015190 CD 03 08 01         A  8910    	CALL	_sceglimossa
015194 C1                  A  8911    	POP	BC
015195 C1                  A  8912    	POP	BC
015196 18 10               A  8913    	JR	L_515
015198                     A  8914    L_502:
015198 DD4EFF              A  8915    	LD	C,(IX+-1)
01519B 0600                A  8916    	LD	B,0
01519D C5                  A  8917    	PUSH	BC
01519E DD07FC              A  8918    	LD	BC,(IX+-4)
0151A1 C5                  A  8919    	PUSH	BC
0151A2 CD 3D 06 01         A  8920    	CALL	_raccogli
0151A6 C1                  A  8921    	POP	BC
0151A7 C1                  A  8922    	POP	BC
0151A8                     A  8923    L_515:
0151A8 DD07F0              A  8924    	LD	BC,(IX+-16)
0151AB 03                  A  8925    	INC	BC
0151AC C5E1                A  8926    	LD	HL,BC
0151AE 29                  A  8927    	ADD	HL,HL
0151AF 29                  A  8928    	ADD	HL,HL
0151B0 09                  A  8929    	ADD	HL,BC
0151B1 29                  A  8930    	ADD	HL,HL
0151B2 29                  A  8931    	ADD	HL,HL
0151B3 29                  A  8932    	ADD	HL,HL
0151B4 01 D5 75 01         A  8933    	LD	BC,_scac
0151B8 09                  A  8934    	ADD	HL,BC
0151B9 DD07E7              A  8935    	LD	BC,(IX+-25)
0151BC 09                  A  8936    	ADD	HL,BC
0151BD E5FDE1              A  8937    	LD	IY,HL
0151C0 FD2700              A  8938    	LD	HL,(IY)
0151C3 FD5E03              A  8939    	LD	E,(IY+3)
0151C6 01000000            A  8940    	LD	BC,0
0151CA AF                  A  8941    	XOR	A,A
0151CB CD B2 71 01         A  8942    	CALL	__lcmps
0151CF CA EB 53 01         A  8943    	JR	Z,L_524
0151D3 DD07F0              A  8944    	LD	BC,(IX+-16)
Zilog eZ80 Macro Assembler Version 4.1 (10060805) RELISTED26-Aug-11     11:07:39     page: 173


PC     Object              I  Line    Source C:\Users\fog76\Desktop\CHFIGH~2\Debug\main.src
0151D6 DD0FF6              A  8945    	LD	(IX+-10),BC
0151D9 DD07F3              A  8946    	LD	BC,(IX+-13)
0151DC DD0FF9              A  8947    	LD	(IX+-7),BC
0151DF DD27F0              A  8948    	LD	HL,(IX+-16)
0151E2 29                  A  8949    	ADD	HL,HL
0151E3 29                  A  8950    	ADD	HL,HL
0151E4 29                  A  8951    	ADD	HL,HL
0151E5 29                  A  8952    	ADD	HL,HL
0151E6 29                  A  8953    	ADD	HL,HL
0151E7 B7                  A  8954    	OR	A,A
0151E8 DD07F0              A  8955    	LD	BC,(IX+-16)
0151EB ED42                A  8956    	SBC	HL,BC
0151ED 29                  A  8957    	ADD	HL,HL
0151EE 29                  A  8958    	ADD	HL,HL
0151EF DD07F0              A  8959    	LD	BC,(IX+-16)
0151F2 09                  A  8960    	ADD	HL,BC
0151F3 29                  A  8961    	ADD	HL,HL
0151F4 29                  A  8962    	ADD	HL,HL
0151F5 29                  A  8963    	ADD	HL,HL
0151F6 E5C1                A  8964    	LD	BC,HL
0151F8 CD AB 71 01         A  8965    	CALL	__itol
0151FC DD0FFC              A  8966    	LD	(IX+-4),BC
0151FF DD77FF              A  8967    	LD	(IX+-1),A
015202 DD27F3              A  8968    	LD	HL,(IX+-13)
015205 29                  A  8969    	ADD	HL,HL
015206 29                  A  8970    	ADD	HL,HL
015207 B7                  A  8971    	OR	A,A
015208 DD07F3              A  8972    	LD	BC,(IX+-13)
01520B ED42                A  8973    	SBC	HL,BC
01520D 29                  A  8974    	ADD	HL,HL
01520E 29                  A  8975    	ADD	HL,HL
01520F 29                  A  8976    	ADD	HL,HL
015210 DD07F3              A  8977    	LD	BC,(IX+-13)
015213 09                  A  8978    	ADD	HL,BC
015214 29                  A  8979    	ADD	HL,HL
015215 29                  A  8980    	ADD	HL,HL
015216 E5C1                A  8981    	LD	BC,HL
015218 CD AB 71 01         A  8982    	CALL	__itol
01521C 5F                  A  8983    	LD	E,A
01521D C5E1                A  8984    	LD	HL,BC
01521F DD07FC              A  8985    	LD	BC,(IX+-4)
015222 DD7EFF              A  8986    	LD	A,(IX+-1)
015225 CD 0B 6E 01         A  8987    	CALL	__ladd
015229 DD2FFC              A  8988    	LD	(IX+-4),HL
01522C DD73FF              A  8989    	LD	(IX+-1),E
01522F DD07F6              A  8990    	LD	BC,(IX+-10)
015232 03                  A  8991    	INC	BC
015233 DD0FF6              A  8992    	LD	(IX+-10),BC
015236 DD07F9              A  8993    	LD	BC,(IX+-7)
015239 0B                  A  8994    	DEC	BC
01523A DD0FF9              A  8995    	LD	(IX+-7),BC
01523D CD AB 71 01         A  8996    	CALL	__itol
Zilog eZ80 Macro Assembler Version 4.1 (10060805) RELISTED26-Aug-11     11:07:39     page: 174


PC     Object              I  Line    Source C:\Users\fog76\Desktop\CHFIGH~2\Debug\main.src
015241 DD27FC              A  8997    	LD	HL,(IX+-4)
015244 DD5EFF              A  8998    	LD	E,(IX+-1)
015247 CD 0B 6E 01         A  8999    	CALL	__ladd
01524B DD2FFC              A  9000    	LD	(IX+-4),HL
01524E DD73FF              A  9001    	LD	(IX+-1),E
015251 DD27F6              A  9002    	LD	HL,(IX+-10)
015254 29                  A  9003    	ADD	HL,HL
015255 29                  A  9004    	ADD	HL,HL
015256 DD07F6              A  9005    	LD	BC,(IX+-10)
015259 09                  A  9006    	ADD	HL,BC
01525A 29                  A  9007    	ADD	HL,HL
01525B E5C1                A  9008    	LD	BC,HL
01525D CD AB 71 01         A  9009    	CALL	__itol
015261 5F                  A  9010    	LD	E,A
015262 C5E1                A  9011    	LD	HL,BC
015264 DD07FC              A  9012    	LD	BC,(IX+-4)
015267 DD7EFF              A  9013    	LD	A,(IX+-1)
01526A CD 0B 6E 01         A  9014    	CALL	__ladd
01526E DD2FFC              A  9015    	LD	(IX+-4),HL
015271 DD73FF              A  9016    	LD	(IX+-1),E
015274 DD4EFF              A  9017    	LD	C,(IX+-1)
015277 0600                A  9018    	LD	B,0
015279 C5                  A  9019    	PUSH	BC
01527A DD07FC              A  9020    	LD	BC,(IX+-4)
01527D C5                  A  9021    	PUSH	BC
01527E C5                  A  9022    	PUSH	BC
01527F E5                  A  9023    	PUSH	HL
015280 FDE5E1              A  9024    	LD	HL,IY
015283 0125FFFF            A  9025    	LD	BC,-219
015287 CD 2A 70 01         A  9026    	CALL	__istix
01528B E1                  A  9027    	POP	HL
01528C C1                  A  9028    	POP	BC
01528D CD 98 1E 01         A  9029    	CALL	_mossaimposs
015291 C5                  A  9030    	PUSH	BC
015292 0125FFFF            A  9031    	LD	BC,-219
015296 E5                  A  9032    	PUSH	HL
015297 CD CD 72 01         A  9033    	CALL	__ildix
01529B E5FDE1              A  9034    	LD	IY,HL
01529E E1                  A  9035    	POP	HL
01529F C1                  A  9036    	POP	BC
0152A0 C1                  A  9037    	POP	BC
0152A1 C1                  A  9038    	POP	BC
0152A2 01020000            A  9039    	LD	BC,2
0152A6 B7                  A  9040    	OR	A,A
0152A7 ED42                A  9041    	SBC	HL,BC
0152A9 CA EB 53 01         A  9042    	JR	Z,L_524
0152AD DD27FC              A  9043    	LD	HL,(IX+-4)
0152B0 DD5EFF              A  9044    	LD	E,(IX+-1)
0152B3 010A0000            A  9045    	LD	BC,10
0152B7 AF                  A  9046    	XOR	A,A
0152B8 CD 60 70 01         A  9047    	CALL	__ldivu
0152BC 010A0000            A  9048    	LD	BC,10
Zilog eZ80 Macro Assembler Version 4.1 (10060805) RELISTED26-Aug-11     11:07:39     page: 175


PC     Object              I  Line    Source C:\Users\fog76\Desktop\CHFIGH~2\Debug\main.src
0152C0 AF                  A  9049    	XOR	A,A
0152C1 CD 1D 72 01         A  9050    	CALL	__lremu
0152C5 01280000            A  9051    	LD	BC,40
0152C9 AF                  A  9052    	XOR	A,A
0152CA CD 60 72 01         A  9053    	CALL	__lmulu
0152CE 01 D5 75 01         A  9054    	LD	BC,_scac
0152D2 09                  A  9055    	ADD	HL,BC
0152D3 FDE5                A  9056    	PUSH	IY
0152D5 ED5580              A  9057    	LEA	IY,IX+-128	; spill
0152D8 FD2FFF              A  9058    	LD	(IY+-1),HL	; spill
0152DB FDE1                A  9059    	POP	IY
0152DD DD27FC              A  9060    	LD	HL,(IX+-4)
0152E0 DD5EFF              A  9061    	LD	E,(IX+-1)
0152E3 010A0000            A  9062    	LD	BC,10
0152E7 AF                  A  9063    	XOR	A,A
0152E8 CD 1D 72 01         A  9064    	CALL	__lremu
0152EC 01040000            A  9065    	LD	BC,4
0152F0 AF                  A  9066    	XOR	A,A
0152F1 CD 60 72 01         A  9067    	CALL	__lmulu
0152F5 FDE5                A  9068    	PUSH	IY
0152F7 ED5580              A  9069    	LEA	IY,IX+-128	; unspill
0152FA FD07FF              A  9070    	LD	BC,(IY+-1)
0152FD FDE1                A  9071    	POP	IY
0152FF 09                  A  9072    	ADD	HL,BC
015300 E5FDE1              A  9073    	LD	IY,HL
015303 FD2700              A  9074    	LD	HL,(IY)
015306 FD5E03              A  9075    	LD	E,(IY+3)
015309 01102700            A  9076    	LD	BC,10000
01530D AF                  A  9077    	XOR	A,A
01530E CD 60 72 01         A  9078    	CALL	__lmuls
015312 DD07FC              A  9079    	LD	BC,(IX+-4)
015315 DD7EFF              A  9080    	LD	A,(IX+-1)
015318 CD 0B 6E 01         A  9081    	CALL	__ladd
01531C DD2FFC              A  9082    	LD	(IX+-4),HL
01531F DD73FF              A  9083    	LD	(IX+-1),E
015322 DD27FC              A  9084    	LD	HL,(IX+-4)
015325 DD5EFF              A  9085    	LD	E,(IX+-1)
015328 01E80300            A  9086    	LD	BC,1000
01532C AF                  A  9087    	XOR	A,A
01532D CD 60 70 01         A  9088    	CALL	__ldivu
015331 010A0000            A  9089    	LD	BC,10
015335 AF                  A  9090    	XOR	A,A
015336 CD 1D 72 01         A  9091    	CALL	__lremu
01533A 01280000            A  9092    	LD	BC,40
01533E AF                  A  9093    	XOR	A,A
01533F CD 60 72 01         A  9094    	CALL	__lmulu
015343 01 D5 75 01         A  9095    	LD	BC,_scac
015347 09                  A  9096    	ADD	HL,BC
015348 FDE5                A  9097    	PUSH	IY
01534A ED5580              A  9098    	LEA	IY,IX+-128	; spill
01534D FD2FFC              A  9099    	LD	(IY+-4),HL	; spill
015350 FDE1                A  9100    	POP	IY
Zilog eZ80 Macro Assembler Version 4.1 (10060805) RELISTED26-Aug-11     11:07:39     page: 176


PC     Object              I  Line    Source C:\Users\fog76\Desktop\CHFIGH~2\Debug\main.src
015352 DD27FC              A  9101    	LD	HL,(IX+-4)
015355 DD5EFF              A  9102    	LD	E,(IX+-1)
015358 01640000            A  9103    	LD	BC,100
01535C AF                  A  9104    	XOR	A,A
01535D CD 60 70 01         A  9105    	CALL	__ldivu
015361 010A0000            A  9106    	LD	BC,10
015365 AF                  A  9107    	XOR	A,A
015366 CD 1D 72 01         A  9108    	CALL	__lremu
01536A 01040000            A  9109    	LD	BC,4
01536E AF                  A  9110    	XOR	A,A
01536F CD 60 72 01         A  9111    	CALL	__lmulu
015373 FDE5                A  9112    	PUSH	IY
015375 ED5580              A  9113    	LEA	IY,IX+-128	; unspill
015378 FD07FC              A  9114    	LD	BC,(IY+-4)
01537B FDE1                A  9115    	POP	IY
01537D 09                  A  9116    	ADD	HL,BC
01537E E5FDE1              A  9117    	LD	IY,HL
015381 FD2700              A  9118    	LD	HL,(IY)
015384 FD5E03              A  9119    	LD	E,(IY+3)
015387 0140420F            A  9120    	LD	BC,1000000
01538B AF                  A  9121    	XOR	A,A
01538C CD 60 72 01         A  9122    	CALL	__lmuls
015390 DD07FC              A  9123    	LD	BC,(IX+-4)
015393 DD7EFF              A  9124    	LD	A,(IX+-1)
015396 CD 0B 6E 01         A  9125    	CALL	__ladd
01539A DD2FFC              A  9126    	LD	(IX+-4),HL
01539D DD73FF              A  9127    	LD	(IX+-1),E
0153A0 2A EB 7F 01         A  9128    	LD	HL,(_prof)
0153A4 3A EE 7F 01         A  9129    	LD	A,(_prof+3)
0153A8 5F                  A  9130    	LD	E,A
0153A9 AF                  A  9131    	XOR	A,A
0153AA 01000000            A  9132    	LD	BC,0
0153AE CD B2 71 01         A  9133    	CALL	__lcmps
0153B2 20 0F               A  9134    	JR	NZ,L_512
0153B4 DD07FC              A  9135    	LD	BC,(IX+-4)
0153B7 ED43 DC 7F 01       A  9136    	LD	(_mossa_in_analisi),BC
0153BC DD7EFF              A  9137    	LD	A,(IX+-1)
0153BF 32 DF 7F 01         A  9138    	LD	(_mossa_in_analisi+3),A
0153C3                     A  9139    L_512:
0153C3 DD7E06              A  9140    	LD	A,(IX+6)
0153C6 B7                  A  9141    	OR	A,A
0153C7 20 12               A  9142    	JR	NZ,L_511
0153C9 DD4EFF              A  9143    	LD	C,(IX+-1)
0153CC 0600                A  9144    	LD	B,0
0153CE C5                  A  9145    	PUSH	BC
0153CF DD07FC              A  9146    	LD	BC,(IX+-4)
0153D2 C5                  A  9147    	PUSH	BC
0153D3 CD 03 08 01         A  9148    	CALL	_sceglimossa
0153D7 C1                  A  9149    	POP	BC
0153D8 C1                  A  9150    	POP	BC
0153D9 18 10               A  9151    	JR	L_524
0153DB                     A  9152    L_511:
Zilog eZ80 Macro Assembler Version 4.1 (10060805) RELISTED26-Aug-11     11:07:39     page: 177


PC     Object              I  Line    Source C:\Users\fog76\Desktop\CHFIGH~2\Debug\main.src
0153DB DD4EFF              A  9153    	LD	C,(IX+-1)
0153DE 0600                A  9154    	LD	B,0
0153E0 C5                  A  9155    	PUSH	BC
0153E1 DD07FC              A  9156    	LD	BC,(IX+-4)
0153E4 C5                  A  9157    	PUSH	BC
0153E5 CD 3D 06 01         A  9158    	CALL	_raccogli
0153E9 C1                  A  9159    	POP	BC
0153EA C1                  A  9160    	POP	BC
0153EB                     A  9161    L_524:
0153EB DD07F0              A  9162    	LD	BC,(IX+-16)
0153EE 0B                  A  9163    	DEC	BC
0153EF C5E1                A  9164    	LD	HL,BC
0153F1 29                  A  9165    	ADD	HL,HL
0153F2 29                  A  9166    	ADD	HL,HL
0153F3 09                  A  9167    	ADD	HL,BC
0153F4 29                  A  9168    	ADD	HL,HL
0153F5 29                  A  9169    	ADD	HL,HL
0153F6 29                  A  9170    	ADD	HL,HL
0153F7 01 D5 75 01         A  9171    	LD	BC,_scac
0153FB 09                  A  9172    	ADD	HL,BC
0153FC DD07E7              A  9173    	LD	BC,(IX+-25)
0153FF 09                  A  9174    	ADD	HL,BC
015400 E5FDE1              A  9175    	LD	IY,HL
015403 FD2700              A  9176    	LD	HL,(IY)
015406 FD5E03              A  9177    	LD	E,(IY+3)
015409 01000000            A  9178    	LD	BC,0
01540D AF                  A  9179    	XOR	A,A
01540E CD B2 71 01         A  9180    	CALL	__lcmps
015412 CA F4 55 01         A  9181    	JR	Z,L_528
015416 DD07F0              A  9182    	LD	BC,(IX+-16)
015419 DD0FF6              A  9183    	LD	(IX+-10),BC
01541C DD07F3              A  9184    	LD	BC,(IX+-13)
01541F DD0FF9              A  9185    	LD	(IX+-7),BC
015422 DD27F0              A  9186    	LD	HL,(IX+-16)
015425 29                  A  9187    	ADD	HL,HL
015426 29                  A  9188    	ADD	HL,HL
015427 29                  A  9189    	ADD	HL,HL
015428 29                  A  9190    	ADD	HL,HL
015429 29                  A  9191    	ADD	HL,HL
01542A B7                  A  9192    	OR	A,A
01542B DD07F0              A  9193    	LD	BC,(IX+-16)
01542E ED42                A  9194    	SBC	HL,BC
015430 29                  A  9195    	ADD	HL,HL
015431 29                  A  9196    	ADD	HL,HL
015432 DD07F0              A  9197    	LD	BC,(IX+-16)
015435 09                  A  9198    	ADD	HL,BC
015436 29                  A  9199    	ADD	HL,HL
015437 29                  A  9200    	ADD	HL,HL
015438 29                  A  9201    	ADD	HL,HL
015439 E5C1                A  9202    	LD	BC,HL
01543B CD AB 71 01         A  9203    	CALL	__itol
01543F DD0FFC              A  9204    	LD	(IX+-4),BC
Zilog eZ80 Macro Assembler Version 4.1 (10060805) RELISTED26-Aug-11     11:07:39     page: 178


PC     Object              I  Line    Source C:\Users\fog76\Desktop\CHFIGH~2\Debug\main.src
015442 DD77FF              A  9205    	LD	(IX+-1),A
015445 DD27F3              A  9206    	LD	HL,(IX+-13)
015448 29                  A  9207    	ADD	HL,HL
015449 29                  A  9208    	ADD	HL,HL
01544A B7                  A  9209    	OR	A,A
01544B DD07F3              A  9210    	LD	BC,(IX+-13)
01544E ED42                A  9211    	SBC	HL,BC
015450 29                  A  9212    	ADD	HL,HL
015451 29                  A  9213    	ADD	HL,HL
015452 29                  A  9214    	ADD	HL,HL
015453 DD07F3              A  9215    	LD	BC,(IX+-13)
015456 09                  A  9216    	ADD	HL,BC
015457 29                  A  9217    	ADD	HL,HL
015458 29                  A  9218    	ADD	HL,HL
015459 E5C1                A  9219    	LD	BC,HL
01545B CD AB 71 01         A  9220    	CALL	__itol
01545F 5F                  A  9221    	LD	E,A
015460 C5E1                A  9222    	LD	HL,BC
015462 DD07FC              A  9223    	LD	BC,(IX+-4)
015465 DD7EFF              A  9224    	LD	A,(IX+-1)
015468 CD 0B 6E 01         A  9225    	CALL	__ladd
01546C DD2FFC              A  9226    	LD	(IX+-4),HL
01546F DD73FF              A  9227    	LD	(IX+-1),E
015472 DD07F9              A  9228    	LD	BC,(IX+-7)
015475 0B                  A  9229    	DEC	BC
015476 DD0FF9              A  9230    	LD	(IX+-7),BC
015479 DD17F6              A  9231    	LD	DE,(IX+-10)
01547C 1B                  A  9232    	DEC	DE
01547D DD1FF6              A  9233    	LD	(IX+-10),DE
015480 DD27FC              A  9234    	LD	HL,(IX+-4)
015483 DD5EFF              A  9235    	LD	E,(IX+-1)
015486 CD AB 71 01         A  9236    	CALL	__itol
01548A CD 0B 6E 01         A  9237    	CALL	__ladd
01548E DD2FFC              A  9238    	LD	(IX+-4),HL
015491 DD73FF              A  9239    	LD	(IX+-1),E
015494 DD27F6              A  9240    	LD	HL,(IX+-10)
015497 29                  A  9241    	ADD	HL,HL
015498 29                  A  9242    	ADD	HL,HL
015499 DD07F6              A  9243    	LD	BC,(IX+-10)
01549C 09                  A  9244    	ADD	HL,BC
01549D 29                  A  9245    	ADD	HL,HL
01549E E5C1                A  9246    	LD	BC,HL
0154A0 CD AB 71 01         A  9247    	CALL	__itol
0154A4 5F                  A  9248    	LD	E,A
0154A5 C5E1                A  9249    	LD	HL,BC
0154A7 DD07FC              A  9250    	LD	BC,(IX+-4)
0154AA DD7EFF              A  9251    	LD	A,(IX+-1)
0154AD CD 0B 6E 01         A  9252    	CALL	__ladd
0154B1 DD2FFC              A  9253    	LD	(IX+-4),HL
0154B4 DD73FF              A  9254    	LD	(IX+-1),E
0154B7 DD4EFF              A  9255    	LD	C,(IX+-1)
0154BA 0600                A  9256    	LD	B,0
Zilog eZ80 Macro Assembler Version 4.1 (10060805) RELISTED26-Aug-11     11:07:39     page: 179


PC     Object              I  Line    Source C:\Users\fog76\Desktop\CHFIGH~2\Debug\main.src
0154BC C5                  A  9257    	PUSH	BC
0154BD DD07FC              A  9258    	LD	BC,(IX+-4)
0154C0 C5                  A  9259    	PUSH	BC
0154C1 CD 98 1E 01         A  9260    	CALL	_mossaimposs
0154C5 C1                  A  9261    	POP	BC
0154C6 C1                  A  9262    	POP	BC
0154C7 01020000            A  9263    	LD	BC,2
0154CB B7                  A  9264    	OR	A,A
0154CC ED42                A  9265    	SBC	HL,BC
0154CE CA F4 55 01         A  9266    	JR	Z,L_528
0154D2 DD27FC              A  9267    	LD	HL,(IX+-4)
0154D5 DD5EFF              A  9268    	LD	E,(IX+-1)
0154D8 010A0000            A  9269    	LD	BC,10
0154DC AF                  A  9270    	XOR	A,A
0154DD CD 60 70 01         A  9271    	CALL	__ldivu
0154E1 010A0000            A  9272    	LD	BC,10
0154E5 AF                  A  9273    	XOR	A,A
0154E6 CD 1D 72 01         A  9274    	CALL	__lremu
0154EA 01280000            A  9275    	LD	BC,40
0154EE AF                  A  9276    	XOR	A,A
0154EF CD 60 72 01         A  9277    	CALL	__lmulu
0154F3 01 D5 75 01         A  9278    	LD	BC,_scac
0154F7 09                  A  9279    	ADD	HL,BC
0154F8 DD2F85              A  9280    	LD	(IX+-123),HL	; spill
0154FB DD27FC              A  9281    	LD	HL,(IX+-4)
0154FE DD5EFF              A  9282    	LD	E,(IX+-1)
015501 010A0000            A  9283    	LD	BC,10
015505 AF                  A  9284    	XOR	A,A
015506 CD 1D 72 01         A  9285    	CALL	__lremu
01550A 01040000            A  9286    	LD	BC,4
01550E AF                  A  9287    	XOR	A,A
01550F CD 60 72 01         A  9288    	CALL	__lmulu
015513 DD0785              A  9289    	LD	BC,(IX+-123)	; unspill
015516 09                  A  9290    	ADD	HL,BC
015517 E5FDE1              A  9291    	LD	IY,HL
01551A FD2700              A  9292    	LD	HL,(IY)
01551D FD5E03              A  9293    	LD	E,(IY+3)
015520 01102700            A  9294    	LD	BC,10000
015524 AF                  A  9295    	XOR	A,A
015525 CD 60 72 01         A  9296    	CALL	__lmuls
015529 DD07FC              A  9297    	LD	BC,(IX+-4)
01552C DD7EFF              A  9298    	LD	A,(IX+-1)
01552F CD 0B 6E 01         A  9299    	CALL	__ladd
015533 DD2FFC              A  9300    	LD	(IX+-4),HL
015536 DD73FF              A  9301    	LD	(IX+-1),E
015539 DD27FC              A  9302    	LD	HL,(IX+-4)
01553C DD5EFF              A  9303    	LD	E,(IX+-1)
01553F 01E80300            A  9304    	LD	BC,1000
015543 AF                  A  9305    	XOR	A,A
015544 CD 60 70 01         A  9306    	CALL	__ldivu
015548 010A0000            A  9307    	LD	BC,10
01554C AF                  A  9308    	XOR	A,A
Zilog eZ80 Macro Assembler Version 4.1 (10060805) RELISTED26-Aug-11     11:07:39     page: 180


PC     Object              I  Line    Source C:\Users\fog76\Desktop\CHFIGH~2\Debug\main.src
01554D CD 1D 72 01         A  9309    	CALL	__lremu
015551 01280000            A  9310    	LD	BC,40
015555 AF                  A  9311    	XOR	A,A
015556 CD 60 72 01         A  9312    	CALL	__lmulu
01555A 01 D5 75 01         A  9313    	LD	BC,_scac
01555E 09                  A  9314    	ADD	HL,BC
01555F DD2F82              A  9315    	LD	(IX+-126),HL	; spill
015562 DD27FC              A  9316    	LD	HL,(IX+-4)
015565 DD5EFF              A  9317    	LD	E,(IX+-1)
015568 01640000            A  9318    	LD	BC,100
01556C AF                  A  9319    	XOR	A,A
01556D CD 60 70 01         A  9320    	CALL	__ldivu
015571 010A0000            A  9321    	LD	BC,10
015575 AF                  A  9322    	XOR	A,A
015576 CD 1D 72 01         A  9323    	CALL	__lremu
01557A 01040000            A  9324    	LD	BC,4
01557E AF                  A  9325    	XOR	A,A
01557F CD 60 72 01         A  9326    	CALL	__lmulu
015583 DD0782              A  9327    	LD	BC,(IX+-126)	; unspill
015586 09                  A  9328    	ADD	HL,BC
015587 E5FDE1              A  9329    	LD	IY,HL
01558A FD2700              A  9330    	LD	HL,(IY)
01558D FD5E03              A  9331    	LD	E,(IY+3)
015590 0140420F            A  9332    	LD	BC,1000000
015594 AF                  A  9333    	XOR	A,A
015595 CD 60 72 01         A  9334    	CALL	__lmuls
015599 DD07FC              A  9335    	LD	BC,(IX+-4)
01559C DD7EFF              A  9336    	LD	A,(IX+-1)
01559F CD 0B 6E 01         A  9337    	CALL	__ladd
0155A3 DD2FFC              A  9338    	LD	(IX+-4),HL
0155A6 DD73FF              A  9339    	LD	(IX+-1),E
0155A9 2A EB 7F 01         A  9340    	LD	HL,(_prof)
0155AD 3A EE 7F 01         A  9341    	LD	A,(_prof+3)
0155B1 5F                  A  9342    	LD	E,A
0155B2 AF                  A  9343    	XOR	A,A
0155B3 01000000            A  9344    	LD	BC,0
0155B7 CD B2 71 01         A  9345    	CALL	__lcmps
0155BB 20 0F               A  9346    	JR	NZ,L_521
0155BD DD07FC              A  9347    	LD	BC,(IX+-4)
0155C0 ED43 DC 7F 01       A  9348    	LD	(_mossa_in_analisi),BC
0155C5 DD7EFF              A  9349    	LD	A,(IX+-1)
0155C8 32 DF 7F 01         A  9350    	LD	(_mossa_in_analisi+3),A
0155CC                     A  9351    L_521:
0155CC DD7E06              A  9352    	LD	A,(IX+6)
0155CF B7                  A  9353    	OR	A,A
0155D0 20 12               A  9354    	JR	NZ,L_520
0155D2 DD4EFF              A  9355    	LD	C,(IX+-1)
0155D5 0600                A  9356    	LD	B,0
0155D7 C5                  A  9357    	PUSH	BC
0155D8 DD07FC              A  9358    	LD	BC,(IX+-4)
0155DB C5                  A  9359    	PUSH	BC
0155DC CD 03 08 01         A  9360    	CALL	_sceglimossa
Zilog eZ80 Macro Assembler Version 4.1 (10060805) RELISTED26-Aug-11     11:07:39     page: 181


PC     Object              I  Line    Source C:\Users\fog76\Desktop\CHFIGH~2\Debug\main.src
0155E0 C1                  A  9361    	POP	BC
0155E1 C1                  A  9362    	POP	BC
0155E2 18 10               A  9363    	JR	L_528
0155E4                     A  9364    L_520:
0155E4 DD4EFF              A  9365    	LD	C,(IX+-1)
0155E7 0600                A  9366    	LD	B,0
0155E9 C5                  A  9367    	PUSH	BC
0155EA DD07FC              A  9368    	LD	BC,(IX+-4)
0155ED C5                  A  9369    	PUSH	BC
0155EE CD 3D 06 01         A  9370    	CALL	_raccogli
0155F2 C1                  A  9371    	POP	BC
0155F3 C1                  A  9372    	POP	BC
0155F4                     A  9373    L_528:
0155F4 DD07F0              A  9374    	LD	BC,(IX+-16)
0155F7 03                  A  9375    	INC	BC
0155F8 DD0FF0              A  9376    	LD	(IX+-16),BC
0155FB                     A  9377    L_529:
0155FB DD07F0              A  9378    	LD	BC,(IX+-16)
0155FE 21080000            A  9379    	LD	HL,8
015602 B7                  A  9380    	OR	A,A
015603 ED42                A  9381    	SBC	HL,BC
015605 F2 24 21 01         A  9382    	JP	P,L_527
015609 DD07F3              A  9383    	LD	BC,(IX+-13)
01560C 03                  A  9384    	INC	BC
01560D DD0FF3              A  9385    	LD	(IX+-13),BC
015610                     A  9386    L_532:
015610 DD07F3              A  9387    	LD	BC,(IX+-13)
015613 21080000            A  9388    	LD	HL,8
015617 B7                  A  9389    	OR	A,A
015618 ED42                A  9390    	SBC	HL,BC
01561A F2 24 56 01         A  9391    	JP	P,L__326
01561E EA 19 21 01         A  9392    	JP	PE,L_530
015622 18 04               A  9393    	JR	L__327
015624                     A  9394    L__326:
015624 E2 19 21 01         A  9395    	JP	PO,L_530
015628                     A  9396    L__327:
015628 DDF9                A  9397    	LD	SP,IX
01562A DDE1                A  9398    	POP	IX
01562C C9                  A  9399    	RET	
                           A  9400    
                           A  9401    
                           A  9402    ;**************************** _calcolamosse ***
                           A  9403    ;Name                         Addr/Register   S
                           A  9404    ;_raccogli                           IMPORT  --
                           A  9405    ;_sceglimossa                        STATIC  --
                           A  9406    ;_mossa_in_analisi                   STATIC    
                           A  9407    ;_prof                               STATIC    
                           A  9408    ;_mossaimposs                        IMPORT  --
                           A  9409    ;_scac                               STATIC    
                           A  9410    ;_col_prof                           STATIC    
                           A  9411    ;G_66                                 IX-69    
                           A  9412    ;G_56                                 IX-66    
Zilog eZ80 Macro Assembler Version 4.1 (10060805) RELISTED26-Aug-11     11:07:39     page: 182


PC     Object              I  Line    Source C:\Users\fog76\Desktop\CHFIGH~2\Debug\main.src
                           A  9413    ;G_63                                 IX-63    
                           A  9414    ;G_69                                 IX-60    
                           A  9415    ;G_38                                 IX-57    
                           A  9416    ;G_50                                 IX-54    
                           A  9417    ;G_42                                 IX-51    
                           A  9418    ;G_46                                 IX-48    
                           A  9419    ;G_65                                 IX-45    
                           A  9420    ;G_57                                 IX-42    
                           A  9421    ;G_60                                 IX-41    
                           A  9422    ;G_39                                 IX-38    
                           A  9423    ;G_51                                 IX-35    
                           A  9424    ;G_47                                 IX-32    
                           A  9425    ;G_43                                 IX-29    
                           A  9426    ;G_67                                 IX-26    
                           A  9427    ;G_70                                 IX-25    
                           A  9428    ;G_54                                 IX-22    
                           A  9429    ;rit                                  IX-19    
                           A  9430    ;lp                                   IX-16    
                           A  9431    ;np                                   IX-13    
                           A  9432    ;la                                   IX-10    
                           A  9433    ;na                                    IX-7    
                           A  9434    ;m                                     IX-4    
                           A  9435    ;modo                                  IX+6    
                           A  9436    
                           A  9437    
                           A  9438    ; Stack Frame Size: 228 (bytes)
                           A  9439    ;       Spill Code: 96 (instruction)
                           A  9440    
                           A  9441    
01562D                     A  9442    _modifica:
01562D 21DCFFFF            A  9443    	LD	HL,-36
015631 CD BF 70 01         A  9444    	CALL	__frameset
015635 DD2706              A  9445    	LD	HL,(IX+6)
015638 DD5E09              A  9446    	LD	E,(IX+9)
01563B 010A0000            A  9447    	LD	BC,10
01563F AF                  A  9448    	XOR	A,A
015640 CD 60 70 01         A  9449    	CALL	__ldivu
015644 010A0000            A  9450    	LD	BC,10
015648 AF                  A  9451    	XOR	A,A
015649 CD 1D 72 01         A  9452    	CALL	__lremu
01564D DD2FE2              A  9453    	LD	(IX+-30),HL
015650 DD2706              A  9454    	LD	HL,(IX+6)
015653 DD5E09              A  9455    	LD	E,(IX+9)
015656 010A0000            A  9456    	LD	BC,10
01565A AF                  A  9457    	XOR	A,A
01565B CD 1D 72 01         A  9458    	CALL	__lremu
01565F DD2FF1              A  9459    	LD	(IX+-15),HL
015662 DD27E2              A  9460    	LD	HL,(IX+-30)
015665 29                  A  9461    	ADD	HL,HL
015666 29                  A  9462    	ADD	HL,HL
015667 DD07E2              A  9463    	LD	BC,(IX+-30)
01566A 09                  A  9464    	ADD	HL,BC
Zilog eZ80 Macro Assembler Version 4.1 (10060805) RELISTED26-Aug-11     11:07:39     page: 183


PC     Object              I  Line    Source C:\Users\fog76\Desktop\CHFIGH~2\Debug\main.src
01566B 29                  A  9465    	ADD	HL,HL
01566C 29                  A  9466    	ADD	HL,HL
01566D 29                  A  9467    	ADD	HL,HL
01566E DD2FF7              A  9468    	LD	(IX+-9),HL
015671 DD2FE8              A  9469    	LD	(IX+-24),HL
015674 DD27F7              A  9470    	LD	HL,(IX+-9)
015677 01 D5 75 01         A  9471    	LD	BC,_scac
01567B 09                  A  9472    	ADD	HL,BC
01567C DD2FFA              A  9473    	LD	(IX+-6),HL
01567F DD27F1              A  9474    	LD	HL,(IX+-15)
015682 29                  A  9475    	ADD	HL,HL
015683 29                  A  9476    	ADD	HL,HL
015684 DD2FF4              A  9477    	LD	(IX+-12),HL
015687 DD2FEE              A  9478    	LD	(IX+-18),HL
01568A DD07FA              A  9479    	LD	BC,(IX+-6)
01568D 09                  A  9480    	ADD	HL,BC
01568E DD2FFD              A  9481    	LD	(IX+-3),HL
015691 DD2706              A  9482    	LD	HL,(IX+6)
015694 DD5E09              A  9483    	LD	E,(IX+9)
015697 0140420F            A  9484    	LD	BC,1000000
01569B AF                  A  9485    	XOR	A,A
01569C CD 60 70 01         A  9486    	CALL	__ldivu
0156A0 01640000            A  9487    	LD	BC,100
0156A4 AF                  A  9488    	XOR	A,A
0156A5 CD 1D 72 01         A  9489    	CALL	__lremu
0156A9 DD31FD              A  9490    	LD	IY,(IX+-3)
0156AC FD2F00              A  9491    	LD	(IY),HL
0156AF FD7303              A  9492    	LD	(IY+3),E
0156B2 DD2706              A  9493    	LD	HL,(IX+6)
0156B5 DD5E09              A  9494    	LD	E,(IX+9)
0156B8 01E80300            A  9495    	LD	BC,1000
0156BC AF                  A  9496    	XOR	A,A
0156BD CD 60 70 01         A  9497    	CALL	__ldivu
0156C1 010A0000            A  9498    	LD	BC,10
0156C5 AF                  A  9499    	XOR	A,A
0156C6 CD 1D 72 01         A  9500    	CALL	__lremu
0156CA 01280000            A  9501    	LD	BC,40
0156CE AF                  A  9502    	XOR	A,A
0156CF CD 60 72 01         A  9503    	CALL	__lmulu
0156D3 01 D5 75 01         A  9504    	LD	BC,_scac
0156D7 09                  A  9505    	ADD	HL,BC
0156D8 DD2FDC              A  9506    	LD	(IX+-36),HL	; spill
0156DB DD2706              A  9507    	LD	HL,(IX+6)
0156DE DD5E09              A  9508    	LD	E,(IX+9)
0156E1 01640000            A  9509    	LD	BC,100
0156E5 AF                  A  9510    	XOR	A,A
0156E6 CD 60 70 01         A  9511    	CALL	__ldivu
0156EA 010A0000            A  9512    	LD	BC,10
0156EE AF                  A  9513    	XOR	A,A
0156EF CD 1D 72 01         A  9514    	CALL	__lremu
0156F3 01040000            A  9515    	LD	BC,4
0156F7 AF                  A  9516    	XOR	A,A
Zilog eZ80 Macro Assembler Version 4.1 (10060805) RELISTED26-Aug-11     11:07:39     page: 184


PC     Object              I  Line    Source C:\Users\fog76\Desktop\CHFIGH~2\Debug\main.src
0156F8 CD 60 72 01         A  9517    	CALL	__lmulu
0156FC DD07DC              A  9518    	LD	BC,(IX+-36)	; unspill
0156FF 09                  A  9519    	ADD	HL,BC
015700 01000000            A  9520    	LD	BC,0
015704 ED0F                A  9521    	LD	(HL),BC
015706 23                  A  9522    	INC	HL
015707 23                  A  9523    	INC	HL
015708 23                  A  9524    	INC	HL
015709 3600                A  9525    	LD	(HL),0
01570B FD2700              A  9526    	LD	HL,(IY)
01570E FD5E03              A  9527    	LD	E,(IY+3)
015711 01060000            A  9528    	LD	BC,6
015715 AF                  A  9529    	XOR	A,A
015716 CD B2 71 01         A  9530    	CALL	__lcmps
01571A 20 2F               A  9531    	JR	NZ,L_538
01571C 01080000            A  9532    	LD	BC,8
015720 DD27F1              A  9533    	LD	HL,(IX+-15)
015723 B7                  A  9534    	OR	A,A
015724 ED42                A  9535    	SBC	HL,BC
015726 20 23               A  9536    	JR	NZ,L_538
015728 DD07F7              A  9537    	LD	BC,(IX+-9)
01572B DD0FE8              A  9538    	LD	(IX+-24),BC
01572E DD07F4              A  9539    	LD	BC,(IX+-12)
015731 DD0FEE              A  9540    	LD	(IX+-18),BC
015734 DD27F7              A  9541    	LD	HL,(IX+-9)
015737 01 D5 75 01         A  9542    	LD	BC,_scac
01573B 09                  A  9543    	ADD	HL,BC
01573C DD07F4              A  9544    	LD	BC,(IX+-12)
01573F 09                  A  9545    	ADD	HL,BC
015740 01020000            A  9546    	LD	BC,2
015744 ED0F                A  9547    	LD	(HL),BC
015746 23                  A  9548    	INC	HL
015747 23                  A  9549    	INC	HL
015748 23                  A  9550    	INC	HL
015749 3600                A  9551    	LD	(HL),0
01574B                     A  9552    L_538:
01574B DD07E8              A  9553    	LD	BC,(IX+-24)
01574E 21 D5 75 01         A  9554    	LD	HL,_scac
015752 09                  A  9555    	ADD	HL,BC
015753 DD2FE5              A  9556    	LD	(IX+-27),HL
015756 DD07EE              A  9557    	LD	BC,(IX+-18)
015759 09                  A  9558    	ADD	HL,BC
01575A DD2FEB              A  9559    	LD	(IX+-21),HL
01575D DD31EB              A  9560    	LD	IY,(IX+-21)
015760 FD2700              A  9561    	LD	HL,(IY)
015763 FD5E03              A  9562    	LD	E,(IY+3)
015766 010C0000            A  9563    	LD	BC,12
01576A AF                  A  9564    	XOR	A,A
01576B CD B2 71 01         A  9565    	CALL	__lcmps
01576F 20 1A               A  9566    	JR	NZ,L_539
015771 01010000            A  9567    	LD	BC,1
015775 DD27F1              A  9568    	LD	HL,(IX+-15)
Zilog eZ80 Macro Assembler Version 4.1 (10060805) RELISTED26-Aug-11     11:07:39     page: 185


PC     Object              I  Line    Source C:\Users\fog76\Desktop\CHFIGH~2\Debug\main.src
015778 B7                  A  9569    	OR	A,A
015779 ED42                A  9570    	SBC	HL,BC
01577B 20 0E               A  9571    	JR	NZ,L_539
01577D DD27EB              A  9572    	LD	HL,(IX+-21)
015780 01080000            A  9573    	LD	BC,8
015784 ED0F                A  9574    	LD	(HL),BC
015786 23                  A  9575    	INC	HL
015787 23                  A  9576    	INC	HL
015788 23                  A  9577    	INC	HL
015789 3600                A  9578    	LD	(HL),0
01578B                     A  9579    L_539:
01578B DDF9                A  9580    	LD	SP,IX
01578D DDE1                A  9581    	POP	IX
01578F C9                  A  9582    	RET	
                           A  9583    
                           A  9584    
                           A  9585    ;**************************** _modifica *******
                           A  9586    ;Name                         Addr/Register   S
                           A  9587    ;_scac                               STATIC    
                           A  9588    ;m_d10_m10                            IX-30    
                           A  9589    ;G_76                                 IX-27    
                           A  9590    ;G_74                                 IX-24    
                           A  9591    ;G_77                                 IX-21    
                           A  9592    ;G_75                                 IX-18    
                           A  9593    ;m_m10                                IX-15    
                           A  9594    ;G_73                                 IX-12    
                           A  9595    ;G_72                                  IX-9    
                           A  9596    ;m                                     IX+6    
                           A  9597    
                           A  9598    
                           A  9599    ; Stack Frame Size: 48 (bytes)
                           A  9600    ;       Spill Code: 2 (instruction)
                           A  9601    
                           A  9602    
015790                     A  9603    _acquisisci:
015790 21DFFFFF            A  9604    	LD	HL,-33
015794 CD BF 70 01         A  9605    	CALL	__frameset
015798 01000000            A  9606    	LD	BC,0
01579C C5                  A  9607    	PUSH	BC
01579D 010A0000            A  9608    	LD	BC,10
0157A1 C5                  A  9609    	PUSH	BC
0157A2 01600000            A  9610    	LD	BC,96
0157A6 C5                  A  9611    	PUSH	BC
0157A7 014B0000            A  9612    	LD	BC,75
0157AB C5                  A  9613    	PUSH	BC
0157AC 01DA0000            A  9614    	LD	BC,218
0157B0 C5                  A  9615    	PUSH	BC
0157B1 CD E9 65 01         A  9616    	CALL	_Fill_Rectangle
0157B5 C1                  A  9617    	POP	BC
0157B6 C1                  A  9618    	POP	BC
0157B7 C1                  A  9619    	POP	BC
0157B8 C1                  A  9620    	POP	BC
Zilog eZ80 Macro Assembler Version 4.1 (10060805) RELISTED26-Aug-11     11:07:39     page: 186


PC     Object              I  Line    Source C:\Users\fog76\Desktop\CHFIGH~2\Debug\main.src
0157B9 C1                  A  9621    	POP	BC
0157BA 3A C2 7D 01         A  9622    	LD	A,(_PlayerColor)
0157BE B7                  A  9623    	OR	A,A
0157BF 20 25               A  9624    	JR	NZ,L_541
0157C1 ED4B 7E 7D 01       A  9625    	LD	BC,(_wPlay)
0157C6 C5                  A  9626    	PUSH	BC
0157C7 010A0000            A  9627    	LD	BC,10
0157CB C5                  A  9628    	PUSH	BC
0157CC 012A0000            A  9629    	LD	BC,42
0157D0 C5                  A  9630    	PUSH	BC
0157D1 014B0000            A  9631    	LD	BC,75
0157D5 C5                  A  9632    	PUSH	BC
0157D6 01F50000            A  9633    	LD	BC,245
0157DA C5                  A  9634    	PUSH	BC
0157DB CD C4 64 01         A  9635    	CALL	_Draw_Image
0157DF C1                  A  9636    	POP	BC
0157E0 C1                  A  9637    	POP	BC
0157E1 C1                  A  9638    	POP	BC
0157E2 C1                  A  9639    	POP	BC
0157E3 C1                  A  9640    	POP	BC
0157E4 18 23               A  9641    	JR	L_544
0157E6                     A  9642    L_541:
0157E6 ED4B 81 7D 01       A  9643    	LD	BC,(_bPlay)
0157EB C5                  A  9644    	PUSH	BC
0157EC 010A0000            A  9645    	LD	BC,10
0157F0 C5                  A  9646    	PUSH	BC
0157F1 01300000            A  9647    	LD	BC,48
0157F5 C5                  A  9648    	PUSH	BC
0157F6 014B0000            A  9649    	LD	BC,75
0157FA C5                  A  9650    	PUSH	BC
0157FB 01F30000            A  9651    	LD	BC,243
0157FF C5                  A  9652    	PUSH	BC
015800 CD C4 64 01         A  9653    	CALL	_Draw_Image
015804 C1                  A  9654    	POP	BC
015805 C1                  A  9655    	POP	BC
015806 C1                  A  9656    	POP	BC
015807 C1                  A  9657    	POP	BC
015808 C1                  A  9658    	POP	BC
015809                     A  9659    L_544:
015809 CD 65 6C 01         A  9660    	CALL	_Crea_Mossa
01580D 3A B7 7D 01         A  9661    	LD	A,(_chAbort)
015811 B7                  A  9662    	OR	A,A
015812 C2 C9 59 01         A  9663    	JR	NZ,L_543
015816 3A B9 7D 01         A  9664    	LD	A,(_Mossa1)
01581A FD21 B9 7D 01       A  9665    	LD	IY,_Mossa1
01581F DD77F8              A  9666    	LD	(IX+-8),A
015822 ED22F8              A  9667    	LEA	HL,IX+-8
015825 23                  A  9668    	INC	HL
015826 FD7E01              A  9669    	LD	A,(IY+1)
015829 77                  A  9670    	LD	(HL),A
01582A ED55F8              A  9671    	LEA	IY,IX+-8
01582D 3A BB 7D 01         A  9672    	LD	A,(_Mossa2)
Zilog eZ80 Macro Assembler Version 4.1 (10060805) RELISTED26-Aug-11     11:07:39     page: 187


PC     Object              I  Line    Source C:\Users\fog76\Desktop\CHFIGH~2\Debug\main.src
015831 21 BB 7D 01         A  9673    	LD	HL,_Mossa2
015835 23                  A  9674    	INC	HL
015836 FD7702              A  9675    	LD	(IY+2),A
015839 7E                  A  9676    	LD	A,(HL)
01583A FD7703              A  9677    	LD	(IY+3),A
01583D DD7EF8              A  9678    	LD	A,(IX+-8)
015840 17ED62              A  9679    	SEXT	HL
015843 DD6EF8              A  9680    	LD	L,(IX+-8)
015846 E5C1                A  9681    	LD	BC,HL
015848 CD AB 71 01         A  9682    	CALL	__itol
01584C 5F                  A  9683    	LD	E,A
01584D C5E1                A  9684    	LD	HL,BC
01584F 01A0FFFF            A  9685    	LD	BC,16777120
015853 3EFF                A  9686    	LD	A,255
015855 CD 0B 6E 01         A  9687    	CALL	__ladd
015859 DD2FE8              A  9688    	LD	(IX+-24),HL
01585C ED22F8              A  9689    	LEA	HL,IX+-8
01585F 23                  A  9690    	INC	HL
015860 DD73EB              A  9691    	LD	(IX+-21),E
015863 7E                  A  9692    	LD	A,(HL)
015864 47                  A  9693    	LD	B,A
015865 17ED62              A  9694    	SEXT	HL
015868 68                  A  9695    	LD	L,B
015869 E5C1                A  9696    	LD	BC,HL
01586B CD AB 71 01         A  9697    	CALL	__itol
01586F 5F                  A  9698    	LD	E,A
015870 C5E1                A  9699    	LD	HL,BC
015872 01D0FFFF            A  9700    	LD	BC,16777168
015876 3EFF                A  9701    	LD	A,255
015878 CD 0B 6E 01         A  9702    	CALL	__ladd
01587C DD2FF4              A  9703    	LD	(IX+-12),HL
01587F ED2302              A  9704    	LEA	HL,IY+2
015882 DD73F7              A  9705    	LD	(IX+-9),E
015885 7E                  A  9706    	LD	A,(HL)
015886 47                  A  9707    	LD	B,A
015887 17ED62              A  9708    	SEXT	HL
01588A 68                  A  9709    	LD	L,B
01588B E5C1                A  9710    	LD	BC,HL
01588D CD AB 71 01         A  9711    	CALL	__itol
015891 5F                  A  9712    	LD	E,A
015892 C5E1                A  9713    	LD	HL,BC
015894 01A0FFFF            A  9714    	LD	BC,16777120
015898 3EFF                A  9715    	LD	A,255
01589A CD 0B 6E 01         A  9716    	CALL	__ladd
01589E DD2FF0              A  9717    	LD	(IX+-16),HL
0158A1 ED22FB              A  9718    	LEA	HL,IX+-5
0158A4 DD73F3              A  9719    	LD	(IX+-13),E
0158A7 7E                  A  9720    	LD	A,(HL)
0158A8 47                  A  9721    	LD	B,A
0158A9 17ED62              A  9722    	SEXT	HL
0158AC 68                  A  9723    	LD	L,B
0158AD E5C1                A  9724    	LD	BC,HL
Zilog eZ80 Macro Assembler Version 4.1 (10060805) RELISTED26-Aug-11     11:07:39     page: 188


PC     Object              I  Line    Source C:\Users\fog76\Desktop\CHFIGH~2\Debug\main.src
0158AF CD AB 71 01         A  9725    	CALL	__itol
0158B3 5F                  A  9726    	LD	E,A
0158B4 C5E1                A  9727    	LD	HL,BC
0158B6 01D0FFFF            A  9728    	LD	BC,16777168
0158BA 3EFF                A  9729    	LD	A,255
0158BC CD 0B 6E 01         A  9730    	CALL	__ladd
0158C0 DD2FEC              A  9731    	LD	(IX+-20),HL
0158C3 DD73EF              A  9732    	LD	(IX+-17),E
0158C6 DD27E8              A  9733    	LD	HL,(IX+-24)
0158C9 DD5EEB              A  9734    	LD	E,(IX+-21)
0158CC 01E80300            A  9735    	LD	BC,1000
0158D0 AF                  A  9736    	XOR	A,A
0158D1 CD 60 72 01         A  9737    	CALL	__lmuls
0158D5 DD2FFC              A  9738    	LD	(IX+-4),HL
0158D8 DD73FF              A  9739    	LD	(IX+-1),E
0158DB DD27F4              A  9740    	LD	HL,(IX+-12)
0158DE DD5EF7              A  9741    	LD	E,(IX+-9)
0158E1 01640000            A  9742    	LD	BC,100
0158E5 AF                  A  9743    	XOR	A,A
0158E6 CD 60 72 01         A  9744    	CALL	__lmuls
0158EA DD07FC              A  9745    	LD	BC,(IX+-4)
0158ED DD7EFF              A  9746    	LD	A,(IX+-1)
0158F0 CD 0B 6E 01         A  9747    	CALL	__ladd
0158F4 DD2FFC              A  9748    	LD	(IX+-4),HL
0158F7 DD73FF              A  9749    	LD	(IX+-1),E
0158FA DD27F0              A  9750    	LD	HL,(IX+-16)
0158FD DD5EF3              A  9751    	LD	E,(IX+-13)
015900 010A0000            A  9752    	LD	BC,10
015904 AF                  A  9753    	XOR	A,A
015905 CD 60 72 01         A  9754    	CALL	__lmuls
015909 DD07FC              A  9755    	LD	BC,(IX+-4)
01590C DD7EFF              A  9756    	LD	A,(IX+-1)
01590F CD 0B 6E 01         A  9757    	CALL	__ladd
015913 DD2FFC              A  9758    	LD	(IX+-4),HL
015916 DD73FF              A  9759    	LD	(IX+-1),E
015919 DD27FC              A  9760    	LD	HL,(IX+-4)
01591C DD5EFF              A  9761    	LD	E,(IX+-1)
01591F DD07EC              A  9762    	LD	BC,(IX+-20)
015922 DD7EEF              A  9763    	LD	A,(IX+-17)
015925 CD 0B 6E 01         A  9764    	CALL	__ladd
015929 DD2FFC              A  9765    	LD	(IX+-4),HL
01592C DD73FF              A  9766    	LD	(IX+-1),E
01592F DD27E8              A  9767    	LD	HL,(IX+-24)
015932 DD5EEB              A  9768    	LD	E,(IX+-21)
015935 01280000            A  9769    	LD	BC,40
015939 AF                  A  9770    	XOR	A,A
01593A CD 60 72 01         A  9771    	CALL	__lmuls
01593E 01 D5 75 01         A  9772    	LD	BC,_scac
015942 09                  A  9773    	ADD	HL,BC
015943 DD2FE2              A  9774    	LD	(IX+-30),HL	; spill
015946 DD27F4              A  9775    	LD	HL,(IX+-12)
015949 DD5EF7              A  9776    	LD	E,(IX+-9)
Zilog eZ80 Macro Assembler Version 4.1 (10060805) RELISTED26-Aug-11     11:07:39     page: 189


PC     Object              I  Line    Source C:\Users\fog76\Desktop\CHFIGH~2\Debug\main.src
01594C 01040000            A  9777    	LD	BC,4
015950 AF                  A  9778    	XOR	A,A
015951 CD 60 72 01         A  9779    	CALL	__lmuls
015955 DD07E2              A  9780    	LD	BC,(IX+-30)	; unspill
015958 09                  A  9781    	ADD	HL,BC
015959 E5FDE1              A  9782    	LD	IY,HL
01595C FD2700              A  9783    	LD	HL,(IY)
01595F FD5E03              A  9784    	LD	E,(IY+3)
015962 0140420F            A  9785    	LD	BC,1000000
015966 AF                  A  9786    	XOR	A,A
015967 CD 60 72 01         A  9787    	CALL	__lmuls
01596B DD07FC              A  9788    	LD	BC,(IX+-4)
01596E DD7EFF              A  9789    	LD	A,(IX+-1)
015971 CD 0B 6E 01         A  9790    	CALL	__ladd
015975 DD2FFC              A  9791    	LD	(IX+-4),HL
015978 DD73FF              A  9792    	LD	(IX+-1),E
01597B DD27F0              A  9793    	LD	HL,(IX+-16)
01597E DD5EF3              A  9794    	LD	E,(IX+-13)
015981 01280000            A  9795    	LD	BC,40
015985 AF                  A  9796    	XOR	A,A
015986 CD 60 72 01         A  9797    	CALL	__lmuls
01598A 01 D5 75 01         A  9798    	LD	BC,_scac
01598E 09                  A  9799    	ADD	HL,BC
01598F DD2FDF              A  9800    	LD	(IX+-33),HL	; spill
015992 DD27EC              A  9801    	LD	HL,(IX+-20)
015995 DD5EEF              A  9802    	LD	E,(IX+-17)
015998 01040000            A  9803    	LD	BC,4
01599C AF                  A  9804    	XOR	A,A
01599D CD 60 72 01         A  9805    	CALL	__lmuls
0159A1 DD07DF              A  9806    	LD	BC,(IX+-33)	; unspill
0159A4 09                  A  9807    	ADD	HL,BC
0159A5 E5FDE1              A  9808    	LD	IY,HL
0159A8 FD2700              A  9809    	LD	HL,(IY)
0159AB FD5E03              A  9810    	LD	E,(IY+3)
0159AE 01102700            A  9811    	LD	BC,10000
0159B2 AF                  A  9812    	XOR	A,A
0159B3 CD 60 72 01         A  9813    	CALL	__lmuls
0159B7 DD07FC              A  9814    	LD	BC,(IX+-4)
0159BA DD7EFF              A  9815    	LD	A,(IX+-1)
0159BD CD 0B 6E 01         A  9816    	CALL	__ladd
0159C1 DD2FFC              A  9817    	LD	(IX+-4),HL
0159C4 DD73FF              A  9818    	LD	(IX+-1),E
0159C7 18 07               A  9819    	JR	L_545
0159C9                     A  9820    L_543:
0159C9 B7                  A  9821    	OR	A,A
0159CA ED62                A  9822    	SBC	HL,HL
0159CC 1E00                A  9823    	LD	E,0
0159CE 18 1B               A  9824    	JR	L_548
0159D0                     A  9825    L_545:
0159D0 DD4EFF              A  9826    	LD	C,(IX+-1)
0159D3 0600                A  9827    	LD	B,0
0159D5 C5                  A  9828    	PUSH	BC
Zilog eZ80 Macro Assembler Version 4.1 (10060805) RELISTED26-Aug-11     11:07:39     page: 190


PC     Object              I  Line    Source C:\Users\fog76\Desktop\CHFIGH~2\Debug\main.src
0159D6 DD07FC              A  9829    	LD	BC,(IX+-4)
0159D9 C5                  A  9830    	PUSH	BC
0159DA CD 72 5B 01         A  9831    	CALL	_controllo
0159DE C1                  A  9832    	POP	BC
0159DF C1                  A  9833    	POP	BC
0159E0 B7                  A  9834    	OR	A,A
0159E1 CA 09 58 01         A  9835    	JR	Z,L_544
0159E5 DD27FC              A  9836    	LD	HL,(IX+-4)
0159E8 DD5EFF              A  9837    	LD	E,(IX+-1)
0159EB                     A  9838    L_548:
0159EB DDF9                A  9839    	LD	SP,IX
0159ED DDE1                A  9840    	POP	IX
0159EF C9                  A  9841    	RET	
                           A  9842    
                           A  9843    
                           A  9844    ;**************************** _acquisisci *****
                           A  9845    ;Name                         Addr/Register   S
                           A  9846    ;_controllo                          IMPORT  --
                           A  9847    ;_scac                               STATIC    
                           A  9848    ;_Mossa2                             STATIC    
                           A  9849    ;_Mossa1                             STATIC    
                           A  9850    ;_chAbort                            STATIC    
                           A  9851    ;_Crea_Mossa                         IMPORT  --
                           A  9852    ;_bPlay                              STATIC    
                           A  9853    ;_wPlay                              STATIC    
                           A  9854    ;_Draw_Image                         IMPORT  --
                           A  9855    ;_PlayerColor                        STATIC    
                           A  9856    ;_Fill_Rectangle                     IMPORT  --
                           A  9857    ;lp                                   IX-24    
                           A  9858    ;na                                   IX-20    
                           A  9859    ;la                                   IX-16    
                           A  9860    ;np                                   IX-12    
                           A  9861    ;s                                     IX-8    
                           A  9862    ;m                                     IX-4    
                           A  9863    
                           A  9864    
                           A  9865    ; Stack Frame Size: 39 (bytes)
                           A  9866    ;       Spill Code: 4 (instruction)
                           A  9867    
                           A  9868    
0159F0                     A  9869    _apri:
0159F0 21F5FFFF            A  9870    	LD	HL,-11
0159F4 CD BF 70 01         A  9871    	CALL	__frameset
0159F8 CD CF 70 01         A  9872    	CALL	_rand
0159FC E5C1                A  9873    	LD	BC,HL
0159FE C5E1                A  9874    	LD	HL,BC
015A00 29                  A  9875    	ADD	HL,HL
015A01 29                  A  9876    	ADD	HL,HL
015A02 29                  A  9877    	ADD	HL,HL
015A03 29                  A  9878    	ADD	HL,HL
015A04 29                  A  9879    	ADD	HL,HL
015A05 B7                  A  9880    	OR	A,A
Zilog eZ80 Macro Assembler Version 4.1 (10060805) RELISTED26-Aug-11     11:07:39     page: 191


PC     Object              I  Line    Source C:\Users\fog76\Desktop\CHFIGH~2\Debug\main.src
015A06 ED42                A  9881    	SBC	HL,BC
015A08 29                  A  9882    	ADD	HL,HL
015A09 29                  A  9883    	ADD	HL,HL
015A0A 09                  A  9884    	ADD	HL,BC
015A0B 29                  A  9885    	ADD	HL,HL
015A0C 29                  A  9886    	ADD	HL,HL
015A0D 29                  A  9887    	ADD	HL,HL
015A0E 018D1300            A  9888    	LD	BC,5005
015A12 09                  A  9889    	ADD	HL,BC
015A13 E5                  A  9890    	PUSH	HL
015A14 CD 14 70 01         A  9891    	CALL	_srand
015A18 C1                  A  9892    	POP	BC
015A19 CD CF 70 01         A  9893    	CALL	_rand
015A1D E5D1                A  9894    	LD	DE,HL
015A1F DD1FF6              A  9895    	LD	(IX+-10),DE
015A22 DD72F5              A  9896    	LD	(IX+-11),D
015A25 CD CF 70 01         A  9897    	CALL	_rand
015A29 DD17F6              A  9898    	LD	DE,(IX+-10)
015A2C DD56F5              A  9899    	LD	D,(IX+-11)
015A2F E5C1                A  9900    	LD	BC,HL
015A31 D5E1                A  9901    	LD	HL,DE
015A33 CD 6F 71 01         A  9902    	CALL	__imuls
015A37 E5                  A  9903    	PUSH	HL
015A38 CD 14 70 01         A  9904    	CALL	_srand
015A3C C1                  A  9905    	POP	BC
015A3D CD CF 70 01         A  9906    	CALL	_rand
015A41 01040000            A  9907    	LD	BC,4
015A45 CD CB 6F 01         A  9908    	CALL	__irems
015A49 DD2FF9              A  9909    	LD	(IX+-7),HL
015A4C 01000000            A  9910    	LD	BC,0
015A50 DD0FFD              A  9911    	LD	(IX+-3),BC
015A53 C3 5F 5B 01         A  9912    	JR	L_559
015A57                     A  9913    L_557:
015A57 01000000            A  9914    	LD	BC,0
015A5B DD2706              A  9915    	LD	HL,(IX+6)
015A5E B7                  A  9916    	OR	A,A
015A5F ED42                A  9917    	SBC	HL,BC
015A61 C2 08 5B 01         A  9918    	JR	NZ,L_556
015A65 3A F9 7F 01         A  9919    	LD	A,(_DeleteBack)
015A69 4F                  A  9920    	LD	C,A
015A6A 0600                A  9921    	LD	B,0
015A6C C5                  A  9922    	PUSH	BC
015A6D CD C6 1A 01         A  9923    	CALL	_stampap
015A71 C1                  A  9924    	POP	BC
015A72 DD27FD              A  9925    	LD	HL,(IX+-3)
015A75 01010000            A  9926    	LD	BC,1
015A79 B7                  A  9927    	OR	A,A
015A7A ED42                A  9928    	SBC	HL,BC
015A7C 28 04               A  9929    	JR	Z,L__340
015A7E 3E01                A  9930    	LD	A,1
015A80 18 01               A  9931    	JR	L__341
015A82                     A  9932    L__340:
Zilog eZ80 Macro Assembler Version 4.1 (10060805) RELISTED26-Aug-11     11:07:39     page: 192


PC     Object              I  Line    Source C:\Users\fog76\Desktop\CHFIGH~2\Debug\main.src
015A82 AF                  A  9933    	XOR	A,A
015A83                     A  9934    L__341:
015A83 DD77FC              A  9935    	LD	(IX+-4),A
015A86 B7                  A  9936    	OR	A,A
015A87 20 0A               A  9937    	JR	NZ,L_551
015A89 01 5D 7D 01         A  9938    	LD	BC,_Chs2
015A8D C5                  A  9939    	PUSH	BC
015A8E CD 6C 5F 01         A  9940    	CALL	_Play_Raw_Audio
015A92 C1                  A  9941    	POP	BC
015A93                     A  9942    L_551:
015A93 CD 90 57 01         A  9943    	CALL	_acquisisci
015A97 4B                  A  9944    	LD	C,E
015A98 0600                A  9945    	LD	B,0
015A9A C5                  A  9946    	PUSH	BC
015A9B E5                  A  9947    	PUSH	HL
015A9C CD 2D 56 01         A  9948    	CALL	_modifica
015AA0 C1                  A  9949    	POP	BC
015AA1 C1                  A  9950    	POP	BC
015AA2 3A B7 7D 01         A  9951    	LD	A,(_chAbort)
015AA6 B7                  A  9952    	OR	A,A
015AA7 C2 6D 5B 01         A  9953    	JR	NZ,L_560
015AAB 3A F9 7F 01         A  9954    	LD	A,(_DeleteBack)
015AAF 4F                  A  9955    	LD	C,A
015AB0 0600                A  9956    	LD	B,0
015AB2 C5                  A  9957    	PUSH	BC
015AB3 CD C6 1A 01         A  9958    	CALL	_stampap
015AB7 C1                  A  9959    	POP	BC
015AB8 01 4E 7D 01         A  9960    	LD	BC,_Chs1
015ABC C5                  A  9961    	PUSH	BC
015ABD CD 6C 5F 01         A  9962    	CALL	_Play_Raw_Audio
015AC1 C1                  A  9963    	POP	BC
015AC2 DD27F9              A  9964    	LD	HL,(IX+-7)
015AC5 29                  A  9965    	ADD	HL,HL
015AC6 29                  A  9966    	ADD	HL,HL
015AC7 01 19 7D 01         A  9967    	LD	BC,_ap+32
015ACB 29                  A  9968    	ADD	HL,HL
015ACC 09                  A  9969    	ADD	HL,BC
015ACD E5C1                A  9970    	LD	BC,HL
015ACF DD27FD              A  9971    	LD	HL,(IX+-3)
015AD2 29                  A  9972    	ADD	HL,HL
015AD3 29                  A  9973    	ADD	HL,HL
015AD4 09                  A  9974    	ADD	HL,BC
015AD5 E5FDE1              A  9975    	LD	IY,HL
015AD8 FD7E03              A  9976    	LD	A,(IY+3)
015ADB 2600                A  9977    	LD	H,0
015ADD 6F                  A  9978    	LD	L,A
015ADE E5                  A  9979    	PUSH	HL
015ADF FD0700              A  9980    	LD	BC,(IY)
015AE2 C5                  A  9981    	PUSH	BC
015AE3 CD 2D 56 01         A  9982    	CALL	_modifica
015AE7 C1                  A  9983    	POP	BC
015AE8 C1                  A  9984    	POP	BC
Zilog eZ80 Macro Assembler Version 4.1 (10060805) RELISTED26-Aug-11     11:07:39     page: 193


PC     Object              I  Line    Source C:\Users\fog76\Desktop\CHFIGH~2\Debug\main.src
015AE9 DD7EFC              A  9985    	LD	A,(IX+-4)
015AEC B7                  A  9986    	OR	A,A
015AED 20 69               A  9987    	JR	NZ,L_558
015AEF 3A F9 7F 01         A  9988    	LD	A,(_DeleteBack)
015AF3 4F                  A  9989    	LD	C,A
015AF4 0600                A  9990    	LD	B,0
015AF6 C5                  A  9991    	PUSH	BC
015AF7 CD C6 1A 01         A  9992    	CALL	_stampap
015AFB C1                  A  9993    	POP	BC
015AFC 01 5D 7D 01         A  9994    	LD	BC,_Chs2
015B00 C5                  A  9995    	PUSH	BC
015B01 CD 6C 5F 01         A  9996    	CALL	_Play_Raw_Audio
015B05 C1                  A  9997    	POP	BC
015B06 18 50               A  9998    	JR	L_558
015B08                     A  9999    L_556:
015B08 DD27F9              A 10000    	LD	HL,(IX+-7)
015B0B 29                  A 10001    	ADD	HL,HL
015B0C 29                  A 10002    	ADD	HL,HL
015B0D 29                  A 10003    	ADD	HL,HL
015B0E 01 F9 7C 01         A 10004    	LD	BC,_ap
015B12 09                  A 10005    	ADD	HL,BC
015B13 E5C1                A 10006    	LD	BC,HL
015B15 DD27FD              A 10007    	LD	HL,(IX+-3)
015B18 29                  A 10008    	ADD	HL,HL
015B19 29                  A 10009    	ADD	HL,HL
015B1A 09                  A 10010    	ADD	HL,BC
015B1B E5FDE1              A 10011    	LD	IY,HL
015B1E FD7E03              A 10012    	LD	A,(IY+3)
015B21 2600                A 10013    	LD	H,0
015B23 6F                  A 10014    	LD	L,A
015B24 E5                  A 10015    	PUSH	HL
015B25 FD0700              A 10016    	LD	BC,(IY)
015B28 C5                  A 10017    	PUSH	BC
015B29 CD 2D 56 01         A 10018    	CALL	_modifica
015B2D C1                  A 10019    	POP	BC
015B2E C1                  A 10020    	POP	BC
015B2F 3A F9 7F 01         A 10021    	LD	A,(_DeleteBack)
015B33 4F                  A 10022    	LD	C,A
015B34 0600                A 10023    	LD	B,0
015B36 C5                  A 10024    	PUSH	BC
015B37 CD C6 1A 01         A 10025    	CALL	_stampap
015B3B C1                  A 10026    	POP	BC
015B3C CD 90 57 01         A 10027    	CALL	_acquisisci
015B40 4B                  A 10028    	LD	C,E
015B41 0600                A 10029    	LD	B,0
015B43 C5                  A 10030    	PUSH	BC
015B44 E5                  A 10031    	PUSH	HL
015B45 CD 2D 56 01         A 10032    	CALL	_modifica
015B49 C1                  A 10033    	POP	BC
015B4A C1                  A 10034    	POP	BC
015B4B 3A F9 7F 01         A 10035    	LD	A,(_DeleteBack)
015B4F 4F                  A 10036    	LD	C,A
Zilog eZ80 Macro Assembler Version 4.1 (10060805) RELISTED26-Aug-11     11:07:39     page: 194


PC     Object              I  Line    Source C:\Users\fog76\Desktop\CHFIGH~2\Debug\main.src
015B50 0600                A 10037    	LD	B,0
015B52 C5                  A 10038    	PUSH	BC
015B53 CD C6 1A 01         A 10039    	CALL	_stampap
015B57 C1                  A 10040    	POP	BC
015B58                     A 10041    L_558:
015B58 DD07FD              A 10042    	LD	BC,(IX+-3)
015B5B 03                  A 10043    	INC	BC
015B5C DD0FFD              A 10044    	LD	(IX+-3),BC
015B5F                     A 10045    L_559:
015B5F 01020000            A 10046    	LD	BC,2
015B63 DD27FD              A 10047    	LD	HL,(IX+-3)
015B66 B7                  A 10048    	OR	A,A
015B67 ED42                A 10049    	SBC	HL,BC
015B69 FA 57 5A 01         A 10050    	JP	M,L_557
015B6D                     A 10051    L_560:
015B6D DDF9                A 10052    	LD	SP,IX
015B6F DDE1                A 10053    	POP	IX
015B71 C9                  A 10054    	RET	
                           A 10055    
                           A 10056    
                           A 10057    ;**************************** _apri ***********
                           A 10058    ;Name                         Addr/Register   S
                           A 10059    ;_ap                                 STATIC    
                           A 10060    ;_Chs1                               STATIC    
                           A 10061    ;_chAbort                            STATIC    
                           A 10062    ;_acquisisci                         IMPORT  --
                           A 10063    ;_modifica                           IMPORT  --
                           A 10064    ;_Chs2                               STATIC    
                           A 10065    ;_Play_Raw_Audio                     IMPORT  --
                           A 10066    ;_DeleteBack                         STATIC    
                           A 10067    ;_stampap                            IMPORT  --
                           A 10068    ;_rand                               IMPORT  --
                           A 10069    ;_srand                              IMPORT  --
                           A 10070    ;casuale                               IX-7    
                           A 10071    ;G_78                                  IX-4    
                           A 10072    ;i                                     IX-3    
                           A 10073    ;colore_utente                         IX+6    
                           A 10074    
                           A 10075    
                           A 10076    ; Stack Frame Size: 20 (bytes)
                           A 10077    ;       Spill Code: 0 (instruction)
                           A 10078    
                           A 10079    
015B72                     A 10080    _controllo:
015B72 21FCFFFF            A 10081    	LD	HL,-4
015B76 CD BF 70 01         A 10082    	CALL	__frameset
015B7A 01000000            A 10083    	LD	BC,0
015B7E DD0FFD              A 10084    	LD	(IX+-3),BC
015B81 DD36FC00            A 10085    	LD	(IX+-4),0
015B85 01010000            A 10086    	LD	BC,1
015B89 C5                  A 10087    	PUSH	BC
015B8A 01000000            A 10088    	LD	BC,0
Zilog eZ80 Macro Assembler Version 4.1 (10060805) RELISTED26-Aug-11     11:07:39     page: 195


PC     Object              I  Line    Source C:\Users\fog76\Desktop\CHFIGH~2\Debug\main.src
015B8E ED43 F3 7F 01       A 10089    	LD	(_cont),BC
015B93 AF                  A 10090    	XOR	A,A
015B94 32 F6 7F 01         A 10091    	LD	(_cont+3),A
015B98 CD 06 21 01         A 10092    	CALL	_calcolamosse
015B9C C1                  A 10093    	POP	BC
015B9D 18 2C               A 10094    	JR	L_563
015B9F                     A 10095    L_564:
015B9F DD07FD              A 10096    	LD	BC,(IX+-3)
015BA2 03                  A 10097    	INC	BC
015BA3 DD27FD              A 10098    	LD	HL,(IX+-3)
015BA6 29                  A 10099    	ADD	HL,HL
015BA7 29                  A 10100    	ADD	HL,HL
015BA8 11 69 7B 01         A 10101    	LD	DE,_possibili
015BAC 19                  A 10102    	ADD	HL,DE
015BAD E5FDE1              A 10103    	LD	IY,HL
015BB0 DD0FFD              A 10104    	LD	(IX+-3),BC
015BB3 FD2700              A 10105    	LD	HL,(IY)
015BB6 FD5E03              A 10106    	LD	E,(IY+3)
015BB9 DD0706              A 10107    	LD	BC,(IX+6)
015BBC DD7E09              A 10108    	LD	A,(IX+9)
015BBF CD B2 71 01         A 10109    	CALL	__lcmpu
015BC3 20 06               A 10110    	JR	NZ,L_563
015BC5 DD36FC01            A 10111    	LD	(IX+-4),1
015BC9 18 1E               A 10112    	JR	L_565
015BCB                     A 10113    L_563:
015BCB DD27FD              A 10114    	LD	HL,(IX+-3)
015BCE 29                  A 10115    	ADD	HL,HL
015BCF 29                  A 10116    	ADD	HL,HL
015BD0 01 69 7B 01         A 10117    	LD	BC,_possibili
015BD4 09                  A 10118    	ADD	HL,BC
015BD5 E5FDE1              A 10119    	LD	IY,HL
015BD8 FD2700              A 10120    	LD	HL,(IY)
015BDB FD5E03              A 10121    	LD	E,(IY+3)
015BDE 01000000            A 10122    	LD	BC,0
015BE2 AF                  A 10123    	XOR	A,A
015BE3 CD B2 71 01         A 10124    	CALL	__lcmpu
015BE7 20 B6               A 10125    	JR	NZ,L_564
015BE9                     A 10126    L_565:
015BE9 DD7EFC              A 10127    	LD	A,(IX+-4)
                           A 10128    ;   70	}
                           A 10129    ;   71	
                           A 10130    ;   72	#include "Screen.c"
                           A 10131    ;   73	#include "game.c"
                           A 10132    ;   74	
                           A 10133    ;   75	void MyMain(void)
                           A 10134    ;   76	{
                           A 10135    ;   77		char MyMenuValue;
                           A 10136    ;   78		char app[5], winner;	
                           A 10137    ;   79		
                           A 10138    ;   80		Load_Components();
                           A 10139    ;   81		
                           A 10140    ;   82		Set_320_240_Mode();
Zilog eZ80 Macro Assembler Version 4.1 (10060805) RELISTED26-Aug-11     11:07:39     page: 196


PC     Object              I  Line    Source C:\Users\fog76\Desktop\CHFIGH~2\Debug\main.src
                           A 10141    ;   83		
                           A 10142    ;   84		BlackOut();
                           A 10143    ;   85		
                           A 10144    ;   86		Load_Raw_Data("logo.raw", VideoMem,
                           A 10145    ;   87		
                           A 10146    ;   88		Load_Raw_Data("logo.pal", PaletteMe
                           A 10147    ;   89		
                           A 10148    ;   90		WaitKeyPress();
                           A 10149    ;   91		
                           A 10150    ;   92		Play_Raw_Audio(&Click);
                           A 10151    ;   93		
                           A 10152    ;   94	LabelMainMenu:
                           A 10153    ;   95		
                           A 10154    ;   96		MyMenuValue = MainMenu();
                           A 10155    ;   97		
                           A 10156    ;   98		if (MyMenuValue == 1)
                           A 10157    ;   99		{
                           A 10158    ;  100			DeleteBack = 0;
                           A 10159    ;  101			livello = mLivello + 1;
                           A 10160    ;  102			col_prof = bianco;
                           A 10161    ;  103			PlayerColor = mColore;
                           A 10162    ;  104			
                           A 10163    ;  105			User.ri = 6;
                           A 10164    ;  106			User.co = 0;
                           A 10165    ;  107			
                           A 10166    ;  108			BlackOut();
                           A 10167    ;  109			
                           A 10168    ;  110			Load_Raw_Data("board.raw", Vide
                           A 10169    ;  111			Load_Raw_Data("board.pal", Pale
                           A 10170    ;  112			
                           A 10171    ;  113			posiniz();		
                           A 10172    ;  114			apertura();
                           A 10173    ;  115			apri(col_prof);
                           A 10174    ;  116			
                           A 10175    ;  117			if (chAbort)
                           A 10176    ;  118				goto LabelMainMenu;
                           A 10177    ;  119			
                           A 10178    ;  120			nmossa = 4;		
                           A 10179    ;  121			
                           A 10180    ;  122			while (1)
                           A 10181    ;  123			{
                           A 10182    ;  124				Fill_Rectangle(63, 221, 102
                           A 10183    ;  125				
                           A 10184    ;  126				mossa_giocata = acquisisci(
                           A 10185    ;  127				
                           A 10186    ;  128				modifica(mossa_giocata);
                           A 10187    ;  129				
                           A 10188    ;  130				if (chAbort)
                           A 10189    ;  131					goto LabelMainMenu;		                           A 10190    ;  132				
                           A 10191    ;  133				stampap(DeleteBack);
                           A 10192    ;  134				
Zilog eZ80 Macro Assembler Version 4.1 (10060805) RELISTED26-Aug-11     11:07:39     page: 197


PC     Object              I  Line    Source C:\Users\fog76\Desktop\CHFIGH~2\Debug\main.src
                           A 10193    ;  135				Play_Raw_Audio(&Chs1);
                           A 10194    ;  136				
                           A 10195    ;  137				winner = vincitore();
                           A 10196    ;  138				
                           A 10197    ;  139				if (winner != 0)
                           A 10198    ;  140				{
                           A 10199    ;  141					Show_End_Screen(winner)
                           A 10200    ;  142					
                           A 10201    ;  143					goto LabelMainMenu;
                           A 10202    ;  144				}
                           A 10203    ;  145				
                           A 10204    ;  146				nmossa++;
                           A 10205    ;  147				cambiacolore
                           A 10206    ;  148				
                           A 10207    ;  149				if (PlayerColor == 0)
                           A 10208    ;  150					PlayerColor = 1;
                           A 10209    ;  151				else
                           A 10210    ;  152					PlayerColor = 0;
                           A 10211    ;  153				
                           A 10212    ;  154				Draw_Image(63, 221, 102, 10
                           A 10213    ;  155		
                           A 10214    ;  156				Fill_Rectangle(218, 75, 96,
                           A 10215    ;  157		
                           A 10216    ;  158				if (PlayerColor == 0)
                           A 10217    ;  159					Draw_Image(245, 75, 42,
                           A 10218    ;  160				else
                           A 10219    ;  161					Draw_Image(243, 75, 48,
                           A 10220    ;  162				
                           A 10221    ;  163				inizializza();
                           A 10222    ;  164				calcolamosse(0);
                           A 10223    ;  165				modifica(mossa_giocata);
                           A 10224    ;  166				nmossa++;
                           A 10225    ;  167				
                           A 10226    ;  168				cambiacolore
                           A 10227    ;  169				stampap(DeleteBack);
                           A 10228    ;  170				
                           A 10229    ;  171				Play_Raw_Audio(&Chs2);
                           A 10230    ;  172				
                           A 10231    ;  173				winner = vincitore();
                           A 10232    ;  174				
                           A 10233    ;  175				if (winner != 0)
                           A 10234    ;  176				{
                           A 10235    ;  177					Show_End_Screen(winner)
                           A 10236    ;  178					
                           A 10237    ;  179					goto LabelMainMenu;
                           A 10238    ;  180				}
                           A 10239    ;  181				
                           A 10240    ;  182				if (PlayerColor == 0)
                           A 10241    ;  183					PlayerColor = 1;
                           A 10242    ;  184				else
                           A 10243    ;  185					PlayerColor = 0;
                           A 10244    ;  186			}
Zilog eZ80 Macro Assembler Version 4.1 (10060805) RELISTED26-Aug-11     11:07:39     page: 198


PC     Object              I  Line    Source C:\Users\fog76\Desktop\CHFIGH~2\Debug\main.src
                           A 10245    ;  187			
                           A 10246    ;  188		}
                           A 10247    ;  189		
                           A 10248    ;  190		Disable_Audio();
                           A 10249    ;  191		
                           A 10250    ;  192		Free_All_Mem();
                           A 10251    ;  193		
                           A 10252    ;  194		asm ("push ix");
                           A 10253    ;  195		asm ("ld a, kr_os_display");
                           A 10254    ;  196		asm ("call.lil prose_kernal");
                           A 10255    ;  197		asm ("ld a, kr_clear_screen");
                           A 10256    ;  198		asm ("call.lil prose_kernal");
                           A 10257    ;  199		asm ("pop ix");
                           A 10258    ;  200		
                           A 10259    ;  201		print("Chess Fight ver 1.0 for eZ80
                           A 10260    ;  202		print("Progremmed by Enzo Antonio C
                           A 10261    ;  203		print("\n\r");
                           A 10262    ;  204	}
                           A 10263    ;  205	
                           A 10264    ;  206	void WaitKeyPress(void)
                           A 10265    ;  207	{
                           A 10266    ;  208		asm ("push ix");
                           A 10267    ;  209		asm ("ld a, kr_wait_key");
                           A 10268    ;  210		asm ("call.lil prose_kernal");
                           A 10269    ;  211		asm ("pop ix");
                           A 10270    ;  212	}
                           A 10271    ;  213	
                           A 10272    ;  214	unsigned char GetKeyScanCode(void)
                           A 10273    ;  215	{
                           A 10274    ;  216		gScanCode = 0;
                           A 10275    ;  217		
                           A 10276    ;  218		asm ("push ix");
                           A 10277    ;  219		asm ("ld a, kr_wait_key");
                           A 10278    ;  220		asm ("call.lil prose_kernal");	
                           A 10279    ;  221		asm ("ld (_gScanCode), a");	
                           A 10280    ;  222		asm ("pop ix");
                           A 10281    ;  223		
                           A 10282    ;  224		return gScanCode;
                           A 10283    ;  225	}
                           A 10284    ;  226	
                           A 10285    ;  227	void print(const char *txt)
                           A 10286    ;  228	{
                           A 10287    ;  229		TxtPnt = txt;
                           A 10288    ;  230		
                           A 10289    ;  231		asm ("push ix");
                           A 10290    ;  232		asm ("ld hl, (_TxtPnt)");
                           A 10291    ;  233		asm ("ld a, kr_print_string");
                           A 10292    ;  234		asm ("call.lil prose_kernal");
                           A 10293    ;  235		asm ("pop ix");	
                           A 10294    ;  236	}
                           A 10295    ;  237	
                           A 10296    ;  238	void Disable_Audio(void)
Zilog eZ80 Macro Assembler Version 4.1 (10060805) RELISTED26-Aug-11     11:07:39     page: 199


PC     Object              I  Line    Source C:\Users\fog76\Desktop\CHFIGH~2\Debug\main.src
                           A 10297    ;  239	{
                           A 10298    ;  240		asm ("push ix");
                           A 10299    ;  241		asm ("ld a, kr_disable_audio");
                           A 10300    ;  242		asm ("call.lil prose_kernal");
                           A 10301    ;  243		asm ("pop ix");	
                           A 10302    ;  244	}
                           A 10303    ;  245	
                           A 10304    ;  246	void Play_Raw_Audio(const SndRec *S)
                           A 10305    ;  247	{
                           A 10306    ;  248		Snd = S;
                           A 10307    ;  249		
                           A 10308    ;  250		asm ("push ix");
                           A 10309    ;  251		asm ("ld hl, (_Snd)");
                           A 10310    ;  252		asm ("ld c, 11h");
                           A 10311    ;  253		asm ("ld a, kr_play_audio");
                           A 10312    ;  254		asm ("call.lil prose_kernal");
                           A 10313    ;  255		asm ("pop ix");	
                           A 10314    ;  256	}
                           A 10315    ;  257	/*-------------------------------------
                           A 10316    ;  258	
                           A 10317    ;  259	void Free_All_Mem(void)
                           A 10318    ;  260	{
                           A 10319    ;  261		int i;
                           A 10320    ;  262		
                           A 10321    ;  263		free(mSelect);
                           A 10322    ;  264		free(mWhite);
                           A 10323    ;  265		free(mBlack);
                           A 10324    ;  266		free(mNormal);
                           A 10325    ;  267		free(mHard);
                           A 10326    ;  268		free(wSel);
                           A 10327    ;  269		free(rSel);
                           A 10328    ;  270		free(bsel);	
                           A 10329    ;  271		
                           A 10330    ;  272		for (i = 0; i < 6; i++)
                           A 10331    ;  273		{
                           A 10332    ;  274			free(Bianchi[i]);
                           A 10333    ;  275			free(Neri[i]);
                           A 10334    ;  276		}
                           A 10335    ;  277		
                           A 10336    ;  278		free(wPiece);
                           A 10337    ;  279		free(bPiece);
                           A 10338    ;  280		free(Think);
                           A 10339    ;  281		free(wPlay);
                           A 10340    ;  282		free(bPlay);	
                           A 10341    ;  283	}
                           A 10342    ;  284	
                           A 10343    ;  285	void Load_Components(void)
                           A 10344    ;  286	{
                           A 10345    ;  287		int i;
                           A 10346    ;  288		
                           A 10347    ;  289		print("\n\r Loading data...\n\r");
                           A 10348    ;  290		
Zilog eZ80 Macro Assembler Version 4.1 (10060805) RELISTED26-Aug-11     11:07:39     page: 200


PC     Object              I  Line    Source C:\Users\fog76\Desktop\CHFIGH~2\Debug\main.src
                           A 10349    ;  291		mSelect = (char *)malloc(16 * 15);	                           A 10350    ;  292		Load_Raw_Data("msel.raw", mSelect, 
                           A 10351    ;  293		
                           A 10352    ;  294		mWhite = (char *)malloc(42 * 10);	                           A 10353    ;  295		Load_Raw_Data("white.raw", mWhite, 
                           A 10354    ;  296		
                           A 10355    ;  297		mBlack = (char *)malloc(48 * 10);	                           A 10356    ;  298		Load_Raw_Data("black.raw", mBlack, 
                           A 10357    ;  299		
                           A 10358    ;  300		mNormal = (char *)malloc(58 * 10);	                           A 10359    ;  301		Load_Raw_Data("normal.raw", mNormal
                           A 10360    ;  302		
                           A 10361    ;  303		mHard = (char *)malloc(38 * 10);	                           A 10362    ;  304		Load_Raw_Data("hard.raw", mHard, 38
                           A 10363    ;  305		
                           A 10364    ;  306		wSel = (char *)malloc(25 * 25);	//6
                           A 10365    ;  307		Load_Raw_Data("bsel.raw", wSel, 25 
                           A 10366    ;  308		
                           A 10367    ;  309		rSel = (char *)malloc(25 * 25);	//6
                           A 10368    ;  310		Load_Raw_Data("rsel.raw", rSel, 25 
                           A 10369    ;  311		
                           A 10370    ;  312		bsel = (char *)malloc(25 * 25);	//6
                           A 10371    ;  313		
                           A 10372    ;  314		for (i = 0; i < 6; i++)
                           A 10373    ;  315		{
                           A 10374    ;  316			Bianchi[i] = (char *)malloc(22 
                           A 10375    ;  317			Neri[i] = (char *)malloc(22 * 2
                           A 10376    ;  318		}
                           A 10377    ;  319		
                           A 10378    ;  320		Load_Raw_Data("bped.raw", Bianchi[0
                           A 10379    ;  321		Load_Raw_Data("bcav.raw", Bianchi[1
                           A 10380    ;  322		Load_Raw_Data("balf.raw", Bianchi[2
                           A 10381    ;  323		Load_Raw_Data("btor.raw", Bianchi[3
                           A 10382    ;  324		Load_Raw_Data("breg.raw", Bianchi[4
                           A 10383    ;  325		Load_Raw_Data("bre.raw", Bianchi[5]
                           A 10384    ;  326		
                           A 10385    ;  327		Load_Raw_Data("nped.raw", Neri[0], 
                           A 10386    ;  328		Load_Raw_Data("ncav.raw", Neri[1], 
                           A 10387    ;  329		Load_Raw_Data("nalf.raw", Neri[2], 
                           A 10388    ;  330		Load_Raw_Data("ntor.raw", Neri[3], 
                           A 10389    ;  331		Load_Raw_Data("nreg.raw", Neri[4], 
                           A 10390    ;  332		Load_Raw_Data("nre.raw", Neri[5], 2
                           A 10391    ;  333		
                           A 10392    ;  334		wPiece = (char *)malloc(25 * 25);	                           A 10393    ;  335		Load_Raw_Data("wpiece.raw", wPiece,
                           A 10394    ;  336		
                           A 10395    ;  337		bPiece = (char *)malloc(25 * 25);	                           A 10396    ;  338		Load_Raw_Data("bpiece.raw", bPiece,
                           A 10397    ;  339		
                           A 10398    ;  340		Think = (char *)malloc(102 * 10);
                           A 10399    ;  341		Load_Raw_Data("pthink.raw", Think, 
                           A 10400    ;  342		
Zilog eZ80 Macro Assembler Version 4.1 (10060805) RELISTED26-Aug-11     11:07:39     page: 201


PC     Object              I  Line    Source C:\Users\fog76\Desktop\CHFIGH~2\Debug\main.src
                           A 10401    ;  343		wPlay = (char *)malloc(42 * 10);
                           A 10402    ;  344		Load_Raw_Data("pwhite.raw", wPlay, 
                           A 10403    ;  345		
                           A 10404    ;  346		bPlay = (char *)malloc(48 * 10);
                           A 10405    ;  347		Load_Raw_Data("pblack.raw", bPlay, 
                           A 10406    ;  348		
                           A 10407    ;  349		Load_Raw_Data("click.snd", (char *)
                           A 10408    ;  350		
                           A 10409    ;  351		Load_Raw_Data("chs1.snd", (char *)(
                           A 10410    ;  352		
                           A 10411    ;  353		Load_Raw_Data("chs2.snd", (char *)(
                           A 10412    ;  354		
                           A 10413    ;  355		Click.loc = (char *)0x0C00000;
                           A 10414    ;  356		Click.len = 9220;
                           A 10415    ;  357		Click.looploc = (char *)0x0C00000;
                           A 10416    ;  358		Click.looplen = 1;
                           A 10417    ;  359		Click.period = 0x73A3;
                           A 10418    ;  360		Click.volume = 84;
                           A 10419    ;  361		
                           A 10420    ;  362		Chs1.loc = (char *)(0x0C00000 + (10
                           A 10421    ;  363		Chs1.len = 2445;
                           A 10422    ;  364		Chs1.looploc = (char *)(0x0C00000 +
                           A 10423    ;  365		Chs1.looplen = 1;
                           A 10424    ;  366		Chs1.period = 0x73A3;
                           A 10425    ;  367		Chs1.volume = 84;
                           A 10426    ;  368		
                           A 10427    ;  369		Chs2.loc = (char *)(0x0C00000 + (10
                           A 10428    ;  370		Chs2.len = 3311;
                           A 10429    ;  371		Chs2.looploc = (char *)(0x0C00000 +
                           A 10430    ;  372		Chs2.looplen = 1;
                           A 10431    ;  373		Chs2.period = 0x73A3;
                           A 10432    ;  374		Chs2.volume = 84;
                           A 10433    ;  375	}
                           A 10434    ;  376	
                           A 10435    ;  377	void Draw_Image(int PosX, int PosY, int
                           A 10436    ;  378	{
                           A 10437    ;  379		int x, y;
                           A 10438    ;  380		
                           A 10439    ;  381		for (y = PosY; y < PosY + H; y++)
                           A 10440    ;  382			for (x = PosX; x < PosX + W; x+
                           A 10441    ;  383				PutPixel(x, y, *ImgBuf++);
                           A 10442    ;  384	}
                           A 10443    ;  385	
                           A 10444    ;  386	void Draw_Trans_Image(int PosX, int Pos
                           A 10445    ;  387	{
                           A 10446    ;  388		int x, y;
                           A 10447    ;  389		
                           A 10448    ;  390		for (y = PosY; y < PosY + H; y++)
                           A 10449    ;  391			for (x = PosX; x < PosX + W; x+
                           A 10450    ;  392			{
                           A 10451    ;  393				if (*ImgBuf != Trans)
                           A 10452    ;  394					PutPixel(x, y, *ImgBuf)
Zilog eZ80 Macro Assembler Version 4.1 (10060805) RELISTED26-Aug-11     11:07:39     page: 202


PC     Object              I  Line    Source C:\Users\fog76\Desktop\CHFIGH~2\Debug\main.src
                           A 10453    ;  395				
                           A 10454    ;  396				*ImgBuf++;
                           A 10455    ;  397			}
                           A 10456    ;  398				
                           A 10457    ;  399	}
                           A 10458    ;  400	
                           A 10459    ;  401	void Fill_Rectangle(int PosX, int PosY,
                           A 10460    ;  402	{
                           A 10461    ;  403		int x, y;
                           A 10462    ;  404		
                           A 10463    ;  405		for (y = PosY; y < PosY + H; y++)
                           A 10464    ;  406			for (x = PosX; x < PosX + W; x+
                           A 10465    ;  407				PutPixel(x, y, col);
                           A 10466    ;  408	}
                           A 10467    ;  409	
                           A 10468    ;  410	char MainMenu(void)
                           A 10469    ;  411	{
                           A 10470    ;  412		char PosSel = 0, OldPosSel = 0;
                           A 10471    ;  413		unsigned char SKey;	
                           A 10472    ;  414		
                           A 10473    ;  415		BlackOut();
                           A 10474    ;  416		
                           A 10475    ;  417		Load_Raw_Data("menu.raw", VideoMem,
                           A 10476    ;  418		Load_Raw_Data("menu.pal", PaletteMe
                           A 10477    ;  419		
                           A 10478    ;  420		if (mColore == 0)
                           A 10479    ;  421			Draw_Image(190, 94, 42, 10, mWh
                           A 10480    ;  422		else
                           A 10481    ;  423			Draw_Image(190, 94, 48, 10, mBl
                           A 10482    ;  424		
                           A 10483    ;  425		Draw_Image(105, 91, 16, 15, mSelect
                           A 10484    ;  426		
                           A 10485    ;  427		if (mLivello == 0)
                           A 10486    ;  428			Draw_Image(190, 116, 58, 10, mN
                           A 10487    ;  429		else
                           A 10488    ;  430			Draw_Image(190, 116, 38, 10, mH
                           A 10489    ;  431		
                           A 10490    ;  432		while (1)
                           A 10491    ;  433		{
                           A 10492    ;  434			SKey = GetKeyScanCode();
                           A 10493    ;  435			
                           A 10494    ;  436			if (SKey == 0x75)
                           A 10495    ;  437			{
                           A 10496    ;  438				PosSel -= 1;
                           A 10497    ;  439				
                           A 10498    ;  440				if (PosSel < 0)
                           A 10499    ;  441					PosSel = 3;
                           A 10500    ;  442			}
                           A 10501    ;  443			
                           A 10502    ;  444			if (SKey == 0x72)
                           A 10503    ;  445			{
                           A 10504    ;  446				PosSel += 1;
Zilog eZ80 Macro Assembler Version 4.1 (10060805) RELISTED26-Aug-11     11:07:39     page: 203


PC     Object              I  Line    Source C:\Users\fog76\Desktop\CHFIGH~2\Debug\main.src
                           A 10505    ;  447				
                           A 10506    ;  448				if (PosSel > 3)
                           A 10507    ;  449					PosSel = 0;
                           A 10508    ;  450			}
                           A 10509    ;  451			
                           A 10510    ;  452			if (PosSel != OldPosSel)
                           A 10511    ;  453			{
                           A 10512    ;  454				Play_Raw_Audio(&Click);
                           A 10513    ;  455				
                           A 10514    ;  456				Fill_Rectangle(105, 91 + (O
                           A 10515    ;  457				
                           A 10516    ;  458				Draw_Image(105, 91 + (PosSe
                           A 10517    ;  459				
                           A 10518    ;  460				OldPosSel = PosSel;
                           A 10519    ;  461			}
                           A 10520    ;  462			
                           A 10521    ;  463			if (SKey == 0x29)
                           A 10522    ;  464			{
                           A 10523    ;  465				Play_Raw_Audio(&Click);
                           A 10524    ;  466				
                           A 10525    ;  467				switch (PosSel)
                           A 10526    ;  468				{
                           A 10527    ;  469					case 		0:
                           A 10528    ;  470						
                           A 10529    ;  471						if (mColore == 0)
                           A 10530    ;  472						{
                           A 10531    ;  473							Fill_Rectangle(
                           A 10532    ;  474				
                           A 10533    ;  475							Draw_Image(190,
                           A 10534    ;  476							
                           A 10535    ;  477							mColore = 1;
                           A 10536    ;  478						}
                           A 10537    ;  479						else
                           A 10538    ;  480						{
                           A 10539    ;  481							Fill_Rectangle(
                           A 10540    ;  482				
                           A 10541    ;  483							Draw_Image(190,
                           A 10542    ;  484							
                           A 10543    ;  485							mColore = 0;
                           A 10544    ;  486						}
                           A 10545    ;  487						break;
                           A 10546    ;  488						
                           A 10547    ;  489					case		1:
                           A 10548    ;  490						if (mLivello == 0)
                           A 10549    ;  491						{
                           A 10550    ;  492							Fill_Rectangle(
                           A 10551    ;  493							
                           A 10552    ;  494							Draw_Image(190,
                           A 10553    ;  495							
                           A 10554    ;  496							mLivello = 1;
                           A 10555    ;  497						}
                           A 10556    ;  498						else
Zilog eZ80 Macro Assembler Version 4.1 (10060805) RELISTED26-Aug-11     11:07:39     page: 204


PC     Object              I  Line    Source C:\Users\fog76\Desktop\CHFIGH~2\Debug\main.src
                           A 10557    ;  499						{
                           A 10558    ;  500							Fill_Rectangle(
                           A 10559    ;  501							
                           A 10560    ;  502							Draw_Image(190,
                           A 10561    ;  503							
                           A 10562    ;  504							mLivello = 0;
                           A 10563    ;  505						}
                           A 10564    ;  506						break;
                           A 10565    ;  507						
                           A 10566    ;  508					case 		2:
                           A 10567    ;  509						return 1;
                           A 10568    ;  510					
                           A 10569    ;  511					case 		3:
                           A 10570    ;  512						return 2;
                           A 10571    ;  513				}
                           A 10572    ;  514			}
                           A 10573    ;  515			
                           A 10574    ;  516		}
                           A 10575    ;  517		
                           A 10576    ;  518		return 0;
                           A 10577    ;  519	}
                           A 10578    ;  520	
                           A 10579    ;  521	void Save_Back_Selection(int PosX, int 
                           A 10580    ;  522	{
                           A 10581    ;  523		unsigned char Val = VideoMem[(PosY 
                           A 10582    ;  524		char i, j;
                           A 10583    ;  525		
                           A 10584    ;  526		memset(bsel, Val, 25 * 25);
                           A 10585    ;  527		
                           A 10586    ;  528		for (j = 1; j < 24; j++)
                           A 10587    ;  529			for (i = 1; i < 24; i++)
                           A 10588    ;  530				bsel[(j * 25) + i] = Trans;
                           A 10589    ;  531	}
                           A 10590    ;  532	
                           A 10591    ;  533	void Draw_User_Selection(PlSel *uS, cha
                           A 10592    ;  534	{
                           A 10593    ;  535		int PosX, PosY;
                           A 10594    ;  536		
                           A 10595    ;  537		PosX = (uS->co * 25) + 11;
                           A 10596    ;  538		PosY = (uS->ri * 25) + 12;
                           A 10597    ;  539		
                           A 10598    ;  540		if (SaveBK)
                           A 10599    ;  541			Save_Back_Selection(PosX, PosY,
                           A 10600    ;  542		
                           A 10601    ;  543		Draw_Trans_Image(PosX, PosY, 25, 25
                           A 10602    ;  544	}
                           A 10603    ;  545	
                           A 10604    ;  546	void Ottiemi_Mossa(PlSel *uS, char *Out
                           A 10605    ;  547	{
                           A 10606    ;  548		PlSel Old;
                           A 10607    ;  549		unsigned char SKey;
                           A 10608    ;  550		
Zilog eZ80 Macro Assembler Version 4.1 (10060805) RELISTED26-Aug-11     11:07:39     page: 205


PC     Object              I  Line    Source C:\Users\fog76\Desktop\CHFIGH~2\Debug\main.src
                           A 10609    ;  551		OutBuf[0] = 0;
                           A 10610    ;  552		OutBuf[1] = 0;
                           A 10611    ;  553		chAbort = 0;
                           A 10612    ;  554		
                           A 10613    ;  555		Old.co = uS->co;
                           A 10614    ;  556		Old.ri = uS->ri;
                           A 10615    ;  557		Old.Img = bsel;
                           A 10616    ;  558		
                           A 10617    ;  559		Draw_User_Selection(uS, 1);
                           A 10618    ;  560		
                           A 10619    ;  561		while (1)
                           A 10620    ;  562		{
                           A 10621    ;  563			SKey = GetKeyScanCode();
                           A 10622    ;  564			
                           A 10623    ;  565			if (SKey == 0x6B)
                           A 10624    ;  566			{
                           A 10625    ;  567				uS->co--;
                           A 10626    ;  568				
                           A 10627    ;  569				if (uS->co < 0)
                           A 10628    ;  570					uS->co = 0;
                           A 10629    ;  571			}
                           A 10630    ;  572			
                           A 10631    ;  573			if (SKey == 0x74)
                           A 10632    ;  574			{
                           A 10633    ;  575				uS->co++;
                           A 10634    ;  576				
                           A 10635    ;  577				if (uS->co > 7)
                           A 10636    ;  578					uS->co = 7;
                           A 10637    ;  579			}
                           A 10638    ;  580			
                           A 10639    ;  581			if (SKey == 0x75)
                           A 10640    ;  582			{
                           A 10641    ;  583				uS->ri--;
                           A 10642    ;  584				
                           A 10643    ;  585				if (uS->ri < 0)
                           A 10644    ;  586					uS->ri = 0;
                           A 10645    ;  587			}
                           A 10646    ;  588			
                           A 10647    ;  589			if (SKey == 0x72)
                           A 10648    ;  590			{
                           A 10649    ;  591				uS->ri++;
                           A 10650    ;  592				
                           A 10651    ;  593				if (uS->ri > 7)
                           A 10652    ;  594					uS->ri = 7;
                           A 10653    ;  595			}
                           A 10654    ;  596			
                           A 10655    ;  597			if (SKey == 0x07)
                           A 10656    ;  598			{
                           A 10657    ;  599				chAbort = 1;
                           A 10658    ;  600				
                           A 10659    ;  601				Draw_User_Selection(&Old, 0
                           A 10660    ;  602				
Zilog eZ80 Macro Assembler Version 4.1 (10060805) RELISTED26-Aug-11     11:07:39     page: 206


PC     Object              I  Line    Source C:\Users\fog76\Desktop\CHFIGH~2\Debug\main.src
                           A 10661    ;  603				return;
                           A 10662    ;  604			}
                           A 10663    ;  605			
                           A 10664    ;  606			if (SKey == 0x29)
                           A 10665    ;  607			{
                           A 10666    ;  608				Draw_User_Selection(&Old, 0
                           A 10667    ;  609				
                           A 10668    ;  610				OutBuf[0] = 'a' + uS->co;
                           A 10669    ;  611				OutBuf[1] = '8' - uS->ri;
                           A 10670    ;  612				
                           A 10671    ;  613				return;
                           A 10672    ;  614			}			
                           A 10673    ;  615			
                           A 10674    ;  616			if ((Old.co != uS->co) || (Old.
                           A 10675    ;  617			{
                           A 10676    ;  618				Draw_User_Selection(&Old, 0
                           A 10677    ;  619				
                           A 10678    ;  620				Draw_User_Selection(uS, 1);
                           A 10679    ;  621				
                           A 10680    ;  622				Old.co = uS->co;
                           A 10681    ;  623				Old.ri = uS->ri;
                           A 10682    ;  624			}		
                           A 10683    ;  625		}
                           A 10684    ;  626	}
                           A 10685    ;  627	
                           A 10686    ;  628	void Crea_Mossa(void)
                           A 10687    ;  629	{
                           A 10688    ;  630		User.Img = wSel;
                           A 10689    ;  631		
                           A 10690    ;  632		Ottiemi_Mossa(&User, Mossa1);
                           A 10691    ;  633		
                           A 10692    ;  634		if (!chAbort)
                           A 10693    ;  635		{
                           A 10694    ;  636			User.Img = rSel;
                           A 10695    ;  637			
                           A 10696    ;  638			Ottiemi_Mossa(&User, Mossa2);
                           A 10697    ;  639		}
                           A 10698    ;  640	}
                           A 10699    ;  641	
                           A 10700    ;  642	void Show_End_Screen(char win)
                           A 10701    ;  643	{
                           A 10702    ;  644		unsigned int i, co, ri, x, y;	
                           A 10703    ;  645		
                           A 10704    ;  646		co = ((mossa_giocata / 10) % 10);
                           A 10705    ;  647		ri = mossa_giocata % 10;
                           A 10706    ;  648		
                           A 10707    ;  649		x = PosScac[co][ri].X;
                           A 10708    ;  650		y = PosScac[co][ri].Y;
                           A 10709    ;  651		
                           A 10710    ;  652		Draw_Trans_Image(x, y, 25, 25, rSel
                           A 10711    ;  653		
                           A 10712    ;  654		for (i = 0; i < 1500000; i++);
Zilog eZ80 Macro Assembler Version 4.1 (10060805) RELISTED26-Aug-11     11:07:39     page: 207


PC     Object              I  Line    Source C:\Users\fog76\Desktop\CHFIGH~2\Debug\main.src
                           A 10713    ;  655		
                           A 10714    ;  656		BlackOut();
                           A 10715    ;  657		
                           A 10716    ;  658		switch (win)
                           A 10717    ;  659		{
                           A 10718    ;  660			case	1:
                           A 10719    ;  661				
                           A 10720    ;  662				Load_Raw_Data("win.raw", Vi
                           A 10721    ;  663				Load_Raw_Data("win.pal", Pa
                           A 10722    ;  664				break;
                           A 10723    ;  665				
                           A 10724    ;  666			case	2:
                           A 10725    ;  667				
                           A 10726    ;  668				Load_Raw_Data("lose.raw", V
                           A 10727    ;  669				Load_Raw_Data("lose.pal", P
                           A 10728    ;  670				break;
                           A 10729    ;  671		}
                           A 10730    ;  672		
                           A 10731    ;  673		WaitKeyPress();
                           A 10732    ;  674		
                           A 10733    ;  675		Play_Raw_Audio(&Click);
015BEC DDF9                A 10734    	LD	SP,IX
015BEE DDE1                A 10735    	POP	IX
015BF0 C9                  A 10736    	RET	
                           A 10737    
                           A 10738    
                           A 10739    ;**************************** _controllo ******
                           A 10740    ;Name                         Addr/Register   S
                           A 10741    ;_possibili                          STATIC    
                           A 10742    ;_calcolamosse                       STATIC  --
                           A 10743    ;_cont                               STATIC    
                           A 10744    ;superato                              IX-4    
                           A 10745    ;i                                     IX-3    
                           A 10746    ;m                                     IX+6    
                           A 10747    
                           A 10748    
                           A 10749    ; Stack Frame Size: 16 (bytes)
                           A 10750    ;       Spill Code: 0 (instruction)
                           A 10751    
                           A 10752    
015BF1                     A 10753    _MyMain:
015BF1 21F9FFFF            A 10754    	LD	HL,-7
015BF5 CD BF 70 01         A 10755    	CALL	__frameset
015BF9 CD 78 60 01         A 10756    	CALL	_Load_Components
015BFD CD 1B 00 01         A 10757    	CALL	_Set_320_240_Mode
015C01 CD B1 00 01         A 10758    	CALL	_BlackOut
015C05 01002C01            A 10759    	LD	BC,76800
015C09 C5                  A 10760    	PUSH	BC
015C0A ED4B D2 7F 01       A 10761    	LD	BC,(_VideoMem)
015C0F C5                  A 10762    	PUSH	BC
015C10 01 1A 74 01         A 10763    	LD	BC,L__350
015C14 C5                  A 10764    	PUSH	BC
Zilog eZ80 Macro Assembler Version 4.1 (10060805) RELISTED26-Aug-11     11:07:39     page: 208


PC     Object              I  Line    Source C:\Users\fog76\Desktop\CHFIGH~2\Debug\main.src
015C15 CD 5E 00 01         A 10765    	CALL	_Load_Raw_Data
015C19 C1                  A 10766    	POP	BC
015C1A C1                  A 10767    	POP	BC
015C1B C1                  A 10768    	POP	BC
015C1C 01000200            A 10769    	LD	BC,512
015C20 C5                  A 10770    	PUSH	BC
015C21 ED4B D5 7F 01       A 10771    	LD	BC,(_PaletteMem)
015C26 C5                  A 10772    	PUSH	BC
015C27 01 23 74 01         A 10773    	LD	BC,L__351
015C2B C5                  A 10774    	PUSH	BC
015C2C CD 5E 00 01         A 10775    	CALL	_Load_Raw_Data
015C30 C1                  A 10776    	POP	BC
015C31 C1                  A 10777    	POP	BC
015C32 C1                  A 10778    	POP	BC
015C33 CD 1F 5F 01         A 10779    	CALL	_WaitKeyPress
015C37 01 3F 7D 01         A 10780    	LD	BC,_Click
015C3B C5                  A 10781    	PUSH	BC
015C3C CD 6C 5F 01         A 10782    	CALL	_Play_Raw_Audio
015C40 C1                  A 10783    	POP	BC
015C41                     A 10784    L_567:
015C41 CD 63 66 01         A 10785    	CALL	_MainMenu
015C45 DD77FE              A 10786    	LD	(IX+-2),A
015C48 FE01                A 10787    	CP	A,1
015C4A C2 E2 5E 01         A 10788    	JR	NZ,L_595
015C4E AF                  A 10789    	XOR	A,A
015C4F 32 F9 7F 01         A 10790    	LD	(_DeleteBack),A
015C53 3A F8 7F 01         A 10791    	LD	A,(_mLivello)
015C57 47                  A 10792    	LD	B,A
015C58 17ED62              A 10793    	SEXT	HL
015C5B 68                  A 10794    	LD	L,B
015C5C E5C1                A 10795    	LD	BC,HL
015C5E CD AB 71 01         A 10796    	CALL	__itol
015C62 5F                  A 10797    	LD	E,A
015C63 3E01                A 10798    	LD	A,1
015C65 C5E1                A 10799    	LD	HL,BC
015C67 CD FC 6D 01         A 10800    	CALL	__ladd_b
015C6B 22 EF 7F 01         A 10801    	LD	(_livello),HL
015C6F 7B                  A 10802    	LD	A,E
015C70 32 F2 7F 01         A 10803    	LD	(_livello+3),A
015C74 01000000            A 10804    	LD	BC,0
015C78 ED43 E0 7F 01       A 10805    	LD	(_col_prof),BC
015C7D 3A F7 7F 01         A 10806    	LD	A,(_mColore)
015C81 32 C2 7D 01         A 10807    	LD	(_PlayerColor),A
015C85 3E06                A 10808    	LD	A,6
015C87 32 BD 7D 01         A 10809    	LD	(_User),A
015C8B AF                  A 10810    	XOR	A,A
015C8C 32 BE 7D 01         A 10811    	LD	(_User+1),A
015C90 CD B1 00 01         A 10812    	CALL	_BlackOut
015C94 01002C01            A 10813    	LD	BC,76800
015C98 C5                  A 10814    	PUSH	BC
015C99 ED4B D2 7F 01       A 10815    	LD	BC,(_VideoMem)
015C9E C5                  A 10816    	PUSH	BC
Zilog eZ80 Macro Assembler Version 4.1 (10060805) RELISTED26-Aug-11     11:07:39     page: 209


PC     Object              I  Line    Source C:\Users\fog76\Desktop\CHFIGH~2\Debug\main.src
015C9F 01 2C 74 01         A 10817    	LD	BC,L__353
015CA3 C5                  A 10818    	PUSH	BC
015CA4 CD 5E 00 01         A 10819    	CALL	_Load_Raw_Data
015CA8 C1                  A 10820    	POP	BC
015CA9 C1                  A 10821    	POP	BC
015CAA C1                  A 10822    	POP	BC
015CAB 01000200            A 10823    	LD	BC,512
015CAF C5                  A 10824    	PUSH	BC
015CB0 ED4B D5 7F 01       A 10825    	LD	BC,(_PaletteMem)
015CB5 C5                  A 10826    	PUSH	BC
015CB6 01 36 74 01         A 10827    	LD	BC,L__354
015CBA C5                  A 10828    	PUSH	BC
015CBB CD 5E 00 01         A 10829    	CALL	_Load_Raw_Data
015CBF C1                  A 10830    	POP	BC
015CC0 C1                  A 10831    	POP	BC
015CC1 C1                  A 10832    	POP	BC
015CC2 CD BF 16 01         A 10833    	CALL	_posiniz
015CC6 CD 3A 01 01         A 10834    	CALL	_apertura
015CCA ED4B E0 7F 01       A 10835    	LD	BC,(_col_prof)
015CCF C5                  A 10836    	PUSH	BC
015CD0 CD F0 59 01         A 10837    	CALL	_apri
015CD4 C1                  A 10838    	POP	BC
015CD5 3A B7 7D 01         A 10839    	LD	A,(_chAbort)
015CD9 B7                  A 10840    	OR	A,A
015CDA C2 41 5C 01         A 10841    	JR	NZ,L_567
015CDE 01040000            A 10842    	LD	BC,4
015CE2 ED43 E3 7F 01       A 10843    	LD	(_nmossa),BC
015CE7 AF                  A 10844    	XOR	A,A
015CE8 32 E6 7F 01         A 10845    	LD	(_nmossa+3),A
015CEC                     A 10846    L_593:
015CEC 01000000            A 10847    	LD	BC,0
015CF0 C5                  A 10848    	PUSH	BC
015CF1 010A0000            A 10849    	LD	BC,10
015CF5 C5                  A 10850    	PUSH	BC
015CF6 01660000            A 10851    	LD	BC,102
015CFA C5                  A 10852    	PUSH	BC
015CFB 01DD0000            A 10853    	LD	BC,221
015CFF C5                  A 10854    	PUSH	BC
015D00 013F0000            A 10855    	LD	BC,63
015D04 C5                  A 10856    	PUSH	BC
015D05 CD E9 65 01         A 10857    	CALL	_Fill_Rectangle
015D09 C1                  A 10858    	POP	BC
015D0A C1                  A 10859    	POP	BC
015D0B C1                  A 10860    	POP	BC
015D0C C1                  A 10861    	POP	BC
015D0D C1                  A 10862    	POP	BC
015D0E CD 90 57 01         A 10863    	CALL	_acquisisci
015D12 7B                  A 10864    	LD	A,E
015D13 4F                  A 10865    	LD	C,A
015D14 22 D8 7F 01         A 10866    	LD	(_mossa_giocata),HL
015D18 32 DB 7F 01         A 10867    	LD	(_mossa_giocata+3),A
015D1C 0600                A 10868    	LD	B,0
Zilog eZ80 Macro Assembler Version 4.1 (10060805) RELISTED26-Aug-11     11:07:39     page: 210


PC     Object              I  Line    Source C:\Users\fog76\Desktop\CHFIGH~2\Debug\main.src
015D1E C5                  A 10869    	PUSH	BC
015D1F ED4B D8 7F 01       A 10870    	LD	BC,(_mossa_giocata)
015D24 C5                  A 10871    	PUSH	BC
015D25 CD 2D 56 01         A 10872    	CALL	_modifica
015D29 C1                  A 10873    	POP	BC
015D2A C1                  A 10874    	POP	BC
015D2B 3A B7 7D 01         A 10875    	LD	A,(_chAbort)
015D2F B7                  A 10876    	OR	A,A
015D30 C2 41 5C 01         A 10877    	JR	NZ,L_567
015D34 3A F9 7F 01         A 10878    	LD	A,(_DeleteBack)
015D38 4F                  A 10879    	LD	C,A
015D39 0600                A 10880    	LD	B,0
015D3B C5                  A 10881    	PUSH	BC
015D3C CD C6 1A 01         A 10882    	CALL	_stampap
015D40 C1                  A 10883    	POP	BC
015D41 01 4E 7D 01         A 10884    	LD	BC,_Chs1
015D45 C5                  A 10885    	PUSH	BC
015D46 CD 6C 5F 01         A 10886    	CALL	_Play_Raw_Audio
015D4A C1                  A 10887    	POP	BC
015D4B CD 9F 06 01         A 10888    	CALL	_vincitore
015D4F DD77FF              A 10889    	LD	(IX+-1),A
015D52 B7                  A 10890    	OR	A,A
015D53 28 0F               A 10891    	JR	Z,L_574
015D55 DD4EFF              A 10892    	LD	C,(IX+-1)
015D58 0600                A 10893    	LD	B,0
015D5A C5                  A 10894    	PUSH	BC
015D5B CD A1 6C 01         A 10895    	CALL	_Show_End_Screen
015D5F C1                  A 10896    	POP	BC
015D60 C3 41 5C 01         A 10897    	JR	L_567
015D64                     A 10898    L_574:
015D64 3A E6 7F 01         A 10899    	LD	A,(_nmossa+3)
015D68 5F                  A 10900    	LD	E,A
015D69 3E01                A 10901    	LD	A,1
015D6B 2A E3 7F 01         A 10902    	LD	HL,(_nmossa)
015D6F CD FC 6D 01         A 10903    	CALL	__ladd_b
015D73 22 E3 7F 01         A 10904    	LD	(_nmossa),HL
015D77 7B                  A 10905    	LD	A,E
015D78 32 E6 7F 01         A 10906    	LD	(_nmossa+3),A
015D7C 2A E0 7F 01         A 10907    	LD	HL,(_col_prof)
015D80 01000000            A 10908    	LD	BC,0
015D84 B7                  A 10909    	OR	A,A
015D85 ED42                A 10910    	SBC	HL,BC
015D87 20 0B               A 10911    	JR	NZ,L_576
015D89 01010000            A 10912    	LD	BC,1
015D8D ED43 E0 7F 01       A 10913    	LD	(_col_prof),BC
015D92 18 05               A 10914    	JR	L_579
015D94                     A 10915    L_576:
015D94 ED43 E0 7F 01       A 10916    	LD	(_col_prof),BC
015D99                     A 10917    L_579:
015D99 3A C2 7D 01         A 10918    	LD	A,(_PlayerColor)
015D9D B7                  A 10919    	OR	A,A
015D9E 20 08               A 10920    	JR	NZ,L_578
Zilog eZ80 Macro Assembler Version 4.1 (10060805) RELISTED26-Aug-11     11:07:39     page: 211


PC     Object              I  Line    Source C:\Users\fog76\Desktop\CHFIGH~2\Debug\main.src
015DA0 3E01                A 10921    	LD	A,1
015DA2 32 C2 7D 01         A 10922    	LD	(_PlayerColor),A
015DA6 18 05               A 10923    	JR	L_580
015DA8                     A 10924    L_578:
015DA8 AF                  A 10925    	XOR	A,A
015DA9 32 C2 7D 01         A 10926    	LD	(_PlayerColor),A
015DAD                     A 10927    L_580:
015DAD ED4B 7B 7D 01       A 10928    	LD	BC,(_Think)
015DB2 C5                  A 10929    	PUSH	BC
015DB3 010A0000            A 10930    	LD	BC,10
015DB7 C5                  A 10931    	PUSH	BC
015DB8 01660000            A 10932    	LD	BC,102
015DBC C5                  A 10933    	PUSH	BC
015DBD 01DD0000            A 10934    	LD	BC,221
015DC1 C5                  A 10935    	PUSH	BC
015DC2 013F0000            A 10936    	LD	BC,63
015DC6 C5                  A 10937    	PUSH	BC
015DC7 CD C4 64 01         A 10938    	CALL	_Draw_Image
015DCB C1                  A 10939    	POP	BC
015DCC C1                  A 10940    	POP	BC
015DCD C1                  A 10941    	POP	BC
015DCE C1                  A 10942    	POP	BC
015DCF C1                  A 10943    	POP	BC
015DD0 01000000            A 10944    	LD	BC,0
015DD4 C5                  A 10945    	PUSH	BC
015DD5 010A0000            A 10946    	LD	BC,10
015DD9 C5                  A 10947    	PUSH	BC
015DDA 01600000            A 10948    	LD	BC,96
015DDE C5                  A 10949    	PUSH	BC
015DDF 014B0000            A 10950    	LD	BC,75
015DE3 C5                  A 10951    	PUSH	BC
015DE4 01DA0000            A 10952    	LD	BC,218
015DE8 C5                  A 10953    	PUSH	BC
015DE9 CD E9 65 01         A 10954    	CALL	_Fill_Rectangle
015DED C1                  A 10955    	POP	BC
015DEE C1                  A 10956    	POP	BC
015DEF C1                  A 10957    	POP	BC
015DF0 C1                  A 10958    	POP	BC
015DF1 C1                  A 10959    	POP	BC
015DF2 3A C2 7D 01         A 10960    	LD	A,(_PlayerColor)
015DF6 B7                  A 10961    	OR	A,A
015DF7 20 25               A 10962    	JR	NZ,L_582
015DF9 ED4B 7E 7D 01       A 10963    	LD	BC,(_wPlay)
015DFE C5                  A 10964    	PUSH	BC
015DFF 010A0000            A 10965    	LD	BC,10
015E03 C5                  A 10966    	PUSH	BC
015E04 012A0000            A 10967    	LD	BC,42
015E08 C5                  A 10968    	PUSH	BC
015E09 014B0000            A 10969    	LD	BC,75
015E0D C5                  A 10970    	PUSH	BC
015E0E 01F50000            A 10971    	LD	BC,245
015E12 C5                  A 10972    	PUSH	BC
Zilog eZ80 Macro Assembler Version 4.1 (10060805) RELISTED26-Aug-11     11:07:39     page: 212


PC     Object              I  Line    Source C:\Users\fog76\Desktop\CHFIGH~2\Debug\main.src
015E13 CD C4 64 01         A 10973    	CALL	_Draw_Image
015E17 C1                  A 10974    	POP	BC
015E18 C1                  A 10975    	POP	BC
015E19 C1                  A 10976    	POP	BC
015E1A C1                  A 10977    	POP	BC
015E1B C1                  A 10978    	POP	BC
015E1C 18 23               A 10979    	JR	L_583
015E1E                     A 10980    L_582:
015E1E ED4B 81 7D 01       A 10981    	LD	BC,(_bPlay)
015E23 C5                  A 10982    	PUSH	BC
015E24 010A0000            A 10983    	LD	BC,10
015E28 C5                  A 10984    	PUSH	BC
015E29 01300000            A 10985    	LD	BC,48
015E2D C5                  A 10986    	PUSH	BC
015E2E 014B0000            A 10987    	LD	BC,75
015E32 C5                  A 10988    	PUSH	BC
015E33 01F30000            A 10989    	LD	BC,243
015E37 C5                  A 10990    	PUSH	BC
015E38 CD C4 64 01         A 10991    	CALL	_Draw_Image
015E3C C1                  A 10992    	POP	BC
015E3D C1                  A 10993    	POP	BC
015E3E C1                  A 10994    	POP	BC
015E3F C1                  A 10995    	POP	BC
015E40 C1                  A 10996    	POP	BC
015E41                     A 10997    L_583:
015E41 CD 79 07 01         A 10998    	CALL	_inizializza
015E45 01000000            A 10999    	LD	BC,0
015E49 C5                  A 11000    	PUSH	BC
015E4A CD 06 21 01         A 11001    	CALL	_calcolamosse
015E4E C1                  A 11002    	POP	BC
015E4F 3A DB 7F 01         A 11003    	LD	A,(_mossa_giocata+3)
015E53 4F                  A 11004    	LD	C,A
015E54 0600                A 11005    	LD	B,0
015E56 C5                  A 11006    	PUSH	BC
015E57 ED4B D8 7F 01       A 11007    	LD	BC,(_mossa_giocata)
015E5C C5                  A 11008    	PUSH	BC
015E5D CD 2D 56 01         A 11009    	CALL	_modifica
015E61 C1                  A 11010    	POP	BC
015E62 C1                  A 11011    	POP	BC
015E63 3A E6 7F 01         A 11012    	LD	A,(_nmossa+3)
015E67 5F                  A 11013    	LD	E,A
015E68 3E01                A 11014    	LD	A,1
015E6A 2A E3 7F 01         A 11015    	LD	HL,(_nmossa)
015E6E CD FC 6D 01         A 11016    	CALL	__ladd_b
015E72 22 E3 7F 01         A 11017    	LD	(_nmossa),HL
015E76 7B                  A 11018    	LD	A,E
015E77 32 E6 7F 01         A 11019    	LD	(_nmossa+3),A
015E7B 2A E0 7F 01         A 11020    	LD	HL,(_col_prof)
015E7F 01000000            A 11021    	LD	BC,0
015E83 B7                  A 11022    	OR	A,A
015E84 ED42                A 11023    	SBC	HL,BC
015E86 20 0B               A 11024    	JR	NZ,L_586
Zilog eZ80 Macro Assembler Version 4.1 (10060805) RELISTED26-Aug-11     11:07:39     page: 213


PC     Object              I  Line    Source C:\Users\fog76\Desktop\CHFIGH~2\Debug\main.src
015E88 01010000            A 11025    	LD	BC,1
015E8C ED43 E0 7F 01       A 11026    	LD	(_col_prof),BC
015E91 18 05               A 11027    	JR	L_587
015E93                     A 11028    L_586:
015E93 ED43 E0 7F 01       A 11029    	LD	(_col_prof),BC
015E98                     A 11030    L_587:
015E98 3A F9 7F 01         A 11031    	LD	A,(_DeleteBack)
015E9C 4F                  A 11032    	LD	C,A
015E9D 0600                A 11033    	LD	B,0
015E9F C5                  A 11034    	PUSH	BC
015EA0 CD C6 1A 01         A 11035    	CALL	_stampap
015EA4 C1                  A 11036    	POP	BC
015EA5 01 5D 7D 01         A 11037    	LD	BC,_Chs2
015EA9 C5                  A 11038    	PUSH	BC
015EAA CD 6C 5F 01         A 11039    	CALL	_Play_Raw_Audio
015EAE C1                  A 11040    	POP	BC
015EAF CD 9F 06 01         A 11041    	CALL	_vincitore
015EB3 DD77FF              A 11042    	LD	(IX+-1),A
015EB6 B7                  A 11043    	OR	A,A
015EB7 28 0F               A 11044    	JR	Z,L_591
015EB9 DD4EFF              A 11045    	LD	C,(IX+-1)
015EBC 0600                A 11046    	LD	B,0
015EBE C5                  A 11047    	PUSH	BC
015EBF CD A1 6C 01         A 11048    	CALL	_Show_End_Screen
015EC3 C1                  A 11049    	POP	BC
015EC4 C3 41 5C 01         A 11050    	JR	L_567
015EC8                     A 11051    L_591:
015EC8 3A C2 7D 01         A 11052    	LD	A,(_PlayerColor)
015ECC B7                  A 11053    	OR	A,A
015ECD 20 0A               A 11054    	JR	NZ,L_590
015ECF 3E01                A 11055    	LD	A,1
015ED1 32 C2 7D 01         A 11056    	LD	(_PlayerColor),A
015ED5 C3 EC 5C 01         A 11057    	JR	L_593
015ED9                     A 11058    L_590:
015ED9 AF                  A 11059    	XOR	A,A
015EDA 32 C2 7D 01         A 11060    	LD	(_PlayerColor),A
015EDE C3 EC 5C 01         A 11061    	JR	L_593
015EE2                     A 11062    L_595:
015EE2 CD 60 5F 01         A 11063    	CALL	_Disable_Audio
015EE6 CD 8E 5F 01         A 11064    	CALL	_Free_All_Mem
015EEA DDE5                A 11065    push ix
015EEC 3E2F                A 11066    ld a, kr_os_display
015EEE 5BCD200A 00         A 11067    call.lil prose_kernal
015EF3 3E26                A 11068    ld a, kr_clear_screen
015EF5 5BCD200A 00         A 11069    call.lil prose_kernal
015EFA DDE1                A 11070    pop ix
015EFC 01 40 74 01         A 11071    	LD	BC,L__364
015F00 C5                  A 11072    	PUSH	BC
015F01 CD 40 5F 01         A 11073    	CALL	_print
015F05 C1                  A 11074    	POP	BC
015F06 01 61 74 01         A 11075    	LD	BC,L__365
015F0A C5                  A 11076    	PUSH	BC
Zilog eZ80 Macro Assembler Version 4.1 (10060805) RELISTED26-Aug-11     11:07:39     page: 214


PC     Object              I  Line    Source C:\Users\fog76\Desktop\CHFIGH~2\Debug\main.src
015F0B CD 40 5F 01         A 11077    	CALL	_print
015F0F C1                  A 11078    	POP	BC
015F10 01 89 74 01         A 11079    	LD	BC,L__366
015F14 C5                  A 11080    	PUSH	BC
015F15 CD 40 5F 01         A 11081    	CALL	_print
015F19 C1                  A 11082    	POP	BC
015F1A DDF9                A 11083    	LD	SP,IX
015F1C DDE1                A 11084    	POP	IX
015F1E C9                  A 11085    	RET	
                           A 11086    
                           A 11087    
                           A 11088    ;**************************** _MyMain *********
                           A 11089    ;Name                         Addr/Register   S
                           A 11090    ;_print                              IMPORT  --
                           A 11091    ;_Free_All_Mem                       IMPORT  --
                           A 11092    ;_Disable_Audio                      IMPORT  --
                           A 11093    ;_Chs2                               STATIC    
                           A 11094    ;_calcolamosse                       STATIC  --
                           A 11095    ;_inizializza                        IMPORT  --
                           A 11096    ;_bPlay                              STATIC    
                           A 11097    ;_wPlay                              STATIC    
                           A 11098    ;_Think                              STATIC    
                           A 11099    ;_Draw_Image                         IMPORT  --
                           A 11100    ;_Show_End_Screen                    IMPORT  --
                           A 11101    ;_vincitore                          IMPORT  --
                           A 11102    ;_Chs1                               STATIC    
                           A 11103    ;_stampap                            IMPORT  --
                           A 11104    ;_modifica                           IMPORT  --
                           A 11105    ;_mossa_giocata                      STATIC    
                           A 11106    ;_acquisisci                         IMPORT  --
                           A 11107    ;_Fill_Rectangle                     IMPORT  --
                           A 11108    ;_nmossa                             STATIC    
                           A 11109    ;_chAbort                            STATIC    
                           A 11110    ;_apri                               IMPORT  --
                           A 11111    ;_apertura                           STATIC  --
                           A 11112    ;_posiniz                            IMPORT  --
                           A 11113    ;_User                               STATIC    
                           A 11114    ;_PlayerColor                        STATIC    
                           A 11115    ;_mColore                            STATIC    
                           A 11116    ;_col_prof                           STATIC    
                           A 11117    ;_livello                            STATIC    
                           A 11118    ;_mLivello                           STATIC    
                           A 11119    ;_DeleteBack                         STATIC    
                           A 11120    ;_MainMenu                           IMPORT  --
                           A 11121    ;_Click                              STATIC    
                           A 11122    ;_Play_Raw_Audio                     IMPORT  --
                           A 11123    ;_WaitKeyPress                       IMPORT  --
                           A 11124    ;_PaletteMem                         STATIC    
                           A 11125    ;_VideoMem                           STATIC    
                           A 11126    ;_Load_Raw_Data                      IMPORT  --
                           A 11127    ;_BlackOut                           IMPORT  --
                           A 11128    ;_Set_320_240_Mode                   IMPORT  --
Zilog eZ80 Macro Assembler Version 4.1 (10060805) RELISTED26-Aug-11     11:07:39     page: 215


PC     Object              I  Line    Source C:\Users\fog76\Desktop\CHFIGH~2\Debug\main.src
                           A 11129    ;_Load_Components                    IMPORT  --
                           A 11130    ;app                                   IX-7    
                           A 11131    ;MyMenuValue                           IX-2    
                           A 11132    ;winner                                IX-1    
                           A 11133    
                           A 11134    
                           A 11135    ; Stack Frame Size: 13 (bytes)
                           A 11136    ;       Spill Code: 0 (instruction)
                           A 11137    
                           A 11138    
                           A 11139    	SEGMENT STRSECT
01741A                     A 11140    L__350:
01741A 6C6F676F 2E726177   A 11141    	DB	"logo.raw"
017422 00                  A 11142    	DB	0
017423                     A 11143    L__351:
017423 6C6F676F 2E70616C   A 11144    	DB	"logo.pal"
01742B 00                  A 11145    	DB	0
01742C                     A 11146    L__353:
01742C 626F6172 642E7261   A 11147    	DB	"board.raw"
017434 77 
017435 00                  A 11148    	DB	0
017436                     A 11149    L__354:
017436 626F6172 642E7061   A 11150    	DB	"board.pal"
01743E 6C 
01743F 00                  A 11151    	DB	0
017440                     A 11152    L__364:
017440 43686573 73204669   A 11153    	DB	"Chess Fight ver 1.0 for eZ80P."
017448 67687420 76657220 
017450 312E3020 666F7220 
017458 655A3830 502E 
01745E 0A0D00              A 11154    	DB	10,13,0
017461                     A 11155    L__365:
017461 50726F67 72656D6D   A 11156    	DB	"Progremmed by Enzo Antonio Calogiuri."
017469 65642062 7920456E 
017471 7A6F2041 6E746F6E 
017479 696F2043 616C6F67 
017481 69757269 2E 
017486 0A0D00              A 11157    	DB	10,13,0
017489                     A 11158    L__366:
017489 0A0D00              A 11159    	DB	10,13,0
                           A 11160    	SEGMENT CODE
015F1F                     A 11161    _WaitKeyPress:
015F1F DDE5                A 11162    push ix
015F21 3E1D                A 11163    ld a, kr_wait_key
015F23 5BCD200A 00         A 11164    call.lil prose_kernal
015F28 DDE1                A 11165    pop ix
015F2A C9                  A 11166    	RET	
                           A 11167    
                           A 11168    
                           A 11169    ;**************************** _WaitKeyPress ***
                           A 11170    ;Name                         Addr/Register   S
                           A 11171    
Zilog eZ80 Macro Assembler Version 4.1 (10060805) RELISTED26-Aug-11     11:07:39     page: 216


PC     Object              I  Line    Source C:\Users\fog76\Desktop\CHFIGH~2\Debug\main.src
                           A 11172    
                           A 11173    ; Stack Frame Size: 6 (bytes)
                           A 11174    ;       Spill Code: 0 (instruction)
                           A 11175    
                           A 11176    
015F2B                     A 11177    _GetKeyScanCode:
015F2B AF                  A 11178    	XOR	A,A
015F2C 32 B8 7D 01         A 11179    	LD	(_gScanCode),A
015F30 DDE5                A 11180    push ix
015F32 3E1D                A 11181    ld a, kr_wait_key
015F34 5BCD200A 00         A 11182    call.lil prose_kernal
015F39 32 B8 7D 01         A 11183    ld (_gScanCode), a
015F3D DDE1                A 11184    pop ix
015F3F C9                  A 11185    	RET	
                           A 11186    
                           A 11187    
                           A 11188    ;**************************** _GetKeyScanCode *
                           A 11189    ;Name                         Addr/Register   S
                           A 11190    ;_gScanCode                          STATIC    
                           A 11191    
                           A 11192    
                           A 11193    ; Stack Frame Size: 6 (bytes)
                           A 11194    ;       Spill Code: 0 (instruction)
                           A 11195    
                           A 11196    
015F40                     A 11197    _print:
015F40 CD 96 70 01         A 11198    	CALL	__frameset0
015F44 DD0706              A 11199    	LD	BC,(IX+6)
015F47 ED43 39 7D 01       A 11200    	LD	(_TxtPnt),BC
015F4C DDE5                A 11201    push ix
015F4E 2A 39 7D 01         A 11202    ld hl, (_TxtPnt)
015F52 3E25                A 11203    ld a, kr_print_string
015F54 5BCD200A 00         A 11204    call.lil prose_kernal
015F59 DDE1                A 11205    pop ix
015F5B DDF9                A 11206    	LD	SP,IX
015F5D DDE1                A 11207    	POP	IX
015F5F C9                  A 11208    	RET	
                           A 11209    
                           A 11210    
                           A 11211    ;**************************** _print **********
                           A 11212    ;Name                         Addr/Register   S
                           A 11213    ;_TxtPnt                             STATIC    
                           A 11214    ;txt                                   IX+6    
                           A 11215    
                           A 11216    
                           A 11217    ; Stack Frame Size: 9 (bytes)
                           A 11218    ;       Spill Code: 0 (instruction)
                           A 11219    
                           A 11220    
015F60                     A 11221    _Disable_Audio:
015F60 DDE5                A 11222    push ix
015F62 3E46                A 11223    ld a, kr_disable_audio
Zilog eZ80 Macro Assembler Version 4.1 (10060805) RELISTED26-Aug-11     11:07:39     page: 217


PC     Object              I  Line    Source C:\Users\fog76\Desktop\CHFIGH~2\Debug\main.src
015F64 5BCD200A 00         A 11224    call.lil prose_kernal
015F69 DDE1                A 11225    pop ix
015F6B C9                  A 11226    	RET	
                           A 11227    
                           A 11228    
                           A 11229    ;**************************** _Disable_Audio **
                           A 11230    ;Name                         Addr/Register   S
                           A 11231    
                           A 11232    
                           A 11233    ; Stack Frame Size: 6 (bytes)
                           A 11234    ;       Spill Code: 0 (instruction)
                           A 11235    
                           A 11236    
015F6C                     A 11237    _Play_Raw_Audio:
015F6C CD 96 70 01         A 11238    	CALL	__frameset0
015F70 DD0706              A 11239    	LD	BC,(IX+6)
015F73 ED43 3C 7D 01       A 11240    	LD	(_Snd),BC
015F78 DDE5                A 11241    push ix
015F7A 2A 3C 7D 01         A 11242    ld hl, (_Snd)
015F7E 0E11                A 11243    ld c, 11h
015F80 3E45                A 11244    ld a, kr_play_audio
015F82 5BCD200A 00         A 11245    call.lil prose_kernal
015F87 DDE1                A 11246    pop ix
015F89 DDF9                A 11247    	LD	SP,IX
015F8B DDE1                A 11248    	POP	IX
015F8D C9                  A 11249    	RET	
                           A 11250    
                           A 11251    
                           A 11252    ;**************************** _Play_Raw_Audio *
                           A 11253    ;Name                         Addr/Register   S
                           A 11254    ;_Snd                                STATIC    
                           A 11255    ;S                                     IX+6    
                           A 11256    
                           A 11257    
                           A 11258    ; Stack Frame Size: 9 (bytes)
                           A 11259    ;       Spill Code: 0 (instruction)
                           A 11260    
                           A 11261    
015F8E                     A 11262    _Free_All_Mem:
015F8E 21FDFFFF            A 11263    	LD	HL,-3
015F92 CD BF 70 01         A 11264    	CALL	__frameset
015F96 ED4B 6C 7D 01       A 11265    	LD	BC,(_mSelect)
015F9B C5                  A 11266    	PUSH	BC
015F9C CD 11 6E 01         A 11267    	CALL	_free
015FA0 C1                  A 11268    	POP	BC
015FA1 ED4B 6F 7D 01       A 11269    	LD	BC,(_mWhite)
015FA6 C5                  A 11270    	PUSH	BC
015FA7 CD 11 6E 01         A 11271    	CALL	_free
015FAB C1                  A 11272    	POP	BC
015FAC ED4B 72 7D 01       A 11273    	LD	BC,(_mBlack)
015FB1 C5                  A 11274    	PUSH	BC
015FB2 CD 11 6E 01         A 11275    	CALL	_free
Zilog eZ80 Macro Assembler Version 4.1 (10060805) RELISTED26-Aug-11     11:07:39     page: 218


PC     Object              I  Line    Source C:\Users\fog76\Desktop\CHFIGH~2\Debug\main.src
015FB6 C1                  A 11276    	POP	BC
015FB7 ED4B 75 7D 01       A 11277    	LD	BC,(_mNormal)
015FBC C5                  A 11278    	PUSH	BC
015FBD CD 11 6E 01         A 11279    	CALL	_free
015FC1 C1                  A 11280    	POP	BC
015FC2 ED4B 78 7D 01       A 11281    	LD	BC,(_mHard)
015FC7 C5                  A 11282    	PUSH	BC
015FC8 CD 11 6E 01         A 11283    	CALL	_free
015FCC C1                  A 11284    	POP	BC
015FCD ED4B 84 7D 01       A 11285    	LD	BC,(_wSel)
015FD2 C5                  A 11286    	PUSH	BC
015FD3 CD 11 6E 01         A 11287    	CALL	_free
015FD7 C1                  A 11288    	POP	BC
015FD8 ED4B 87 7D 01       A 11289    	LD	BC,(_rSel)
015FDD C5                  A 11290    	PUSH	BC
015FDE CD 11 6E 01         A 11291    	CALL	_free
015FE2 C1                  A 11292    	POP	BC
015FE3 ED4B 8A 7D 01       A 11293    	LD	BC,(_bsel)
015FE8 C5                  A 11294    	PUSH	BC
015FE9 CD 11 6E 01         A 11295    	CALL	_free
015FED C1                  A 11296    	POP	BC
015FEE 01000000            A 11297    	LD	BC,0
015FF2 DD0FFD              A 11298    	LD	(IX+-3),BC
015FF5 18 37               A 11299    	JR	L_605
015FF7                     A 11300    L_603:
015FF7 DD27FD              A 11301    	LD	HL,(IX+-3)
015FFA 29                  A 11302    	ADD	HL,HL
015FFB 29                  A 11303    	ADD	HL,HL
015FFC B7                  A 11304    	OR	A,A
015FFD DD07FD              A 11305    	LD	BC,(IX+-3)
016000 ED42                A 11306    	SBC	HL,BC
016002 01 93 7D 01         A 11307    	LD	BC,_Bianchi
016006 09                  A 11308    	ADD	HL,BC
016007 ED07                A 11309    	LD	BC,(HL)
016009 C5                  A 11310    	PUSH	BC
01600A CD 11 6E 01         A 11311    	CALL	_free
01600E C1                  A 11312    	POP	BC
01600F DD27FD              A 11313    	LD	HL,(IX+-3)
016012 29                  A 11314    	ADD	HL,HL
016013 29                  A 11315    	ADD	HL,HL
016014 B7                  A 11316    	OR	A,A
016015 DD07FD              A 11317    	LD	BC,(IX+-3)
016018 ED42                A 11318    	SBC	HL,BC
01601A 01 A5 7D 01         A 11319    	LD	BC,_Neri
01601E 09                  A 11320    	ADD	HL,BC
01601F ED07                A 11321    	LD	BC,(HL)
016021 C5                  A 11322    	PUSH	BC
016022 CD 11 6E 01         A 11323    	CALL	_free
016026 C1                  A 11324    	POP	BC
016027 DD07FD              A 11325    	LD	BC,(IX+-3)
01602A 03                  A 11326    	INC	BC
01602B DD0FFD              A 11327    	LD	(IX+-3),BC
Zilog eZ80 Macro Assembler Version 4.1 (10060805) RELISTED26-Aug-11     11:07:39     page: 219


PC     Object              I  Line    Source C:\Users\fog76\Desktop\CHFIGH~2\Debug\main.src
01602E                     A 11328    L_605:
01602E 01060000            A 11329    	LD	BC,6
016032 DD27FD              A 11330    	LD	HL,(IX+-3)
016035 B7                  A 11331    	OR	A,A
016036 ED42                A 11332    	SBC	HL,BC
016038 FA F7 5F 01         A 11333    	JP	M,L_603
01603C ED4B 8D 7D 01       A 11334    	LD	BC,(_wPiece)
016041 C5                  A 11335    	PUSH	BC
016042 CD 11 6E 01         A 11336    	CALL	_free
016046 C1                  A 11337    	POP	BC
016047 ED4B 90 7D 01       A 11338    	LD	BC,(_bPiece)
01604C C5                  A 11339    	PUSH	BC
01604D CD 11 6E 01         A 11340    	CALL	_free
016051 C1                  A 11341    	POP	BC
016052 ED4B 7B 7D 01       A 11342    	LD	BC,(_Think)
016057 C5                  A 11343    	PUSH	BC
016058 CD 11 6E 01         A 11344    	CALL	_free
01605C C1                  A 11345    	POP	BC
01605D ED4B 7E 7D 01       A 11346    	LD	BC,(_wPlay)
016062 C5                  A 11347    	PUSH	BC
016063 CD 11 6E 01         A 11348    	CALL	_free
016067 C1                  A 11349    	POP	BC
016068 ED4B 81 7D 01       A 11350    	LD	BC,(_bPlay)
01606D C5                  A 11351    	PUSH	BC
01606E CD 11 6E 01         A 11352    	CALL	_free
016072 C1                  A 11353    	POP	BC
016073 DDF9                A 11354    	LD	SP,IX
016075 DDE1                A 11355    	POP	IX
016077 C9                  A 11356    	RET	
                           A 11357    
                           A 11358    
                           A 11359    ;**************************** _Free_All_Mem ***
                           A 11360    ;Name                         Addr/Register   S
                           A 11361    ;_bPlay                              STATIC    
                           A 11362    ;_wPlay                              STATIC    
                           A 11363    ;_Think                              STATIC    
                           A 11364    ;_bPiece                             STATIC    
                           A 11365    ;_wPiece                             STATIC    
                           A 11366    ;_Neri                               STATIC    
                           A 11367    ;_Bianchi                            STATIC    
                           A 11368    ;_bsel                               STATIC    
                           A 11369    ;_rSel                               STATIC    
                           A 11370    ;_wSel                               STATIC    
                           A 11371    ;_mHard                              STATIC    
                           A 11372    ;_mNormal                            STATIC    
                           A 11373    ;_mBlack                             STATIC    
                           A 11374    ;_mWhite                             STATIC    
                           A 11375    ;_mSelect                            STATIC    
                           A 11376    ;_free                               IMPORT  --
                           A 11377    ;i                                     IX-3    
                           A 11378    
                           A 11379    
Zilog eZ80 Macro Assembler Version 4.1 (10060805) RELISTED26-Aug-11     11:07:39     page: 220


PC     Object              I  Line    Source C:\Users\fog76\Desktop\CHFIGH~2\Debug\main.src
                           A 11380    ; Stack Frame Size: 9 (bytes)
                           A 11381    ;       Spill Code: 0 (instruction)
                           A 11382    
                           A 11383    
016078                     A 11384    _Load_Components:
016078 21F7FFFF            A 11385    	LD	HL,-9
01607C CD BF 70 01         A 11386    	CALL	__frameset
016080 01 8C 74 01         A 11387    	LD	BC,L__375
016084 C5                  A 11388    	PUSH	BC
016085 CD 40 5F 01         A 11389    	CALL	_print
016089 C1                  A 11390    	POP	BC
01608A 01F00000            A 11391    	LD	BC,240
01608E C5                  A 11392    	PUSH	BC
01608F CD 35 6F 01         A 11393    	CALL	_malloc
016093 C1                  A 11394    	POP	BC
016094 22 6C 7D 01         A 11395    	LD	(_mSelect),HL
016098 01F00000            A 11396    	LD	BC,240
01609C C5                  A 11397    	PUSH	BC
01609D ED4B 6C 7D 01       A 11398    	LD	BC,(_mSelect)
0160A2 C5                  A 11399    	PUSH	BC
0160A3 01 A1 74 01         A 11400    	LD	BC,L__376
0160A7 C5                  A 11401    	PUSH	BC
0160A8 CD 5E 00 01         A 11402    	CALL	_Load_Raw_Data
0160AC C1                  A 11403    	POP	BC
0160AD C1                  A 11404    	POP	BC
0160AE C1                  A 11405    	POP	BC
0160AF 01A40100            A 11406    	LD	BC,420
0160B3 C5                  A 11407    	PUSH	BC
0160B4 CD 35 6F 01         A 11408    	CALL	_malloc
0160B8 C1                  A 11409    	POP	BC
0160B9 22 6F 7D 01         A 11410    	LD	(_mWhite),HL
0160BD 01A40100            A 11411    	LD	BC,420
0160C1 C5                  A 11412    	PUSH	BC
0160C2 ED4B 6F 7D 01       A 11413    	LD	BC,(_mWhite)
0160C7 C5                  A 11414    	PUSH	BC
0160C8 01 AA 74 01         A 11415    	LD	BC,L__377
0160CC C5                  A 11416    	PUSH	BC
0160CD CD 5E 00 01         A 11417    	CALL	_Load_Raw_Data
0160D1 C1                  A 11418    	POP	BC
0160D2 C1                  A 11419    	POP	BC
0160D3 C1                  A 11420    	POP	BC
0160D4 01E00100            A 11421    	LD	BC,480
0160D8 C5                  A 11422    	PUSH	BC
0160D9 CD 35 6F 01         A 11423    	CALL	_malloc
0160DD C1                  A 11424    	POP	BC
0160DE 22 72 7D 01         A 11425    	LD	(_mBlack),HL
0160E2 01E00100            A 11426    	LD	BC,480
0160E6 C5                  A 11427    	PUSH	BC
0160E7 ED4B 72 7D 01       A 11428    	LD	BC,(_mBlack)
0160EC C5                  A 11429    	PUSH	BC
0160ED 01 B4 74 01         A 11430    	LD	BC,L__378
0160F1 C5                  A 11431    	PUSH	BC
Zilog eZ80 Macro Assembler Version 4.1 (10060805) RELISTED26-Aug-11     11:07:39     page: 221


PC     Object              I  Line    Source C:\Users\fog76\Desktop\CHFIGH~2\Debug\main.src
0160F2 CD 5E 00 01         A 11432    	CALL	_Load_Raw_Data
0160F6 C1                  A 11433    	POP	BC
0160F7 C1                  A 11434    	POP	BC
0160F8 C1                  A 11435    	POP	BC
0160F9 01440200            A 11436    	LD	BC,580
0160FD C5                  A 11437    	PUSH	BC
0160FE CD 35 6F 01         A 11438    	CALL	_malloc
016102 C1                  A 11439    	POP	BC
016103 22 75 7D 01         A 11440    	LD	(_mNormal),HL
016107 01440200            A 11441    	LD	BC,580
01610B C5                  A 11442    	PUSH	BC
01610C ED4B 75 7D 01       A 11443    	LD	BC,(_mNormal)
016111 C5                  A 11444    	PUSH	BC
016112 01 BE 74 01         A 11445    	LD	BC,L__379
016116 C5                  A 11446    	PUSH	BC
016117 CD 5E 00 01         A 11447    	CALL	_Load_Raw_Data
01611B C1                  A 11448    	POP	BC
01611C C1                  A 11449    	POP	BC
01611D C1                  A 11450    	POP	BC
01611E 017C0100            A 11451    	LD	BC,380
016122 C5                  A 11452    	PUSH	BC
016123 CD 35 6F 01         A 11453    	CALL	_malloc
016127 C1                  A 11454    	POP	BC
016128 22 78 7D 01         A 11455    	LD	(_mHard),HL
01612C 017C0100            A 11456    	LD	BC,380
016130 C5                  A 11457    	PUSH	BC
016131 ED4B 78 7D 01       A 11458    	LD	BC,(_mHard)
016136 C5                  A 11459    	PUSH	BC
016137 01 C9 74 01         A 11460    	LD	BC,L__380
01613B C5                  A 11461    	PUSH	BC
01613C CD 5E 00 01         A 11462    	CALL	_Load_Raw_Data
016140 C1                  A 11463    	POP	BC
016141 C1                  A 11464    	POP	BC
016142 C1                  A 11465    	POP	BC
016143 01710200            A 11466    	LD	BC,625
016147 C5                  A 11467    	PUSH	BC
016148 CD 35 6F 01         A 11468    	CALL	_malloc
01614C C1                  A 11469    	POP	BC
01614D 22 84 7D 01         A 11470    	LD	(_wSel),HL
016151 01710200            A 11471    	LD	BC,625
016155 C5                  A 11472    	PUSH	BC
016156 ED4B 84 7D 01       A 11473    	LD	BC,(_wSel)
01615B C5                  A 11474    	PUSH	BC
01615C 01 D2 74 01         A 11475    	LD	BC,L__381
016160 C5                  A 11476    	PUSH	BC
016161 CD 5E 00 01         A 11477    	CALL	_Load_Raw_Data
016165 C1                  A 11478    	POP	BC
016166 C1                  A 11479    	POP	BC
016167 C1                  A 11480    	POP	BC
016168 01710200            A 11481    	LD	BC,625
01616C C5                  A 11482    	PUSH	BC
01616D CD 35 6F 01         A 11483    	CALL	_malloc
Zilog eZ80 Macro Assembler Version 4.1 (10060805) RELISTED26-Aug-11     11:07:39     page: 222


PC     Object              I  Line    Source C:\Users\fog76\Desktop\CHFIGH~2\Debug\main.src
016171 C1                  A 11484    	POP	BC
016172 22 87 7D 01         A 11485    	LD	(_rSel),HL
016176 01710200            A 11486    	LD	BC,625
01617A C5                  A 11487    	PUSH	BC
01617B ED4B 87 7D 01       A 11488    	LD	BC,(_rSel)
016180 C5                  A 11489    	PUSH	BC
016181 01 DB 74 01         A 11490    	LD	BC,L__382
016185 C5                  A 11491    	PUSH	BC
016186 CD 5E 00 01         A 11492    	CALL	_Load_Raw_Data
01618A C1                  A 11493    	POP	BC
01618B C1                  A 11494    	POP	BC
01618C C1                  A 11495    	POP	BC
01618D 01710200            A 11496    	LD	BC,625
016191 C5                  A 11497    	PUSH	BC
016192 CD 35 6F 01         A 11498    	CALL	_malloc
016196 C1                  A 11499    	POP	BC
016197 22 8A 7D 01         A 11500    	LD	(_bsel),HL
01619B 01000000            A 11501    	LD	BC,0
01619F DD0FFD              A 11502    	LD	(IX+-3),BC
0161A2 18 55               A 11503    	JR	L_611
0161A4                     A 11504    L_609:
0161A4 01FA0100            A 11505    	LD	BC,506
0161A8 C5                  A 11506    	PUSH	BC
0161A9 CD 35 6F 01         A 11507    	CALL	_malloc
0161AD C1                  A 11508    	POP	BC
0161AE E5C1                A 11509    	LD	BC,HL
0161B0 DD27FD              A 11510    	LD	HL,(IX+-3)
0161B3 DD17FD              A 11511    	LD	DE,(IX+-3)
0161B6 DD2FFA              A 11512    	LD	(IX+-6),HL	; spill
0161B9 21FA0100            A 11513    	LD	HL,506
0161BD DD2FF7              A 11514    	LD	(IX+-9),HL	; spill
0161C0 DD27FA              A 11515    	LD	HL,(IX+-6)	; unspill
0161C3 DD2FFA              A 11516    	LD	(IX+-6),HL	; spill
0161C6 DD27F7              A 11517    	LD	HL,(IX+-9)	; unspill
0161C9 E5                  A 11518    	PUSH	HL
0161CA DD27FA              A 11519    	LD	HL,(IX+-6)	; unspill
0161CD 29                  A 11520    	ADD	HL,HL
0161CE 29                  A 11521    	ADD	HL,HL
0161CF B7                  A 11522    	OR	A,A
0161D0 ED52                A 11523    	SBC	HL,DE
0161D2 11 93 7D 01         A 11524    	LD	DE,_Bianchi
0161D6 19                  A 11525    	ADD	HL,DE
0161D7 ED0F                A 11526    	LD	(HL),BC
0161D9 CD 35 6F 01         A 11527    	CALL	_malloc
0161DD C1                  A 11528    	POP	BC
0161DE E5D1                A 11529    	LD	DE,HL
0161E0 DD27FD              A 11530    	LD	HL,(IX+-3)
0161E3 DD07FD              A 11531    	LD	BC,(IX+-3)
0161E6 29                  A 11532    	ADD	HL,HL
0161E7 29                  A 11533    	ADD	HL,HL
0161E8 B7                  A 11534    	OR	A,A
0161E9 ED42                A 11535    	SBC	HL,BC
Zilog eZ80 Macro Assembler Version 4.1 (10060805) RELISTED26-Aug-11     11:07:39     page: 223


PC     Object              I  Line    Source C:\Users\fog76\Desktop\CHFIGH~2\Debug\main.src
0161EB 01 A5 7D 01         A 11536    	LD	BC,_Neri
0161EF 09                  A 11537    	ADD	HL,BC
0161F0 ED1F                A 11538    	LD	(HL),DE
0161F2 DD07FD              A 11539    	LD	BC,(IX+-3)
0161F5 03                  A 11540    	INC	BC
0161F6 DD0FFD              A 11541    	LD	(IX+-3),BC
0161F9                     A 11542    L_611:
0161F9 01060000            A 11543    	LD	BC,6
0161FD DD27FD              A 11544    	LD	HL,(IX+-3)
016200 B7                  A 11545    	OR	A,A
016201 ED42                A 11546    	SBC	HL,BC
016203 FA 0D 62 01         A 11547    	JP	M,L__404
016207 EA A4 61 01         A 11548    	JP	PE,L_609
01620B 18 04               A 11549    	JR	L__405
01620D                     A 11550    L__404:
01620D E2 A4 61 01         A 11551    	JP	PO,L_609
016211                     A 11552    L__405:
016211 01FA0100            A 11553    	LD	BC,506
016215 C5                  A 11554    	PUSH	BC
016216 ED4B 93 7D 01       A 11555    	LD	BC,(_Bianchi)
01621B C5                  A 11556    	PUSH	BC
01621C 01 E4 74 01         A 11557    	LD	BC,L__384
016220 C5                  A 11558    	PUSH	BC
016221 CD 5E 00 01         A 11559    	CALL	_Load_Raw_Data
016225 C1                  A 11560    	POP	BC
016226 C1                  A 11561    	POP	BC
016227 C1                  A 11562    	POP	BC
016228 21 96 7D 01         A 11563    	LD	HL,_Bianchi+3
01622C 01FA0100            A 11564    	LD	BC,506
016230 C5                  A 11565    	PUSH	BC
016231 ED07                A 11566    	LD	BC,(HL)
016233 C5                  A 11567    	PUSH	BC
016234 01 ED 74 01         A 11568    	LD	BC,L__385
016238 C5                  A 11569    	PUSH	BC
016239 CD 5E 00 01         A 11570    	CALL	_Load_Raw_Data
01623D C1                  A 11571    	POP	BC
01623E C1                  A 11572    	POP	BC
01623F C1                  A 11573    	POP	BC
016240 21 99 7D 01         A 11574    	LD	HL,_Bianchi+6
016244 01FA0100            A 11575    	LD	BC,506
016248 C5                  A 11576    	PUSH	BC
016249 ED07                A 11577    	LD	BC,(HL)
01624B C5                  A 11578    	PUSH	BC
01624C 01 F6 74 01         A 11579    	LD	BC,L__386
016250 C5                  A 11580    	PUSH	BC
016251 CD 5E 00 01         A 11581    	CALL	_Load_Raw_Data
016255 C1                  A 11582    	POP	BC
016256 C1                  A 11583    	POP	BC
016257 C1                  A 11584    	POP	BC
016258 21 9C 7D 01         A 11585    	LD	HL,_Bianchi+9
01625C 01FA0100            A 11586    	LD	BC,506
016260 C5                  A 11587    	PUSH	BC
Zilog eZ80 Macro Assembler Version 4.1 (10060805) RELISTED26-Aug-11     11:07:39     page: 224


PC     Object              I  Line    Source C:\Users\fog76\Desktop\CHFIGH~2\Debug\main.src
016261 ED07                A 11588    	LD	BC,(HL)
016263 C5                  A 11589    	PUSH	BC
016264 01 FF 74 01         A 11590    	LD	BC,L__387
016268 C5                  A 11591    	PUSH	BC
016269 CD 5E 00 01         A 11592    	CALL	_Load_Raw_Data
01626D C1                  A 11593    	POP	BC
01626E C1                  A 11594    	POP	BC
01626F C1                  A 11595    	POP	BC
016270 21 9F 7D 01         A 11596    	LD	HL,_Bianchi+12
016274 01FA0100            A 11597    	LD	BC,506
016278 C5                  A 11598    	PUSH	BC
016279 ED07                A 11599    	LD	BC,(HL)
01627B C5                  A 11600    	PUSH	BC
01627C 01 08 75 01         A 11601    	LD	BC,L__388
016280 C5                  A 11602    	PUSH	BC
016281 CD 5E 00 01         A 11603    	CALL	_Load_Raw_Data
016285 C1                  A 11604    	POP	BC
016286 C1                  A 11605    	POP	BC
016287 C1                  A 11606    	POP	BC
016288 21 A2 7D 01         A 11607    	LD	HL,_Bianchi+15
01628C 01FA0100            A 11608    	LD	BC,506
016290 C5                  A 11609    	PUSH	BC
016291 ED07                A 11610    	LD	BC,(HL)
016293 C5                  A 11611    	PUSH	BC
016294 01 11 75 01         A 11612    	LD	BC,L__389
016298 C5                  A 11613    	PUSH	BC
016299 CD 5E 00 01         A 11614    	CALL	_Load_Raw_Data
01629D C1                  A 11615    	POP	BC
01629E C1                  A 11616    	POP	BC
01629F C1                  A 11617    	POP	BC
0162A0 01FA0100            A 11618    	LD	BC,506
0162A4 C5                  A 11619    	PUSH	BC
0162A5 ED4B A5 7D 01       A 11620    	LD	BC,(_Neri)
0162AA C5                  A 11621    	PUSH	BC
0162AB 01 19 75 01         A 11622    	LD	BC,L__390
0162AF C5                  A 11623    	PUSH	BC
0162B0 CD 5E 00 01         A 11624    	CALL	_Load_Raw_Data
0162B4 C1                  A 11625    	POP	BC
0162B5 C1                  A 11626    	POP	BC
0162B6 C1                  A 11627    	POP	BC
0162B7 21 A8 7D 01         A 11628    	LD	HL,_Neri+3
0162BB 01FA0100            A 11629    	LD	BC,506
0162BF C5                  A 11630    	PUSH	BC
0162C0 ED07                A 11631    	LD	BC,(HL)
0162C2 C5                  A 11632    	PUSH	BC
0162C3 01 22 75 01         A 11633    	LD	BC,L__391
0162C7 C5                  A 11634    	PUSH	BC
0162C8 CD 5E 00 01         A 11635    	CALL	_Load_Raw_Data
0162CC C1                  A 11636    	POP	BC
0162CD C1                  A 11637    	POP	BC
0162CE C1                  A 11638    	POP	BC
0162CF 21 AB 7D 01         A 11639    	LD	HL,_Neri+6
Zilog eZ80 Macro Assembler Version 4.1 (10060805) RELISTED26-Aug-11     11:07:39     page: 225


PC     Object              I  Line    Source C:\Users\fog76\Desktop\CHFIGH~2\Debug\main.src
0162D3 01FA0100            A 11640    	LD	BC,506
0162D7 C5                  A 11641    	PUSH	BC
0162D8 ED07                A 11642    	LD	BC,(HL)
0162DA C5                  A 11643    	PUSH	BC
0162DB 01 2B 75 01         A 11644    	LD	BC,L__392
0162DF C5                  A 11645    	PUSH	BC
0162E0 CD 5E 00 01         A 11646    	CALL	_Load_Raw_Data
0162E4 C1                  A 11647    	POP	BC
0162E5 C1                  A 11648    	POP	BC
0162E6 C1                  A 11649    	POP	BC
0162E7 21 AE 7D 01         A 11650    	LD	HL,_Neri+9
0162EB 01FA0100            A 11651    	LD	BC,506
0162EF C5                  A 11652    	PUSH	BC
0162F0 ED07                A 11653    	LD	BC,(HL)
0162F2 C5                  A 11654    	PUSH	BC
0162F3 01 34 75 01         A 11655    	LD	BC,L__393
0162F7 C5                  A 11656    	PUSH	BC
0162F8 CD 5E 00 01         A 11657    	CALL	_Load_Raw_Data
0162FC C1                  A 11658    	POP	BC
0162FD C1                  A 11659    	POP	BC
0162FE C1                  A 11660    	POP	BC
0162FF 21 B1 7D 01         A 11661    	LD	HL,_Neri+12
016303 01FA0100            A 11662    	LD	BC,506
016307 C5                  A 11663    	PUSH	BC
016308 ED07                A 11664    	LD	BC,(HL)
01630A C5                  A 11665    	PUSH	BC
01630B 01 3D 75 01         A 11666    	LD	BC,L__394
01630F C5                  A 11667    	PUSH	BC
016310 CD 5E 00 01         A 11668    	CALL	_Load_Raw_Data
016314 C1                  A 11669    	POP	BC
016315 C1                  A 11670    	POP	BC
016316 C1                  A 11671    	POP	BC
016317 21 B4 7D 01         A 11672    	LD	HL,_Neri+15
01631B 01FA0100            A 11673    	LD	BC,506
01631F C5                  A 11674    	PUSH	BC
016320 ED07                A 11675    	LD	BC,(HL)
016322 C5                  A 11676    	PUSH	BC
016323 01 46 75 01         A 11677    	LD	BC,L__395
016327 C5                  A 11678    	PUSH	BC
016328 CD 5E 00 01         A 11679    	CALL	_Load_Raw_Data
01632C C1                  A 11680    	POP	BC
01632D C1                  A 11681    	POP	BC
01632E C1                  A 11682    	POP	BC
01632F 01710200            A 11683    	LD	BC,625
016333 C5                  A 11684    	PUSH	BC
016334 CD 35 6F 01         A 11685    	CALL	_malloc
016338 C1                  A 11686    	POP	BC
016339 22 8D 7D 01         A 11687    	LD	(_wPiece),HL
01633D 01710200            A 11688    	LD	BC,625
016341 C5                  A 11689    	PUSH	BC
016342 ED4B 8D 7D 01       A 11690    	LD	BC,(_wPiece)
016347 C5                  A 11691    	PUSH	BC
Zilog eZ80 Macro Assembler Version 4.1 (10060805) RELISTED26-Aug-11     11:07:39     page: 226


PC     Object              I  Line    Source C:\Users\fog76\Desktop\CHFIGH~2\Debug\main.src
016348 01 4E 75 01         A 11692    	LD	BC,L__396
01634C C5                  A 11693    	PUSH	BC
01634D CD 5E 00 01         A 11694    	CALL	_Load_Raw_Data
016351 C1                  A 11695    	POP	BC
016352 C1                  A 11696    	POP	BC
016353 C1                  A 11697    	POP	BC
016354 01710200            A 11698    	LD	BC,625
016358 C5                  A 11699    	PUSH	BC
016359 CD 35 6F 01         A 11700    	CALL	_malloc
01635D C1                  A 11701    	POP	BC
01635E 22 90 7D 01         A 11702    	LD	(_bPiece),HL
016362 01710200            A 11703    	LD	BC,625
016366 C5                  A 11704    	PUSH	BC
016367 ED4B 90 7D 01       A 11705    	LD	BC,(_bPiece)
01636C C5                  A 11706    	PUSH	BC
01636D 01 59 75 01         A 11707    	LD	BC,L__397
016371 C5                  A 11708    	PUSH	BC
016372 CD 5E 00 01         A 11709    	CALL	_Load_Raw_Data
016376 C1                  A 11710    	POP	BC
016377 C1                  A 11711    	POP	BC
016378 C1                  A 11712    	POP	BC
016379 01FC0300            A 11713    	LD	BC,1020
01637D C5                  A 11714    	PUSH	BC
01637E CD 35 6F 01         A 11715    	CALL	_malloc
016382 C1                  A 11716    	POP	BC
016383 22 7B 7D 01         A 11717    	LD	(_Think),HL
016387 01FC0300            A 11718    	LD	BC,1020
01638B C5                  A 11719    	PUSH	BC
01638C ED4B 7B 7D 01       A 11720    	LD	BC,(_Think)
016391 C5                  A 11721    	PUSH	BC
016392 01 64 75 01         A 11722    	LD	BC,L__398
016396 C5                  A 11723    	PUSH	BC
016397 CD 5E 00 01         A 11724    	CALL	_Load_Raw_Data
01639B C1                  A 11725    	POP	BC
01639C C1                  A 11726    	POP	BC
01639D C1                  A 11727    	POP	BC
01639E 01A40100            A 11728    	LD	BC,420
0163A2 C5                  A 11729    	PUSH	BC
0163A3 CD 35 6F 01         A 11730    	CALL	_malloc
0163A7 C1                  A 11731    	POP	BC
0163A8 22 7E 7D 01         A 11732    	LD	(_wPlay),HL
0163AC 01A40100            A 11733    	LD	BC,420
0163B0 C5                  A 11734    	PUSH	BC
0163B1 ED4B 7E 7D 01       A 11735    	LD	BC,(_wPlay)
0163B6 C5                  A 11736    	PUSH	BC
0163B7 01 6F 75 01         A 11737    	LD	BC,L__399
0163BB C5                  A 11738    	PUSH	BC
0163BC CD 5E 00 01         A 11739    	CALL	_Load_Raw_Data
0163C0 C1                  A 11740    	POP	BC
0163C1 C1                  A 11741    	POP	BC
0163C2 C1                  A 11742    	POP	BC
0163C3 01E00100            A 11743    	LD	BC,480
Zilog eZ80 Macro Assembler Version 4.1 (10060805) RELISTED26-Aug-11     11:07:39     page: 227


PC     Object              I  Line    Source C:\Users\fog76\Desktop\CHFIGH~2\Debug\main.src
0163C7 C5                  A 11744    	PUSH	BC
0163C8 CD 35 6F 01         A 11745    	CALL	_malloc
0163CC C1                  A 11746    	POP	BC
0163CD 22 81 7D 01         A 11747    	LD	(_bPlay),HL
0163D1 01E00100            A 11748    	LD	BC,480
0163D5 C5                  A 11749    	PUSH	BC
0163D6 ED4B 81 7D 01       A 11750    	LD	BC,(_bPlay)
0163DB C5                  A 11751    	PUSH	BC
0163DC 01 7A 75 01         A 11752    	LD	BC,L__400
0163E0 C5                  A 11753    	PUSH	BC
0163E1 CD 5E 00 01         A 11754    	CALL	_Load_Raw_Data
0163E5 C1                  A 11755    	POP	BC
0163E6 C1                  A 11756    	POP	BC
0163E7 C1                  A 11757    	POP	BC
0163E8 01042400            A 11758    	LD	BC,9220
0163EC C5                  A 11759    	PUSH	BC
0163ED 010000C0            A 11760    	LD	BC,12582912
0163F1 C5                  A 11761    	PUSH	BC
0163F2 01 85 75 01         A 11762    	LD	BC,L__401
0163F6 C5                  A 11763    	PUSH	BC
0163F7 CD 5E 00 01         A 11764    	CALL	_Load_Raw_Data
0163FB C1                  A 11765    	POP	BC
0163FC C1                  A 11766    	POP	BC
0163FD C1                  A 11767    	POP	BC
0163FE 018D0900            A 11768    	LD	BC,2445
016402 C5                  A 11769    	PUSH	BC
016403 01003CC0            A 11770    	LD	BC,12598272
016407 C5                  A 11771    	PUSH	BC
016408 01 8F 75 01         A 11772    	LD	BC,L__402
01640C C5                  A 11773    	PUSH	BC
01640D CD 5E 00 01         A 11774    	CALL	_Load_Raw_Data
016411 C1                  A 11775    	POP	BC
016412 C1                  A 11776    	POP	BC
016413 C1                  A 11777    	POP	BC
016414 01EF0C00            A 11778    	LD	BC,3311
016418 C5                  A 11779    	PUSH	BC
016419 010064C0            A 11780    	LD	BC,12608512
01641D C5                  A 11781    	PUSH	BC
01641E 01 98 75 01         A 11782    	LD	BC,L__403
016422 C5                  A 11783    	PUSH	BC
016423 CD 5E 00 01         A 11784    	CALL	_Load_Raw_Data
016427 C1                  A 11785    	POP	BC
016428 C1                  A 11786    	POP	BC
016429 C1                  A 11787    	POP	BC
01642A 010000C0            A 11788    	LD	BC,12582912
01642E ED43 3F 7D 01       A 11789    	LD	(_Click),BC
016433 01042400            A 11790    	LD	BC,9220
016437 ED43 42 7D 01       A 11791    	LD	(_Click+3),BC
01643C 010000C0            A 11792    	LD	BC,12582912
016440 ED43 45 7D 01       A 11793    	LD	(_Click+6),BC
016445 01010000            A 11794    	LD	BC,1
016449 ED43 48 7D 01       A 11795    	LD	(_Click+9),BC
Zilog eZ80 Macro Assembler Version 4.1 (10060805) RELISTED26-Aug-11     11:07:39     page: 228


PC     Object              I  Line    Source C:\Users\fog76\Desktop\CHFIGH~2\Debug\main.src
01644E 21 4B 7D 01         A 11796    	LD	HL,_Click+12
016452 36A3                A 11797    	LD	(HL),163
016454 23                  A 11798    	INC	HL
016455 3673                A 11799    	LD	(HL),115
016457 3E54                A 11800    	LD	A,84
016459 32 4D 7D 01         A 11801    	LD	(_Click+14),A
01645D 01003CC0            A 11802    	LD	BC,12598272
016461 ED43 4E 7D 01       A 11803    	LD	(_Chs1),BC
016466 018D0900            A 11804    	LD	BC,2445
01646A ED43 51 7D 01       A 11805    	LD	(_Chs1+3),BC
01646F 01003CC0            A 11806    	LD	BC,12598272
016473 ED43 54 7D 01       A 11807    	LD	(_Chs1+6),BC
016478 01010000            A 11808    	LD	BC,1
01647C ED43 57 7D 01       A 11809    	LD	(_Chs1+9),BC
016481 21 5A 7D 01         A 11810    	LD	HL,_Chs1+12
016485 36A3                A 11811    	LD	(HL),163
016487 23                  A 11812    	INC	HL
016488 3673                A 11813    	LD	(HL),115
01648A 32 5C 7D 01         A 11814    	LD	(_Chs1+14),A
01648E 010064C0            A 11815    	LD	BC,12608512
016492 ED43 5D 7D 01       A 11816    	LD	(_Chs2),BC
016497 01EF0C00            A 11817    	LD	BC,3311
01649B ED43 60 7D 01       A 11818    	LD	(_Chs2+3),BC
0164A0 010064C0            A 11819    	LD	BC,12608512
0164A4 ED43 63 7D 01       A 11820    	LD	(_Chs2+6),BC
0164A9 01010000            A 11821    	LD	BC,1
0164AD ED43 66 7D 01       A 11822    	LD	(_Chs2+9),BC
0164B2 21 69 7D 01         A 11823    	LD	HL,_Chs2+12
0164B6 36A3                A 11824    	LD	(HL),163
0164B8 23                  A 11825    	INC	HL
0164B9 3673                A 11826    	LD	(HL),115
0164BB 32 6B 7D 01         A 11827    	LD	(_Chs2+14),A
0164BF DDF9                A 11828    	LD	SP,IX
0164C1 DDE1                A 11829    	POP	IX
0164C3 C9                  A 11830    	RET	
                           A 11831    
                           A 11832    
                           A 11833    ;**************************** _Load_Components 
                           A 11834    ;Name                         Addr/Register   S
                           A 11835    ;_Chs2                               STATIC    
                           A 11836    ;_Chs1                               STATIC    
                           A 11837    ;_Click                              STATIC    
                           A 11838    ;_bPlay                              STATIC    
                           A 11839    ;_wPlay                              STATIC    
                           A 11840    ;_Think                              STATIC    
                           A 11841    ;_bPiece                             STATIC    
                           A 11842    ;_wPiece                             STATIC    
                           A 11843    ;_Neri                               STATIC    
                           A 11844    ;_Bianchi                            STATIC    
                           A 11845    ;_bsel                               STATIC    
                           A 11846    ;_rSel                               STATIC    
                           A 11847    ;_wSel                               STATIC    
Zilog eZ80 Macro Assembler Version 4.1 (10060805) RELISTED26-Aug-11     11:07:39     page: 229


PC     Object              I  Line    Source C:\Users\fog76\Desktop\CHFIGH~2\Debug\main.src
                           A 11848    ;_mHard                              STATIC    
                           A 11849    ;_mNormal                            STATIC    
                           A 11850    ;_mBlack                             STATIC    
                           A 11851    ;_mWhite                             STATIC    
                           A 11852    ;_Load_Raw_Data                      IMPORT  --
                           A 11853    ;_mSelect                            STATIC    
                           A 11854    ;_malloc                             IMPORT  --
                           A 11855    ;_print                              IMPORT  --
                           A 11856    ;i                                     IX-3    
                           A 11857    
                           A 11858    
                           A 11859    ; Stack Frame Size: 15 (bytes)
                           A 11860    ;       Spill Code: 6 (instruction)
                           A 11861    
                           A 11862    
                           A 11863    	SEGMENT STRSECT
01748C                     A 11864    L__375:
01748C 0A0D                A 11865    	DB	10,13
01748E 204C6F61 64696E67   A 11866    	DB	" Loading data..."
017496 20646174 612E2E2E 
01749E 0A0D00              A 11867    	DB	10,13,0
0174A1                     A 11868    L__376:
0174A1 6D73656C 2E726177   A 11869    	DB	"msel.raw"
0174A9 00                  A 11870    	DB	0
0174AA                     A 11871    L__377:
0174AA 77686974 652E7261   A 11872    	DB	"white.raw"
0174B2 77 
0174B3 00                  A 11873    	DB	0
0174B4                     A 11874    L__378:
0174B4 626C6163 6B2E7261   A 11875    	DB	"black.raw"
0174BC 77 
0174BD 00                  A 11876    	DB	0
0174BE                     A 11877    L__379:
0174BE 6E6F726D 616C2E72   A 11878    	DB	"normal.raw"
0174C6 6177 
0174C8 00                  A 11879    	DB	0
0174C9                     A 11880    L__380:
0174C9 68617264 2E726177   A 11881    	DB	"hard.raw"
0174D1 00                  A 11882    	DB	0
0174D2                     A 11883    L__381:
0174D2 6273656C 2E726177   A 11884    	DB	"bsel.raw"
0174DA 00                  A 11885    	DB	0
0174DB                     A 11886    L__382:
0174DB 7273656C 2E726177   A 11887    	DB	"rsel.raw"
0174E3 00                  A 11888    	DB	0
0174E4                     A 11889    L__384:
0174E4 62706564 2E726177   A 11890    	DB	"bped.raw"
0174EC 00                  A 11891    	DB	0
0174ED                     A 11892    L__385:
0174ED 62636176 2E726177   A 11893    	DB	"bcav.raw"
0174F5 00                  A 11894    	DB	0
0174F6                     A 11895    L__386:
Zilog eZ80 Macro Assembler Version 4.1 (10060805) RELISTED26-Aug-11     11:07:39     page: 230


PC     Object              I  Line    Source C:\Users\fog76\Desktop\CHFIGH~2\Debug\main.src
0174F6 62616C66 2E726177   A 11896    	DB	"balf.raw"
0174FE 00                  A 11897    	DB	0
0174FF                     A 11898    L__387:
0174FF 62746F72 2E726177   A 11899    	DB	"btor.raw"
017507 00                  A 11900    	DB	0
017508                     A 11901    L__388:
017508 62726567 2E726177   A 11902    	DB	"breg.raw"
017510 00                  A 11903    	DB	0
017511                     A 11904    L__389:
017511 6272652E 726177     A 11905    	DB	"bre.raw"
017518 00                  A 11906    	DB	0
017519                     A 11907    L__390:
017519 6E706564 2E726177   A 11908    	DB	"nped.raw"
017521 00                  A 11909    	DB	0
017522                     A 11910    L__391:
017522 6E636176 2E726177   A 11911    	DB	"ncav.raw"
01752A 00                  A 11912    	DB	0
01752B                     A 11913    L__392:
01752B 6E616C66 2E726177   A 11914    	DB	"nalf.raw"
017533 00                  A 11915    	DB	0
017534                     A 11916    L__393:
017534 6E746F72 2E726177   A 11917    	DB	"ntor.raw"
01753C 00                  A 11918    	DB	0
01753D                     A 11919    L__394:
01753D 6E726567 2E726177   A 11920    	DB	"nreg.raw"
017545 00                  A 11921    	DB	0
017546                     A 11922    L__395:
017546 6E72652E 726177     A 11923    	DB	"nre.raw"
01754D 00                  A 11924    	DB	0
01754E                     A 11925    L__396:
01754E 77706965 63652E72   A 11926    	DB	"wpiece.raw"
017556 6177 
017558 00                  A 11927    	DB	0
017559                     A 11928    L__397:
017559 62706965 63652E72   A 11929    	DB	"bpiece.raw"
017561 6177 
017563 00                  A 11930    	DB	0
017564                     A 11931    L__398:
017564 70746869 6E6B2E72   A 11932    	DB	"pthink.raw"
01756C 6177 
01756E 00                  A 11933    	DB	0
01756F                     A 11934    L__399:
01756F 70776869 74652E72   A 11935    	DB	"pwhite.raw"
017577 6177 
017579 00                  A 11936    	DB	0
01757A                     A 11937    L__400:
01757A 70626C61 636B2E72   A 11938    	DB	"pblack.raw"
017582 6177 
017584 00                  A 11939    	DB	0
017585                     A 11940    L__401:
017585 636C6963 6B2E736E   A 11941    	DB	"click.snd"
01758D 64 
Zilog eZ80 Macro Assembler Version 4.1 (10060805) RELISTED26-Aug-11     11:07:39     page: 231


PC     Object              I  Line    Source C:\Users\fog76\Desktop\CHFIGH~2\Debug\main.src
01758E 00                  A 11942    	DB	0
01758F                     A 11943    L__402:
01758F 63687331 2E736E64   A 11944    	DB	"chs1.snd"
017597 00                  A 11945    	DB	0
017598                     A 11946    L__403:
017598 63687332 2E736E64   A 11947    	DB	"chs2.snd"
0175A0 00                  A 11948    	DB	0
                           A 11949    	SEGMENT CODE
0164C4                     A 11950    _Draw_Image:
0164C4 21F7FFFF            A 11951    	LD	HL,-9
0164C8 CD BF 70 01         A 11952    	CALL	__frameset
0164CC DD0709              A 11953    	LD	BC,(IX+9)
0164CF DD0FFA              A 11954    	LD	(IX+-6),BC
0164D2 18 56               A 11955    	JR	L_622
0164D4                     A 11956    L_620:
0164D4 DD0706              A 11957    	LD	BC,(IX+6)
0164D7 DD0FFD              A 11958    	LD	(IX+-3),BC
0164DA 18 2A               A 11959    	JR	L_619
0164DC                     A 11960    L_617:
0164DC DD0712              A 11961    	LD	BC,(IX+18)
0164DF DD0FF7              A 11962    	LD	(IX+-9),BC
0164E2 DD0712              A 11963    	LD	BC,(IX+18)
0164E5 03                  A 11964    	INC	BC
0164E6 DD0F12              A 11965    	LD	(IX+18),BC
0164E9 DD27F7              A 11966    	LD	HL,(IX+-9)
0164EC 4E                  A 11967    	LD	C,(HL)
0164ED 0600                A 11968    	LD	B,0
0164EF C5                  A 11969    	PUSH	BC
0164F0 DD07FA              A 11970    	LD	BC,(IX+-6)
0164F3 C5                  A 11971    	PUSH	BC
0164F4 DD07FD              A 11972    	LD	BC,(IX+-3)
0164F7 C5                  A 11973    	PUSH	BC
0164F8 CD 0B 01 01         A 11974    	CALL	_PutPixel
0164FC C1                  A 11975    	POP	BC
0164FD C1                  A 11976    	POP	BC
0164FE C1                  A 11977    	POP	BC
0164FF DD07FD              A 11978    	LD	BC,(IX+-3)
016502 03                  A 11979    	INC	BC
016503 DD0FFD              A 11980    	LD	(IX+-3),BC
016506                     A 11981    L_619:
016506 DD070C              A 11982    	LD	BC,(IX+12)
016509 DD2706              A 11983    	LD	HL,(IX+6)
01650C 09                  A 11984    	ADD	HL,BC
01650D E5C1                A 11985    	LD	BC,HL
01650F DD27FD              A 11986    	LD	HL,(IX+-3)
016512 B7                  A 11987    	OR	A,A
016513 ED42                A 11988    	SBC	HL,BC
016515 FA 1F 65 01         A 11989    	JP	M,L__409
016519 EA DC 64 01         A 11990    	JP	PE,L_617
01651D 18 04               A 11991    	JR	L__410
01651F                     A 11992    L__409:
01651F E2 DC 64 01         A 11993    	JP	PO,L_617
Zilog eZ80 Macro Assembler Version 4.1 (10060805) RELISTED26-Aug-11     11:07:39     page: 232


PC     Object              I  Line    Source C:\Users\fog76\Desktop\CHFIGH~2\Debug\main.src
016523                     A 11994    L__410:
016523 DD07FA              A 11995    	LD	BC,(IX+-6)
016526 03                  A 11996    	INC	BC
016527 DD0FFA              A 11997    	LD	(IX+-6),BC
01652A                     A 11998    L_622:
01652A DD070F              A 11999    	LD	BC,(IX+15)
01652D DD2709              A 12000    	LD	HL,(IX+9)
016530 09                  A 12001    	ADD	HL,BC
016531 E5C1                A 12002    	LD	BC,HL
016533 DD27FA              A 12003    	LD	HL,(IX+-6)
016536 B7                  A 12004    	OR	A,A
016537 ED42                A 12005    	SBC	HL,BC
016539 FA 43 65 01         A 12006    	JP	M,L__411
01653D EA D4 64 01         A 12007    	JP	PE,L_620
016541 18 04               A 12008    	JR	L__412
016543                     A 12009    L__411:
016543 E2 D4 64 01         A 12010    	JP	PO,L_620
016547                     A 12011    L__412:
016547 DDF9                A 12012    	LD	SP,IX
016549 DDE1                A 12013    	POP	IX
01654B C9                  A 12014    	RET	
                           A 12015    
                           A 12016    
                           A 12017    ;**************************** _Draw_Image *****
                           A 12018    ;Name                         Addr/Register   S
                           A 12019    ;_PutPixel                           STATIC  --
                           A 12020    ;y                                     IX-6    
                           A 12021    ;x                                     IX-3    
                           A 12022    ;ImgBuf                               IX+18    
                           A 12023    ;H                                    IX+15    
                           A 12024    ;W                                    IX+12    
                           A 12025    ;PosY                                  IX+9    
                           A 12026    ;PosX                                  IX+6    
                           A 12027    
                           A 12028    
                           A 12029    ; Stack Frame Size: 30 (bytes)
                           A 12030    ;       Spill Code: 0 (instruction)
                           A 12031    
                           A 12032    
01654C                     A 12033    _Draw_Trans_Image:
01654C 21FAFFFF            A 12034    	LD	HL,-6
016550 CD BF 70 01         A 12035    	CALL	__frameset
016554 DD0709              A 12036    	LD	BC,(IX+9)
016557 DD0FFA              A 12037    	LD	(IX+-6),BC
01655A 18 6B               A 12038    	JR	L_634
01655C                     A 12039    L_632:
01655C DD0706              A 12040    	LD	BC,(IX+6)
01655F DD0FFD              A 12041    	LD	(IX+-3),BC
016562 18 3F               A 12042    	JR	L_631
016564                     A 12043    L_629:
016564 DD2712              A 12044    	LD	HL,(IX+18)
016567 7E                  A 12045    	LD	A,(HL)
Zilog eZ80 Macro Assembler Version 4.1 (10060805) RELISTED26-Aug-11     11:07:39     page: 233


PC     Object              I  Line    Source C:\Users\fog76\Desktop\CHFIGH~2\Debug\main.src
016568 47                  A 12046    	LD	B,A
016569 17ED62              A 12047    	SEXT	HL
01656C 68                  A 12048    	LD	L,B
01656D E5C1                A 12049    	LD	BC,HL
01656F DD7E15              A 12050    	LD	A,(IX+21)
016572 B7ED62              A 12051    	UEXT	HL
016575 6F                  A 12052    	LD	L,A
016576 E5D1                A 12053    	LD	DE,HL
016578 C5E1                A 12054    	LD	HL,BC
01657A B7                  A 12055    	OR	A,A
01657B ED52                A 12056    	SBC	HL,DE
01657D 28 16               A 12057    	JR	Z,L_628
01657F DD2712              A 12058    	LD	HL,(IX+18)
016582 4E                  A 12059    	LD	C,(HL)
016583 0600                A 12060    	LD	B,0
016585 C5                  A 12061    	PUSH	BC
016586 DD07FA              A 12062    	LD	BC,(IX+-6)
016589 C5                  A 12063    	PUSH	BC
01658A DD07FD              A 12064    	LD	BC,(IX+-3)
01658D C5                  A 12065    	PUSH	BC
01658E CD 0B 01 01         A 12066    	CALL	_PutPixel
016592 C1                  A 12067    	POP	BC
016593 C1                  A 12068    	POP	BC
016594 C1                  A 12069    	POP	BC
016595                     A 12070    L_628:
016595 DD0712              A 12071    	LD	BC,(IX+18)
016598 03                  A 12072    	INC	BC
016599 DD0F12              A 12073    	LD	(IX+18),BC
01659C DD07FD              A 12074    	LD	BC,(IX+-3)
01659F 03                  A 12075    	INC	BC
0165A0 DD0FFD              A 12076    	LD	(IX+-3),BC
0165A3                     A 12077    L_631:
0165A3 DD070C              A 12078    	LD	BC,(IX+12)
0165A6 DD2706              A 12079    	LD	HL,(IX+6)
0165A9 09                  A 12080    	ADD	HL,BC
0165AA E5C1                A 12081    	LD	BC,HL
0165AC DD27FD              A 12082    	LD	HL,(IX+-3)
0165AF B7                  A 12083    	OR	A,A
0165B0 ED42                A 12084    	SBC	HL,BC
0165B2 FA BC 65 01         A 12085    	JP	M,L__417
0165B6 EA 64 65 01         A 12086    	JP	PE,L_629
0165BA 18 04               A 12087    	JR	L__418
0165BC                     A 12088    L__417:
0165BC E2 64 65 01         A 12089    	JP	PO,L_629
0165C0                     A 12090    L__418:
0165C0 DD07FA              A 12091    	LD	BC,(IX+-6)
0165C3 03                  A 12092    	INC	BC
0165C4 DD0FFA              A 12093    	LD	(IX+-6),BC
0165C7                     A 12094    L_634:
0165C7 DD070F              A 12095    	LD	BC,(IX+15)
0165CA DD2709              A 12096    	LD	HL,(IX+9)
0165CD 09                  A 12097    	ADD	HL,BC
Zilog eZ80 Macro Assembler Version 4.1 (10060805) RELISTED26-Aug-11     11:07:39     page: 234


PC     Object              I  Line    Source C:\Users\fog76\Desktop\CHFIGH~2\Debug\main.src
0165CE E5C1                A 12098    	LD	BC,HL
0165D0 DD27FA              A 12099    	LD	HL,(IX+-6)
0165D3 B7                  A 12100    	OR	A,A
0165D4 ED42                A 12101    	SBC	HL,BC
0165D6 FA E0 65 01         A 12102    	JP	M,L__419
0165DA EA 5C 65 01         A 12103    	JP	PE,L_632
0165DE 18 04               A 12104    	JR	L__420
0165E0                     A 12105    L__419:
0165E0 E2 5C 65 01         A 12106    	JP	PO,L_632
0165E4                     A 12107    L__420:
0165E4 DDF9                A 12108    	LD	SP,IX
0165E6 DDE1                A 12109    	POP	IX
0165E8 C9                  A 12110    	RET	
                           A 12111    
                           A 12112    
                           A 12113    ;**************************** _Draw_Trans_Image
                           A 12114    ;Name                         Addr/Register   S
                           A 12115    ;_PutPixel                           STATIC  --
                           A 12116    ;y                                     IX-6    
                           A 12117    ;x                                     IX-3    
                           A 12118    ;Trans                                IX+21    
                           A 12119    ;ImgBuf                               IX+18    
                           A 12120    ;H                                    IX+15    
                           A 12121    ;W                                    IX+12    
                           A 12122    ;PosY                                  IX+9    
                           A 12123    ;PosX                                  IX+6    
                           A 12124    
                           A 12125    
                           A 12126    ; Stack Frame Size: 30 (bytes)
                           A 12127    ;       Spill Code: 0 (instruction)
                           A 12128    
                           A 12129    
0165E9                     A 12130    _Fill_Rectangle:
0165E9 21FAFFFF            A 12131    	LD	HL,-6
0165ED CD BF 70 01         A 12132    	CALL	__frameset
0165F1 DD0709              A 12133    	LD	BC,(IX+9)
0165F4 DD0FFA              A 12134    	LD	(IX+-6),BC
0165F7 18 48               A 12135    	JR	L_643
0165F9                     A 12136    L_641:
0165F9 DD0706              A 12137    	LD	BC,(IX+6)
0165FC DD0FFD              A 12138    	LD	(IX+-3),BC
0165FF 18 1C               A 12139    	JR	L_640
016601                     A 12140    L_638:
016601 DD4E12              A 12141    	LD	C,(IX+18)
016604 0600                A 12142    	LD	B,0
016606 C5                  A 12143    	PUSH	BC
016607 DD07FA              A 12144    	LD	BC,(IX+-6)
01660A C5                  A 12145    	PUSH	BC
01660B DD07FD              A 12146    	LD	BC,(IX+-3)
01660E C5                  A 12147    	PUSH	BC
01660F CD 0B 01 01         A 12148    	CALL	_PutPixel
016613 C1                  A 12149    	POP	BC
Zilog eZ80 Macro Assembler Version 4.1 (10060805) RELISTED26-Aug-11     11:07:39     page: 235


PC     Object              I  Line    Source C:\Users\fog76\Desktop\CHFIGH~2\Debug\main.src
016614 C1                  A 12150    	POP	BC
016615 C1                  A 12151    	POP	BC
016616 DD07FD              A 12152    	LD	BC,(IX+-3)
016619 03                  A 12153    	INC	BC
01661A DD0FFD              A 12154    	LD	(IX+-3),BC
01661D                     A 12155    L_640:
01661D DD070C              A 12156    	LD	BC,(IX+12)
016620 DD2706              A 12157    	LD	HL,(IX+6)
016623 09                  A 12158    	ADD	HL,BC
016624 E5C1                A 12159    	LD	BC,HL
016626 DD27FD              A 12160    	LD	HL,(IX+-3)
016629 B7                  A 12161    	OR	A,A
01662A ED42                A 12162    	SBC	HL,BC
01662C FA 36 66 01         A 12163    	JP	M,L__424
016630 EA 01 66 01         A 12164    	JP	PE,L_638
016634 18 04               A 12165    	JR	L__425
016636                     A 12166    L__424:
016636 E2 01 66 01         A 12167    	JP	PO,L_638
01663A                     A 12168    L__425:
01663A DD07FA              A 12169    	LD	BC,(IX+-6)
01663D 03                  A 12170    	INC	BC
01663E DD0FFA              A 12171    	LD	(IX+-6),BC
016641                     A 12172    L_643:
016641 DD070F              A 12173    	LD	BC,(IX+15)
016644 DD2709              A 12174    	LD	HL,(IX+9)
016647 09                  A 12175    	ADD	HL,BC
016648 E5C1                A 12176    	LD	BC,HL
01664A DD27FA              A 12177    	LD	HL,(IX+-6)
01664D B7                  A 12178    	OR	A,A
01664E ED42                A 12179    	SBC	HL,BC
016650 FA 5A 66 01         A 12180    	JP	M,L__426
016654 EA F9 65 01         A 12181    	JP	PE,L_641
016658 18 04               A 12182    	JR	L__427
01665A                     A 12183    L__426:
01665A E2 F9 65 01         A 12184    	JP	PO,L_641
01665E                     A 12185    L__427:
01665E DDF9                A 12186    	LD	SP,IX
016660 DDE1                A 12187    	POP	IX
016662 C9                  A 12188    	RET	
                           A 12189    
                           A 12190    
                           A 12191    ;**************************** _Fill_Rectangle *
                           A 12192    ;Name                         Addr/Register   S
                           A 12193    ;_PutPixel                           STATIC  --
                           A 12194    ;y                                     IX-6    
                           A 12195    ;x                                     IX-3    
                           A 12196    ;col                                  IX+18    
                           A 12197    ;H                                    IX+15    
                           A 12198    ;W                                    IX+12    
                           A 12199    ;PosY                                  IX+9    
                           A 12200    ;PosX                                  IX+6    
                           A 12201    
Zilog eZ80 Macro Assembler Version 4.1 (10060805) RELISTED26-Aug-11     11:07:39     page: 236


PC     Object              I  Line    Source C:\Users\fog76\Desktop\CHFIGH~2\Debug\main.src
                           A 12202    
                           A 12203    ; Stack Frame Size: 27 (bytes)
                           A 12204    ;       Spill Code: 0 (instruction)
                           A 12205    
                           A 12206    
016663                     A 12207    _MainMenu:
016663 21FDFFFF            A 12208    	LD	HL,-3
016667 CD BF 70 01         A 12209    	CALL	__frameset
01666B DD36FF00            A 12210    	LD	(IX+-1),0
01666F DD36FE00            A 12211    	LD	(IX+-2),0
016673 CD B1 00 01         A 12212    	CALL	_BlackOut
016677 01002C01            A 12213    	LD	BC,76800
01667B C5                  A 12214    	PUSH	BC
01667C ED4B D2 7F 01       A 12215    	LD	BC,(_VideoMem)
016681 C5                  A 12216    	PUSH	BC
016682 01 A1 75 01         A 12217    	LD	BC,L__429
016686 C5                  A 12218    	PUSH	BC
016687 CD 5E 00 01         A 12219    	CALL	_Load_Raw_Data
01668B C1                  A 12220    	POP	BC
01668C C1                  A 12221    	POP	BC
01668D C1                  A 12222    	POP	BC
01668E 01000200            A 12223    	LD	BC,512
016692 C5                  A 12224    	PUSH	BC
016693 ED4B D5 7F 01       A 12225    	LD	BC,(_PaletteMem)
016698 C5                  A 12226    	PUSH	BC
016699 01 AA 75 01         A 12227    	LD	BC,L__430
01669D C5                  A 12228    	PUSH	BC
01669E CD 5E 00 01         A 12229    	CALL	_Load_Raw_Data
0166A2 C1                  A 12230    	POP	BC
0166A3 C1                  A 12231    	POP	BC
0166A4 C1                  A 12232    	POP	BC
0166A5 3A F7 7F 01         A 12233    	LD	A,(_mColore)
0166A9 B7                  A 12234    	OR	A,A
0166AA 20 25               A 12235    	JR	NZ,L_646
0166AC ED4B 6F 7D 01       A 12236    	LD	BC,(_mWhite)
0166B1 C5                  A 12237    	PUSH	BC
0166B2 010A0000            A 12238    	LD	BC,10
0166B6 C5                  A 12239    	PUSH	BC
0166B7 012A0000            A 12240    	LD	BC,42
0166BB C5                  A 12241    	PUSH	BC
0166BC 015E0000            A 12242    	LD	BC,94
0166C0 C5                  A 12243    	PUSH	BC
0166C1 01BE0000            A 12244    	LD	BC,190
0166C5 C5                  A 12245    	PUSH	BC
0166C6 CD C4 64 01         A 12246    	CALL	_Draw_Image
0166CA C1                  A 12247    	POP	BC
0166CB C1                  A 12248    	POP	BC
0166CC C1                  A 12249    	POP	BC
0166CD C1                  A 12250    	POP	BC
0166CE C1                  A 12251    	POP	BC
0166CF 18 23               A 12252    	JR	L_647
0166D1                     A 12253    L_646:
Zilog eZ80 Macro Assembler Version 4.1 (10060805) RELISTED26-Aug-11     11:07:39     page: 237


PC     Object              I  Line    Source C:\Users\fog76\Desktop\CHFIGH~2\Debug\main.src
0166D1 ED4B 72 7D 01       A 12254    	LD	BC,(_mBlack)
0166D6 C5                  A 12255    	PUSH	BC
0166D7 010A0000            A 12256    	LD	BC,10
0166DB C5                  A 12257    	PUSH	BC
0166DC 01300000            A 12258    	LD	BC,48
0166E0 C5                  A 12259    	PUSH	BC
0166E1 015E0000            A 12260    	LD	BC,94
0166E5 C5                  A 12261    	PUSH	BC
0166E6 01BE0000            A 12262    	LD	BC,190
0166EA C5                  A 12263    	PUSH	BC
0166EB CD C4 64 01         A 12264    	CALL	_Draw_Image
0166EF C1                  A 12265    	POP	BC
0166F0 C1                  A 12266    	POP	BC
0166F1 C1                  A 12267    	POP	BC
0166F2 C1                  A 12268    	POP	BC
0166F3 C1                  A 12269    	POP	BC
0166F4                     A 12270    L_647:
0166F4 ED4B 6C 7D 01       A 12271    	LD	BC,(_mSelect)
0166F9 C5                  A 12272    	PUSH	BC
0166FA 010F0000            A 12273    	LD	BC,15
0166FE C5                  A 12274    	PUSH	BC
0166FF 01100000            A 12275    	LD	BC,16
016703 C5                  A 12276    	PUSH	BC
016704 015B0000            A 12277    	LD	BC,91
016708 C5                  A 12278    	PUSH	BC
016709 01690000            A 12279    	LD	BC,105
01670D C5                  A 12280    	PUSH	BC
01670E CD C4 64 01         A 12281    	CALL	_Draw_Image
016712 C1                  A 12282    	POP	BC
016713 C1                  A 12283    	POP	BC
016714 C1                  A 12284    	POP	BC
016715 C1                  A 12285    	POP	BC
016716 C1                  A 12286    	POP	BC
016717 3A F8 7F 01         A 12287    	LD	A,(_mLivello)
01671B B7                  A 12288    	OR	A,A
01671C 20 25               A 12289    	JR	NZ,L_649
01671E ED4B 75 7D 01       A 12290    	LD	BC,(_mNormal)
016723 C5                  A 12291    	PUSH	BC
016724 010A0000            A 12292    	LD	BC,10
016728 C5                  A 12293    	PUSH	BC
016729 013A0000            A 12294    	LD	BC,58
01672D C5                  A 12295    	PUSH	BC
01672E 01740000            A 12296    	LD	BC,116
016732 C5                  A 12297    	PUSH	BC
016733 01BE0000            A 12298    	LD	BC,190
016737 C5                  A 12299    	PUSH	BC
016738 CD C4 64 01         A 12300    	CALL	_Draw_Image
01673C C1                  A 12301    	POP	BC
01673D C1                  A 12302    	POP	BC
01673E C1                  A 12303    	POP	BC
01673F C1                  A 12304    	POP	BC
016740 C1                  A 12305    	POP	BC
Zilog eZ80 Macro Assembler Version 4.1 (10060805) RELISTED26-Aug-11     11:07:39     page: 238


PC     Object              I  Line    Source C:\Users\fog76\Desktop\CHFIGH~2\Debug\main.src
016741 18 23               A 12306    	JR	L_670
016743                     A 12307    L_649:
016743 ED4B 78 7D 01       A 12308    	LD	BC,(_mHard)
016748 C5                  A 12309    	PUSH	BC
016749 010A0000            A 12310    	LD	BC,10
01674D C5                  A 12311    	PUSH	BC
01674E 01260000            A 12312    	LD	BC,38
016752 C5                  A 12313    	PUSH	BC
016753 01740000            A 12314    	LD	BC,116
016757 C5                  A 12315    	PUSH	BC
016758 01BE0000            A 12316    	LD	BC,190
01675C C5                  A 12317    	PUSH	BC
01675D CD C4 64 01         A 12318    	CALL	_Draw_Image
016761 C1                  A 12319    	POP	BC
016762 C1                  A 12320    	POP	BC
016763 C1                  A 12321    	POP	BC
016764 C1                  A 12322    	POP	BC
016765 C1                  A 12323    	POP	BC
016766                     A 12324    L_670:
016766 CD 2B 5F 01         A 12325    	CALL	_GetKeyScanCode
01676A DD77FD              A 12326    	LD	(IX+-3),A
01676D FE75                A 12327    	CP	A,117
01676F 20 0F               A 12328    	JR	NZ,L_654
016771 DD35FF              A 12329    	DEC	(IX+-1)
016774 DD7EFF              A 12330    	LD	A,(IX+-1)
016777 B7                  A 12331    	OR	A,A
016778 F2 80 67 01         A 12332    	JP	P,L_654
01677C DD36FF03            A 12333    	LD	(IX+-1),3
016780                     A 12334    L_654:
016780 DD7EFD              A 12335    	LD	A,(IX+-3)
016783 FE72                A 12336    	CP	A,114
016785 20 1A               A 12337    	JR	NZ,L_656
016787 DD34FF              A 12338    	INC	(IX+-1)
01678A 3E03                A 12339    	LD	A,3
01678C DDBEFF              A 12340    	CP	A,(IX+-1)
01678F F2 99 67 01         A 12341    	JP	P,L__444
016793 EA A1 67 01         A 12342    	JP	PE,L_656
016797 18 04               A 12343    	JR	L__445
016799                     A 12344    L__444:
016799 E2 A1 67 01         A 12345    	JP	PO,L_656
01679D                     A 12346    L__445:
01679D DD36FF00            A 12347    	LD	(IX+-1),0
0167A1                     A 12348    L_656:
0167A1 DD7EFF              A 12349    	LD	A,(IX+-1)
0167A4 DDBEFE              A 12350    	CP	A,(IX+-2)
0167A7 CA 2E 68 01         A 12351    	JR	Z,L_668
0167AB 01 3F 7D 01         A 12352    	LD	BC,_Click
0167AF C5                  A 12353    	PUSH	BC
0167B0 CD 6C 5F 01         A 12354    	CALL	_Play_Raw_Audio
0167B4 C1                  A 12355    	POP	BC
0167B5 01000000            A 12356    	LD	BC,0
0167B9 C5                  A 12357    	PUSH	BC
Zilog eZ80 Macro Assembler Version 4.1 (10060805) RELISTED26-Aug-11     11:07:39     page: 239


PC     Object              I  Line    Source C:\Users\fog76\Desktop\CHFIGH~2\Debug\main.src
0167BA 010F0000            A 12358    	LD	BC,15
0167BE C5                  A 12359    	PUSH	BC
0167BF 01100000            A 12360    	LD	BC,16
0167C3 C5                  A 12361    	PUSH	BC
0167C4 DD7EFE              A 12362    	LD	A,(IX+-2)
0167C7 17ED62              A 12363    	SEXT	HL
0167CA DD6EFE              A 12364    	LD	L,(IX+-2)
0167CD E5C1                A 12365    	LD	BC,HL
0167CF C5E1                A 12366    	LD	HL,BC
0167D1 29                  A 12367    	ADD	HL,HL
0167D2 09                  A 12368    	ADD	HL,BC
0167D3 29                  A 12369    	ADD	HL,HL
0167D4 29                  A 12370    	ADD	HL,HL
0167D5 B7                  A 12371    	OR	A,A
0167D6 ED42                A 12372    	SBC	HL,BC
0167D8 29                  A 12373    	ADD	HL,HL
0167D9 E5FDE1              A 12374    	LD	IY,HL
0167DC ED035B              A 12375    	LEA	BC,IY+91
0167DF C5                  A 12376    	PUSH	BC
0167E0 01690000            A 12377    	LD	BC,105
0167E4 C5                  A 12378    	PUSH	BC
0167E5 CD E9 65 01         A 12379    	CALL	_Fill_Rectangle
0167E9 C1                  A 12380    	POP	BC
0167EA C1                  A 12381    	POP	BC
0167EB C1                  A 12382    	POP	BC
0167EC C1                  A 12383    	POP	BC
0167ED C1                  A 12384    	POP	BC
0167EE ED4B 6C 7D 01       A 12385    	LD	BC,(_mSelect)
0167F3 C5                  A 12386    	PUSH	BC
0167F4 010F0000            A 12387    	LD	BC,15
0167F8 C5                  A 12388    	PUSH	BC
0167F9 01100000            A 12389    	LD	BC,16
0167FD C5                  A 12390    	PUSH	BC
0167FE DD7EFF              A 12391    	LD	A,(IX+-1)
016801 17ED62              A 12392    	SEXT	HL
016804 DD6EFF              A 12393    	LD	L,(IX+-1)
016807 E5C1                A 12394    	LD	BC,HL
016809 C5E1                A 12395    	LD	HL,BC
01680B 29                  A 12396    	ADD	HL,HL
01680C 09                  A 12397    	ADD	HL,BC
01680D 29                  A 12398    	ADD	HL,HL
01680E 29                  A 12399    	ADD	HL,HL
01680F B7                  A 12400    	OR	A,A
016810 ED42                A 12401    	SBC	HL,BC
016812 29                  A 12402    	ADD	HL,HL
016813 E5FDE1              A 12403    	LD	IY,HL
016816 ED035B              A 12404    	LEA	BC,IY+91
016819 C5                  A 12405    	PUSH	BC
01681A 01690000            A 12406    	LD	BC,105
01681E C5                  A 12407    	PUSH	BC
01681F CD C4 64 01         A 12408    	CALL	_Draw_Image
016823 C1                  A 12409    	POP	BC
Zilog eZ80 Macro Assembler Version 4.1 (10060805) RELISTED26-Aug-11     11:07:39     page: 240


PC     Object              I  Line    Source C:\Users\fog76\Desktop\CHFIGH~2\Debug\main.src
016824 C1                  A 12410    	POP	BC
016825 C1                  A 12411    	POP	BC
016826 C1                  A 12412    	POP	BC
016827 C1                  A 12413    	POP	BC
016828 DD7EFF              A 12414    	LD	A,(IX+-1)
01682B DD77FE              A 12415    	LD	(IX+-2),A
01682E                     A 12416    L_668:
01682E DD7EFD              A 12417    	LD	A,(IX+-3)
016831 FE29                A 12418    	CP	A,41
016833 C2 66 67 01         A 12419    	JR	NZ,L_670
016837 01 3F 7D 01         A 12420    	LD	BC,_Click
01683B C5                  A 12421    	PUSH	BC
01683C CD 6C 5F 01         A 12422    	CALL	_Play_Raw_Audio
016840 C1                  A 12423    	POP	BC
016841 DD7EFF              A 12424    	LD	A,(IX+-1)
016844 17ED62              A 12425    	SEXT	HL
016847 DD6EFF              A 12426    	LD	L,(IX+-1)
01684A E5C1                A 12427    	LD	BC,HL
01684C                     A 12428    L__440:
01684C 21030000            A 12429    	LD	HL,3
016850 B7                  A 12430    	OR	A,A
016851 ED42                A 12431    	SBC	HL,BC
016853 DA 66 67 01         A 12432    	JR	C,L_670
016857 C5E1                A 12433    	LD	HL,BC
016859 29                  A 12434    	ADD	HL,HL
01685A 29                  A 12435    	ADD	HL,HL
01685B B7                  A 12436    	OR	A,A
01685C ED42                A 12437    	SBC	HL,BC
01685E 01 66 68 01         A 12438    	LD	BC,L__439
016862 09                  A 12439    	ADD	HL,BC
016863 ED27                A 12440    	LD	HL,(HL)
016865 E9                  A 12441    	JP	(HL)
016866                     A 12442    L__439:
016866 726801              A 12443    	DW24	L_657	
                           A 12444    
016869 166901              A 12445    	DW24	L_661	
                           A 12446    
01686C BA6901              A 12447    	DW24	L_665	
                           A 12448    
01686F BE6901              A 12449    	DW24	L_666	
                           A 12450    
016872                     A 12451    L_657:
016872 3A F7 7F 01         A 12452    	LD	A,(_mColore)
016876 B7                  A 12453    	OR	A,A
016877 20 4F               A 12454    	JR	NZ,L_659
016879 01000000            A 12455    	LD	BC,0
01687D C5                  A 12456    	PUSH	BC
01687E 010A0000            A 12457    	LD	BC,10
016882 C5                  A 12458    	PUSH	BC
016883 012A0000            A 12459    	LD	BC,42
016887 C5                  A 12460    	PUSH	BC
016888 015E0000            A 12461    	LD	BC,94
Zilog eZ80 Macro Assembler Version 4.1 (10060805) RELISTED26-Aug-11     11:07:39     page: 241


PC     Object              I  Line    Source C:\Users\fog76\Desktop\CHFIGH~2\Debug\main.src
01688C C5                  A 12462    	PUSH	BC
01688D 01BE0000            A 12463    	LD	BC,190
016891 C5                  A 12464    	PUSH	BC
016892 CD E9 65 01         A 12465    	CALL	_Fill_Rectangle
016896 C1                  A 12466    	POP	BC
016897 C1                  A 12467    	POP	BC
016898 C1                  A 12468    	POP	BC
016899 C1                  A 12469    	POP	BC
01689A C1                  A 12470    	POP	BC
01689B ED4B 72 7D 01       A 12471    	LD	BC,(_mBlack)
0168A0 C5                  A 12472    	PUSH	BC
0168A1 010A0000            A 12473    	LD	BC,10
0168A5 C5                  A 12474    	PUSH	BC
0168A6 01300000            A 12475    	LD	BC,48
0168AA C5                  A 12476    	PUSH	BC
0168AB 015E0000            A 12477    	LD	BC,94
0168AF C5                  A 12478    	PUSH	BC
0168B0 01BE0000            A 12479    	LD	BC,190
0168B4 C5                  A 12480    	PUSH	BC
0168B5 CD C4 64 01         A 12481    	CALL	_Draw_Image
0168B9 C1                  A 12482    	POP	BC
0168BA C1                  A 12483    	POP	BC
0168BB C1                  A 12484    	POP	BC
0168BC C1                  A 12485    	POP	BC
0168BD C1                  A 12486    	POP	BC
0168BE 3E01                A 12487    	LD	A,1
0168C0 32 F7 7F 01         A 12488    	LD	(_mColore),A
0168C4 C3 66 67 01         A 12489    	JR	L_670
0168C8                     A 12490    L_659:
0168C8 01000000            A 12491    	LD	BC,0
0168CC C5                  A 12492    	PUSH	BC
0168CD 010A0000            A 12493    	LD	BC,10
0168D1 C5                  A 12494    	PUSH	BC
0168D2 01300000            A 12495    	LD	BC,48
0168D6 C5                  A 12496    	PUSH	BC
0168D7 015E0000            A 12497    	LD	BC,94
0168DB C5                  A 12498    	PUSH	BC
0168DC 01BE0000            A 12499    	LD	BC,190
0168E0 C5                  A 12500    	PUSH	BC
0168E1 CD E9 65 01         A 12501    	CALL	_Fill_Rectangle
0168E5 C1                  A 12502    	POP	BC
0168E6 C1                  A 12503    	POP	BC
0168E7 C1                  A 12504    	POP	BC
0168E8 C1                  A 12505    	POP	BC
0168E9 C1                  A 12506    	POP	BC
0168EA ED4B 6F 7D 01       A 12507    	LD	BC,(_mWhite)
0168EF C5                  A 12508    	PUSH	BC
0168F0 010A0000            A 12509    	LD	BC,10
0168F4 C5                  A 12510    	PUSH	BC
0168F5 012A0000            A 12511    	LD	BC,42
0168F9 C5                  A 12512    	PUSH	BC
0168FA 015E0000            A 12513    	LD	BC,94
Zilog eZ80 Macro Assembler Version 4.1 (10060805) RELISTED26-Aug-11     11:07:39     page: 242


PC     Object              I  Line    Source C:\Users\fog76\Desktop\CHFIGH~2\Debug\main.src
0168FE C5                  A 12514    	PUSH	BC
0168FF 01BE0000            A 12515    	LD	BC,190
016903 C5                  A 12516    	PUSH	BC
016904 CD C4 64 01         A 12517    	CALL	_Draw_Image
016908 C1                  A 12518    	POP	BC
016909 C1                  A 12519    	POP	BC
01690A C1                  A 12520    	POP	BC
01690B C1                  A 12521    	POP	BC
01690C C1                  A 12522    	POP	BC
01690D AF                  A 12523    	XOR	A,A
01690E 32 F7 7F 01         A 12524    	LD	(_mColore),A
016912 C3 66 67 01         A 12525    	JR	L_670
016916                     A 12526    L_661:
016916 3A F8 7F 01         A 12527    	LD	A,(_mLivello)
01691A B7                  A 12528    	OR	A,A
01691B 20 4F               A 12529    	JR	NZ,L_663
01691D 01000000            A 12530    	LD	BC,0
016921 C5                  A 12531    	PUSH	BC
016922 010A0000            A 12532    	LD	BC,10
016926 C5                  A 12533    	PUSH	BC
016927 013A0000            A 12534    	LD	BC,58
01692B C5                  A 12535    	PUSH	BC
01692C 01740000            A 12536    	LD	BC,116
016930 C5                  A 12537    	PUSH	BC
016931 01BE0000            A 12538    	LD	BC,190
016935 C5                  A 12539    	PUSH	BC
016936 CD E9 65 01         A 12540    	CALL	_Fill_Rectangle
01693A C1                  A 12541    	POP	BC
01693B C1                  A 12542    	POP	BC
01693C C1                  A 12543    	POP	BC
01693D C1                  A 12544    	POP	BC
01693E C1                  A 12545    	POP	BC
01693F ED4B 78 7D 01       A 12546    	LD	BC,(_mHard)
016944 C5                  A 12547    	PUSH	BC
016945 010A0000            A 12548    	LD	BC,10
016949 C5                  A 12549    	PUSH	BC
01694A 01260000            A 12550    	LD	BC,38
01694E C5                  A 12551    	PUSH	BC
01694F 01740000            A 12552    	LD	BC,116
016953 C5                  A 12553    	PUSH	BC
016954 01BE0000            A 12554    	LD	BC,190
016958 C5                  A 12555    	PUSH	BC
016959 CD C4 64 01         A 12556    	CALL	_Draw_Image
01695D C1                  A 12557    	POP	BC
01695E C1                  A 12558    	POP	BC
01695F C1                  A 12559    	POP	BC
016960 C1                  A 12560    	POP	BC
016961 C1                  A 12561    	POP	BC
016962 3E01                A 12562    	LD	A,1
016964 32 F8 7F 01         A 12563    	LD	(_mLivello),A
016968 C3 66 67 01         A 12564    	JR	L_670
01696C                     A 12565    L_663:
Zilog eZ80 Macro Assembler Version 4.1 (10060805) RELISTED26-Aug-11     11:07:39     page: 243


PC     Object              I  Line    Source C:\Users\fog76\Desktop\CHFIGH~2\Debug\main.src
01696C 01000000            A 12566    	LD	BC,0
016970 C5                  A 12567    	PUSH	BC
016971 010A0000            A 12568    	LD	BC,10
016975 C5                  A 12569    	PUSH	BC
016976 01260000            A 12570    	LD	BC,38
01697A C5                  A 12571    	PUSH	BC
01697B 01740000            A 12572    	LD	BC,116
01697F C5                  A 12573    	PUSH	BC
016980 01BE0000            A 12574    	LD	BC,190
016984 C5                  A 12575    	PUSH	BC
016985 CD E9 65 01         A 12576    	CALL	_Fill_Rectangle
016989 C1                  A 12577    	POP	BC
01698A C1                  A 12578    	POP	BC
01698B C1                  A 12579    	POP	BC
01698C C1                  A 12580    	POP	BC
01698D C1                  A 12581    	POP	BC
01698E ED4B 75 7D 01       A 12582    	LD	BC,(_mNormal)
016993 C5                  A 12583    	PUSH	BC
016994 010A0000            A 12584    	LD	BC,10
016998 C5                  A 12585    	PUSH	BC
016999 013A0000            A 12586    	LD	BC,58
01699D C5                  A 12587    	PUSH	BC
01699E 01740000            A 12588    	LD	BC,116
0169A2 C5                  A 12589    	PUSH	BC
0169A3 01BE0000            A 12590    	LD	BC,190
0169A7 C5                  A 12591    	PUSH	BC
0169A8 CD C4 64 01         A 12592    	CALL	_Draw_Image
0169AC C1                  A 12593    	POP	BC
0169AD C1                  A 12594    	POP	BC
0169AE C1                  A 12595    	POP	BC
0169AF C1                  A 12596    	POP	BC
0169B0 C1                  A 12597    	POP	BC
0169B1 AF                  A 12598    	XOR	A,A
0169B2 32 F8 7F 01         A 12599    	LD	(_mLivello),A
0169B6 C3 66 67 01         A 12600    	JR	L_670
0169BA                     A 12601    L_665:
0169BA 3E01                A 12602    	LD	A,1
0169BC 18 02               A 12603    	JR	L_673
0169BE                     A 12604    L_666:
0169BE 3E02                A 12605    	LD	A,2
0169C0                     A 12606    L_673:
0169C0 DDF9                A 12607    	LD	SP,IX
0169C2 DDE1                A 12608    	POP	IX
0169C4 C9                  A 12609    	RET	
                           A 12610    
                           A 12611    
                           A 12612    ;**************************** _MainMenu *******
                           A 12613    ;Name                         Addr/Register   S
                           A 12614    ;_Fill_Rectangle                     IMPORT  --
                           A 12615    ;_Click                              STATIC    
                           A 12616    ;_Play_Raw_Audio                     IMPORT  --
                           A 12617    ;_GetKeyScanCode                     IMPORT  --
Zilog eZ80 Macro Assembler Version 4.1 (10060805) RELISTED26-Aug-11     11:07:39     page: 244


PC     Object              I  Line    Source C:\Users\fog76\Desktop\CHFIGH~2\Debug\main.src
                           A 12618    ;_mHard                              STATIC    
                           A 12619    ;_mNormal                            STATIC    
                           A 12620    ;_mLivello                           STATIC    
                           A 12621    ;_mSelect                            STATIC    
                           A 12622    ;_mBlack                             STATIC    
                           A 12623    ;_mWhite                             STATIC    
                           A 12624    ;_Draw_Image                         IMPORT  --
                           A 12625    ;_mColore                            STATIC    
                           A 12626    ;_PaletteMem                         STATIC    
                           A 12627    ;_VideoMem                           STATIC    
                           A 12628    ;_Load_Raw_Data                      IMPORT  --
                           A 12629    ;_BlackOut                           IMPORT  --
                           A 12630    ;SKey                                  IX-3    
                           A 12631    ;OldPosSel                             IX-2    
                           A 12632    ;PosSel                                IX-1    
                           A 12633    
                           A 12634    
                           A 12635    ; Stack Frame Size: 9 (bytes)
                           A 12636    ;       Spill Code: 0 (instruction)
                           A 12637    
                           A 12638    
                           A 12639    	SEGMENT STRSECT
0175A1                     A 12640    L__429:
0175A1 6D656E75 2E726177   A 12641    	DB	"menu.raw"
0175A9 00                  A 12642    	DB	0
0175AA                     A 12643    L__430:
0175AA 6D656E75 2E70616C   A 12644    	DB	"menu.pal"
0175B2 00                  A 12645    	DB	0
                           A 12646    	SEGMENT CODE
0169C5                     A 12647    _Save_Back_Selection:
0169C5 21FDFFFF            A 12648    	LD	HL,-3
0169C9 CD BF 70 01         A 12649    	CALL	__frameset
0169CD DD2709              A 12650    	LD	HL,(IX+9)
0169D0 3E08                A 12651    	LD	A,8
0169D2 CD 4E 72 01         A 12652    	CALL	__ishl_b
0169D6 E5C1                A 12653    	LD	BC,HL
0169D8 DD2709              A 12654    	LD	HL,(IX+9)
0169DB 29                  A 12655    	ADD	HL,HL
0169DC 29                  A 12656    	ADD	HL,HL
0169DD 29                  A 12657    	ADD	HL,HL
0169DE 29                  A 12658    	ADD	HL,HL
0169DF 29                  A 12659    	ADD	HL,HL
0169E0 29                  A 12660    	ADD	HL,HL
0169E1 09                  A 12661    	ADD	HL,BC
0169E2 DD0706              A 12662    	LD	BC,(IX+6)
0169E5 09                  A 12663    	ADD	HL,BC
0169E6 ED4B D2 7F 01       A 12664    	LD	BC,(_VideoMem)
0169EB 09                  A 12665    	ADD	HL,BC
0169EC 7E                  A 12666    	LD	A,(HL)
0169ED DD77FD              A 12667    	LD	(IX+-3),A
0169F0 01710200            A 12668    	LD	BC,625
0169F4 C5                  A 12669    	PUSH	BC
Zilog eZ80 Macro Assembler Version 4.1 (10060805) RELISTED26-Aug-11     11:07:39     page: 245


PC     Object              I  Line    Source C:\Users\fog76\Desktop\CHFIGH~2\Debug\main.src
0169F5 DD7EFD              A 12670    	LD	A,(IX+-3)
0169F8 B7ED62              A 12671    	UEXT	HL
0169FB 6F                  A 12672    	LD	L,A
0169FC E5                  A 12673    	PUSH	HL
0169FD ED4B 8A 7D 01       A 12674    	LD	BC,(_bsel)
016A02 C5                  A 12675    	PUSH	BC
016A03 CD 2D 72 01         A 12676    	CALL	_memset
016A07 C1                  A 12677    	POP	BC
016A08 C1                  A 12678    	POP	BC
016A09 C1                  A 12679    	POP	BC
016A0A DD36FE01            A 12680    	LD	(IX+-2),1
016A0E 18 41               A 12681    	JR	L_681
016A10                     A 12682    L_679:
016A10 DD36FF01            A 12683    	LD	(IX+-1),1
016A14 18 2F               A 12684    	JR	L_678
016A16                     A 12685    L_676:
016A16 DD7EFE              A 12686    	LD	A,(IX+-2)
016A19 17ED62              A 12687    	SEXT	HL
016A1C DD6EFE              A 12688    	LD	L,(IX+-2)
016A1F E5C1                A 12689    	LD	BC,HL
016A21 C5E1                A 12690    	LD	HL,BC
016A23 29                  A 12691    	ADD	HL,HL
016A24 29                  A 12692    	ADD	HL,HL
016A25 B7                  A 12693    	OR	A,A
016A26 ED42                A 12694    	SBC	HL,BC
016A28 29                  A 12695    	ADD	HL,HL
016A29 29                  A 12696    	ADD	HL,HL
016A2A 29                  A 12697    	ADD	HL,HL
016A2B 09                  A 12698    	ADD	HL,BC
016A2C E5C1                A 12699    	LD	BC,HL
016A2E DD7EFF              A 12700    	LD	A,(IX+-1)
016A31 17ED62              A 12701    	SEXT	HL
016A34 DD6EFF              A 12702    	LD	L,(IX+-1)
016A37 DD7E0C              A 12703    	LD	A,(IX+12)
016A3A 09                  A 12704    	ADD	HL,BC
016A3B ED4B 8A 7D 01       A 12705    	LD	BC,(_bsel)
016A40 09                  A 12706    	ADD	HL,BC
016A41 77                  A 12707    	LD	(HL),A
016A42 DD34FF              A 12708    	INC	(IX+-1)
016A45                     A 12709    L_678:
016A45 DD7EFF              A 12710    	LD	A,(IX+-1)
016A48 FE18                A 12711    	CP	A,24
016A4A FA 16 6A 01         A 12712    	JP	M,L_676
016A4E DD34FE              A 12713    	INC	(IX+-2)
016A51                     A 12714    L_681:
016A51 DD7EFE              A 12715    	LD	A,(IX+-2)
016A54 FE18                A 12716    	CP	A,24
016A56 FA 60 6A 01         A 12717    	JP	M,L__449
016A5A EA 10 6A 01         A 12718    	JP	PE,L_679
016A5E 18 04               A 12719    	JR	L__450
016A60                     A 12720    L__449:
016A60 E2 10 6A 01         A 12721    	JP	PO,L_679
Zilog eZ80 Macro Assembler Version 4.1 (10060805) RELISTED26-Aug-11     11:07:39     page: 246


PC     Object              I  Line    Source C:\Users\fog76\Desktop\CHFIGH~2\Debug\main.src
016A64                     A 12722    L__450:
016A64 DDF9                A 12723    	LD	SP,IX
016A66 DDE1                A 12724    	POP	IX
016A68 C9                  A 12725    	RET	
                           A 12726    
                           A 12727    
                           A 12728    ;**************************** _Save_Back_Select
                           A 12729    ;Name                         Addr/Register   S
                           A 12730    ;_bsel                               STATIC    
                           A 12731    ;_memset                             IMPORT  --
                           A 12732    ;_VideoMem                           STATIC    
                           A 12733    ;Val                                   IX-3    
                           A 12734    ;j                                     IX-2    
                           A 12735    ;i                                     IX-1    
                           A 12736    ;Trans                                IX+12    
                           A 12737    ;PosY                                  IX+9    
                           A 12738    ;PosX                                  IX+6    
                           A 12739    
                           A 12740    
                           A 12741    ; Stack Frame Size: 18 (bytes)
                           A 12742    ;       Spill Code: 0 (instruction)
                           A 12743    
                           A 12744    
016A69                     A 12745    _Draw_User_Selection:
016A69 21FAFFFF            A 12746    	LD	HL,-6
016A6D CD BF 70 01         A 12747    	CALL	__frameset
016A71 DD3106              A 12748    	LD	IY,(IX+6)
016A74 FD7E01              A 12749    	LD	A,(IY+1)
016A77 47                  A 12750    	LD	B,A
016A78 17ED62              A 12751    	SEXT	HL
016A7B 68                  A 12752    	LD	L,B
016A7C E5C1                A 12753    	LD	BC,HL
016A7E C5E1                A 12754    	LD	HL,BC
016A80 29                  A 12755    	ADD	HL,HL
016A81 29                  A 12756    	ADD	HL,HL
016A82 B7                  A 12757    	OR	A,A
016A83 ED42                A 12758    	SBC	HL,BC
016A85 29                  A 12759    	ADD	HL,HL
016A86 29                  A 12760    	ADD	HL,HL
016A87 29                  A 12761    	ADD	HL,HL
016A88 09                  A 12762    	ADD	HL,BC
016A89 E5FDE1              A 12763    	LD	IY,HL
016A8C ED030B              A 12764    	LEA	BC,IY+11
016A8F DD0FFD              A 12765    	LD	(IX+-3),BC
016A92 DD3106              A 12766    	LD	IY,(IX+6)
016A95 FD7E00              A 12767    	LD	A,(IY+0)
016A98 47                  A 12768    	LD	B,A
016A99 17ED62              A 12769    	SEXT	HL
016A9C 68                  A 12770    	LD	L,B
016A9D E5C1                A 12771    	LD	BC,HL
016A9F C5E1                A 12772    	LD	HL,BC
016AA1 29                  A 12773    	ADD	HL,HL
Zilog eZ80 Macro Assembler Version 4.1 (10060805) RELISTED26-Aug-11     11:07:39     page: 247


PC     Object              I  Line    Source C:\Users\fog76\Desktop\CHFIGH~2\Debug\main.src
016AA2 29                  A 12774    	ADD	HL,HL
016AA3 B7                  A 12775    	OR	A,A
016AA4 ED42                A 12776    	SBC	HL,BC
016AA6 29                  A 12777    	ADD	HL,HL
016AA7 29                  A 12778    	ADD	HL,HL
016AA8 29                  A 12779    	ADD	HL,HL
016AA9 09                  A 12780    	ADD	HL,BC
016AAA E5FDE1              A 12781    	LD	IY,HL
016AAD ED330C              A 12782    	LEA	IY,IY+12
016AB0 DD3EFA              A 12783    	LD	(IX+-6),IY
016AB3 DD7E09              A 12784    	LD	A,(IX+9)
016AB6 B7                  A 12785    	OR	A,A
016AB7 28 14               A 12786    	JR	Z,L_684
016AB9 01000000            A 12787    	LD	BC,0
016ABD C5                  A 12788    	PUSH	BC
016ABE DD07FA              A 12789    	LD	BC,(IX+-6)
016AC1 C5                  A 12790    	PUSH	BC
016AC2 DD07FD              A 12791    	LD	BC,(IX+-3)
016AC5 C5                  A 12792    	PUSH	BC
016AC6 CD C5 69 01         A 12793    	CALL	_Save_Back_Selection
016ACA C1                  A 12794    	POP	BC
016ACB C1                  A 12795    	POP	BC
016ACC C1                  A 12796    	POP	BC
016ACD                     A 12797    L_684:
016ACD 01000000            A 12798    	LD	BC,0
016AD1 C5                  A 12799    	PUSH	BC
016AD2 DD3106              A 12800    	LD	IY,(IX+6)
016AD5 FD0702              A 12801    	LD	BC,(IY+2)
016AD8 C5                  A 12802    	PUSH	BC
016AD9 01190000            A 12803    	LD	BC,25
016ADD C5                  A 12804    	PUSH	BC
016ADE C5                  A 12805    	PUSH	BC
016ADF DD07FA              A 12806    	LD	BC,(IX+-6)
016AE2 C5                  A 12807    	PUSH	BC
016AE3 DD07FD              A 12808    	LD	BC,(IX+-3)
016AE6 C5                  A 12809    	PUSH	BC
016AE7 CD 4C 65 01         A 12810    	CALL	_Draw_Trans_Image
016AEB C1                  A 12811    	POP	BC
016AEC C1                  A 12812    	POP	BC
016AED C1                  A 12813    	POP	BC
016AEE C1                  A 12814    	POP	BC
016AEF C1                  A 12815    	POP	BC
016AF0 C1                  A 12816    	POP	BC
016AF1 DDF9                A 12817    	LD	SP,IX
016AF3 DDE1                A 12818    	POP	IX
016AF5 C9                  A 12819    	RET	
                           A 12820    
                           A 12821    
                           A 12822    ;**************************** _Draw_User_Select
                           A 12823    ;Name                         Addr/Register   S
                           A 12824    ;_Draw_Trans_Image                   IMPORT  --
                           A 12825    ;PosY                                  IX-6    
Zilog eZ80 Macro Assembler Version 4.1 (10060805) RELISTED26-Aug-11     11:07:39     page: 248


PC     Object              I  Line    Source C:\Users\fog76\Desktop\CHFIGH~2\Debug\main.src
                           A 12826    ;PosX                                  IX-3    
                           A 12827    ;SaveBK                                IX+9    
                           A 12828    ;uS                                    IX+6    
                           A 12829    
                           A 12830    
                           A 12831    ; Stack Frame Size: 18 (bytes)
                           A 12832    ;       Spill Code: 0 (instruction)
                           A 12833    
                           A 12834    
016AF6                     A 12835    _Ottiemi_Mossa:
016AF6 21FAFFFF            A 12836    	LD	HL,-6
016AFA CD BF 70 01         A 12837    	CALL	__frameset
016AFE DD2709              A 12838    	LD	HL,(IX+9)
016B01 3600                A 12839    	LD	(HL),0
016B03 DD2709              A 12840    	LD	HL,(IX+9)
016B06 23                  A 12841    	INC	HL
016B07 3600                A 12842    	LD	(HL),0
016B09 AF                  A 12843    	XOR	A,A
016B0A 32 B7 7D 01         A 12844    	LD	(_chAbort),A
016B0E DD3106              A 12845    	LD	IY,(IX+6)
016B11 FD7E01              A 12846    	LD	A,(IY+1)
016B14 DD77FB              A 12847    	LD	(IX+-5),A
016B17 FD7E00              A 12848    	LD	A,(IY+0)
016B1A DD77FA              A 12849    	LD	(IX+-6),A
016B1D ED4B 8A 7D 01       A 12850    	LD	BC,(_bsel)
016B22 DD0FFC              A 12851    	LD	(IX+-4),BC
016B25 01010000            A 12852    	LD	BC,1
016B29 C5                  A 12853    	PUSH	BC
016B2A DD0706              A 12854    	LD	BC,(IX+6)
016B2D C5                  A 12855    	PUSH	BC
016B2E CD 69 6A 01         A 12856    	CALL	_Draw_User_Selection
016B32 C1                  A 12857    	POP	BC
016B33 C1                  A 12858    	POP	BC
016B34                     A 12859    L_709:
016B34 CD 2B 5F 01         A 12860    	CALL	_GetKeyScanCode
016B38 DD77FF              A 12861    	LD	(IX+-1),A
016B3B FE6B                A 12862    	CP	A,107
016B3D 20 19               A 12863    	JR	NZ,L_692
016B3F DD3106              A 12864    	LD	IY,(IX+6)
016B42 FD7E01              A 12865    	LD	A,(IY+1)
016B45 3D                  A 12866    	DEC	A
016B46 FD7701              A 12867    	LD	(IY+1),A
016B49 FD7E01              A 12868    	LD	A,(IY+1)
016B4C B7                  A 12869    	OR	A,A
016B4D F2 58 6B 01         A 12870    	JP	P,L_692
016B51 DD3106              A 12871    	LD	IY,(IX+6)
016B54 FD360100            A 12872    	LD	(IY+1),0
016B58                     A 12873    L_692:
016B58 DD7EFF              A 12874    	LD	A,(IX+-1)
016B5B FE74                A 12875    	CP	A,116
016B5D 20 24               A 12876    	JR	NZ,L_696
016B5F DD3106              A 12877    	LD	IY,(IX+6)
Zilog eZ80 Macro Assembler Version 4.1 (10060805) RELISTED26-Aug-11     11:07:39     page: 249


PC     Object              I  Line    Source C:\Users\fog76\Desktop\CHFIGH~2\Debug\main.src
016B62 FD7E01              A 12878    	LD	A,(IY+1)
016B65 3C                  A 12879    	INC	A
016B66 FD7701              A 12880    	LD	(IY+1),A
016B69 3E07                A 12881    	LD	A,7
016B6B FDBE01              A 12882    	CP	A,(IY+1)
016B6E F2 78 6B 01         A 12883    	JP	P,L__466
016B72 EA 83 6B 01         A 12884    	JP	PE,L_696
016B76 18 04               A 12885    	JR	L__467
016B78                     A 12886    L__466:
016B78 E2 83 6B 01         A 12887    	JP	PO,L_696
016B7C                     A 12888    L__467:
016B7C DD3106              A 12889    	LD	IY,(IX+6)
016B7F FD360107            A 12890    	LD	(IY+1),7
016B83                     A 12891    L_696:
016B83 DD7EFF              A 12892    	LD	A,(IX+-1)
016B86 FE75                A 12893    	CP	A,117
016B88 20 19               A 12894    	JR	NZ,L_700
016B8A DD3106              A 12895    	LD	IY,(IX+6)
016B8D FD7E00              A 12896    	LD	A,(IY+0)
016B90 3D                  A 12897    	DEC	A
016B91 FD7700              A 12898    	LD	(IY+0),A
016B94 FD7E00              A 12899    	LD	A,(IY+0)
016B97 B7                  A 12900    	OR	A,A
016B98 F2 A3 6B 01         A 12901    	JP	P,L_700
016B9C DD3106              A 12902    	LD	IY,(IX+6)
016B9F FD360000            A 12903    	LD	(IY+0),0
016BA3                     A 12904    L_700:
016BA3 DD7EFF              A 12905    	LD	A,(IX+-1)
016BA6 FE72                A 12906    	CP	A,114
016BA8 20 24               A 12907    	JR	NZ,L_702
016BAA DD3106              A 12908    	LD	IY,(IX+6)
016BAD FD7E00              A 12909    	LD	A,(IY+0)
016BB0 3C                  A 12910    	INC	A
016BB1 FD7700              A 12911    	LD	(IY+0),A
016BB4 3E07                A 12912    	LD	A,7
016BB6 FDBE00              A 12913    	CP	A,(IY+0)
016BB9 F2 C3 6B 01         A 12914    	JP	P,L__468
016BBD EA CE 6B 01         A 12915    	JP	PE,L_702
016BC1 18 04               A 12916    	JR	L__469
016BC3                     A 12917    L__468:
016BC3 E2 CE 6B 01         A 12918    	JP	PO,L_702
016BC7                     A 12919    L__469:
016BC7 DD3106              A 12920    	LD	IY,(IX+6)
016BCA FD360007            A 12921    	LD	(IY+0),7
016BCE                     A 12922    L_702:
016BCE DD7EFF              A 12923    	LD	A,(IX+-1)
016BD1 FE07                A 12924    	CP	A,7
016BD3 20 16               A 12925    	JR	NZ,L_704
016BD5 01000000            A 12926    	LD	BC,0
016BD9 C5                  A 12927    	PUSH	BC
016BDA ED65FA              A 12928    	PEA	IX+-6
016BDD 3E01                A 12929    	LD	A,1
Zilog eZ80 Macro Assembler Version 4.1 (10060805) RELISTED26-Aug-11     11:07:39     page: 250


PC     Object              I  Line    Source C:\Users\fog76\Desktop\CHFIGH~2\Debug\main.src
016BDF 32 B7 7D 01         A 12930    	LD	(_chAbort),A
016BE3 CD 69 6A 01         A 12931    	CALL	_Draw_User_Selection
016BE7 C1                  A 12932    	POP	BC
016BE8 C1                  A 12933    	POP	BC
016BE9 18 75               A 12934    	JR	L_710
016BEB                     A 12935    L_704:
016BEB DD7EFF              A 12936    	LD	A,(IX+-1)
016BEE FE29                A 12937    	CP	A,41
016BF0 20 26               A 12938    	JR	NZ,L_707
016BF2 01000000            A 12939    	LD	BC,0
016BF6 C5                  A 12940    	PUSH	BC
016BF7 ED65FA              A 12941    	PEA	IX+-6
016BFA CD 69 6A 01         A 12942    	CALL	_Draw_User_Selection
016BFE C1                  A 12943    	POP	BC
016BFF C1                  A 12944    	POP	BC
016C00 DD3106              A 12945    	LD	IY,(IX+6)
016C03 FD7E01              A 12946    	LD	A,(IY+1)
016C06 C661                A 12947    	ADD	A,97
016C08 DD2709              A 12948    	LD	HL,(IX+9)
016C0B 77                  A 12949    	LD	(HL),A
016C0C DD2709              A 12950    	LD	HL,(IX+9)
016C0F 23                  A 12951    	INC	HL
016C10 3E38                A 12952    	LD	A,56
016C12 FD9600              A 12953    	SUB	A,(IY+0)
016C15 77                  A 12954    	LD	(HL),A
016C16 18 48               A 12955    	JR	L_710
016C18                     A 12956    L_707:
016C18 DD7EFB              A 12957    	LD	A,(IX+-5)
016C1B DD3106              A 12958    	LD	IY,(IX+6)
016C1E FDBE01              A 12959    	CP	A,(IY+1)
016C21 20 0D               A 12960    	JR	NZ,L_706
016C23 DD7EFA              A 12961    	LD	A,(IX+-6)
016C26 DD3106              A 12962    	LD	IY,(IX+6)
016C29 FDBE00              A 12963    	CP	A,(IY+0)
016C2C CA 34 6B 01         A 12964    	JR	Z,L_709
016C30                     A 12965    L_706:
016C30 01000000            A 12966    	LD	BC,0
016C34 C5                  A 12967    	PUSH	BC
016C35 ED65FA              A 12968    	PEA	IX+-6
016C38 CD 69 6A 01         A 12969    	CALL	_Draw_User_Selection
016C3C C1                  A 12970    	POP	BC
016C3D C1                  A 12971    	POP	BC
016C3E 01010000            A 12972    	LD	BC,1
016C42 C5                  A 12973    	PUSH	BC
016C43 DD0706              A 12974    	LD	BC,(IX+6)
016C46 C5                  A 12975    	PUSH	BC
016C47 CD 69 6A 01         A 12976    	CALL	_Draw_User_Selection
016C4B C1                  A 12977    	POP	BC
016C4C C1                  A 12978    	POP	BC
016C4D DD3106              A 12979    	LD	IY,(IX+6)
016C50 FD7E01              A 12980    	LD	A,(IY+1)
016C53 DD77FB              A 12981    	LD	(IX+-5),A
Zilog eZ80 Macro Assembler Version 4.1 (10060805) RELISTED26-Aug-11     11:07:39     page: 251


PC     Object              I  Line    Source C:\Users\fog76\Desktop\CHFIGH~2\Debug\main.src
016C56 FD7E00              A 12982    	LD	A,(IY+0)
016C59 DD77FA              A 12983    	LD	(IX+-6),A
016C5C C3 34 6B 01         A 12984    	JR	L_709
016C60                     A 12985    L_710:
016C60 DDF9                A 12986    	LD	SP,IX
016C62 DDE1                A 12987    	POP	IX
016C64 C9                  A 12988    	RET	
                           A 12989    
                           A 12990    
                           A 12991    ;**************************** _Ottiemi_Mossa **
                           A 12992    ;Name                         Addr/Register   S
                           A 12993    ;_GetKeyScanCode                     IMPORT  --
                           A 12994    ;_bsel                               STATIC    
                           A 12995    ;_chAbort                            STATIC    
                           A 12996    ;Old                                   IX-6    
                           A 12997    ;SKey                                  IX-1    
                           A 12998    ;OutBuf                                IX+9    
                           A 12999    ;uS                                    IX+6    
                           A 13000    
                           A 13001    
                           A 13002    ; Stack Frame Size: 18 (bytes)
                           A 13003    ;       Spill Code: 0 (instruction)
                           A 13004    
                           A 13005    
016C65                     A 13006    _Crea_Mossa:
016C65 01 B9 7D 01         A 13007    	LD	BC,_Mossa1
016C69 C5                  A 13008    	PUSH	BC
016C6A 01 BD 7D 01         A 13009    	LD	BC,_User
016C6E C5                  A 13010    	PUSH	BC
016C6F ED4B 84 7D 01       A 13011    	LD	BC,(_wSel)
016C74 ED43 BF 7D 01       A 13012    	LD	(_User+2),BC
016C79 CD F6 6A 01         A 13013    	CALL	_Ottiemi_Mossa
016C7D C1                  A 13014    	POP	BC
016C7E C1                  A 13015    	POP	BC
016C7F 3A B7 7D 01         A 13016    	LD	A,(_chAbort)
016C83 B7                  A 13017    	OR	A,A
016C84 20 1A               A 13018    	JR	NZ,L_712
016C86 01 BB 7D 01         A 13019    	LD	BC,_Mossa2
016C8A C5                  A 13020    	PUSH	BC
016C8B 01 BD 7D 01         A 13021    	LD	BC,_User
016C8F C5                  A 13022    	PUSH	BC
016C90 ED4B 87 7D 01       A 13023    	LD	BC,(_rSel)
016C95 ED43 BF 7D 01       A 13024    	LD	(_User+2),BC
016C9A CD F6 6A 01         A 13025    	CALL	_Ottiemi_Mossa
016C9E C1                  A 13026    	POP	BC
016C9F C1                  A 13027    	POP	BC
016CA0                     A 13028    L_712:
016CA0 C9                  A 13029    	RET	
                           A 13030    
                           A 13031    
                           A 13032    ;**************************** _Crea_Mossa *****
                           A 13033    ;Name                         Addr/Register   S
Zilog eZ80 Macro Assembler Version 4.1 (10060805) RELISTED26-Aug-11     11:07:39     page: 252


PC     Object              I  Line    Source C:\Users\fog76\Desktop\CHFIGH~2\Debug\main.src
                           A 13034    ;_Mossa2                             STATIC    
                           A 13035    ;_rSel                               STATIC    
                           A 13036    ;_chAbort                            STATIC    
                           A 13037    ;_Mossa1                             STATIC    
                           A 13038    ;_User                               STATIC    
                           A 13039    ;_wSel                               STATIC    
                           A 13040    
                           A 13041    
                           A 13042    ; Stack Frame Size: 6 (bytes)
                           A 13043    ;       Spill Code: 0 (instruction)
                           A 13044    
                           A 13045    
016CA1                     A 13046    _Show_End_Screen:
016CA1 21EBFFFF            A 13047    	LD	HL,-21
016CA5 CD BF 70 01         A 13048    	CALL	__frameset
016CA9 3A DB 7F 01         A 13049    	LD	A,(_mossa_giocata+3)
016CAD 5F                  A 13050    	LD	E,A
016CAE AF                  A 13051    	XOR	A,A
016CAF 2A D8 7F 01         A 13052    	LD	HL,(_mossa_giocata)
016CB3 010A0000            A 13053    	LD	BC,10
016CB7 CD 60 70 01         A 13054    	CALL	__ldivu
016CBB 010A0000            A 13055    	LD	BC,10
016CBF AF                  A 13056    	XOR	A,A
016CC0 CD 1D 72 01         A 13057    	CALL	__lremu
016CC4 DD2FF4              A 13058    	LD	(IX+-12),HL
016CC7 3A DB 7F 01         A 13059    	LD	A,(_mossa_giocata+3)
016CCB 5F                  A 13060    	LD	E,A
016CCC AF                  A 13061    	XOR	A,A
016CCD 2A D8 7F 01         A 13062    	LD	HL,(_mossa_giocata)
016CD1 010A0000            A 13063    	LD	BC,10
016CD5 CD 1D 72 01         A 13064    	CALL	__lremu
016CD9 DD2FF1              A 13065    	LD	(IX+-15),HL
016CDC DD27F4              A 13066    	LD	HL,(IX+-12)
016CDF 29                  A 13067    	ADD	HL,HL
016CE0 29                  A 13068    	ADD	HL,HL
016CE1 29                  A 13069    	ADD	HL,HL
016CE2 29                  A 13070    	ADD	HL,HL
016CE3 B7                  A 13071    	OR	A,A
016CE4 DD07F4              A 13072    	LD	BC,(IX+-12)
016CE7 ED42                A 13073    	SBC	HL,BC
016CE9 29                  A 13074    	ADD	HL,HL
016CEA 29                  A 13075    	ADD	HL,HL
016CEB 01 F5 78 01         A 13076    	LD	BC,_PosScac
016CEF 09                  A 13077    	ADD	HL,BC
016CF0 DD2FFA              A 13078    	LD	(IX+-6),HL
016CF3 DD27F1              A 13079    	LD	HL,(IX+-15)
016CF6 29                  A 13080    	ADD	HL,HL
016CF7 29                  A 13081    	ADD	HL,HL
016CF8 B7                  A 13082    	OR	A,A
016CF9 DD07F1              A 13083    	LD	BC,(IX+-15)
016CFC ED42                A 13084    	SBC	HL,BC
016CFE 29                  A 13085    	ADD	HL,HL
Zilog eZ80 Macro Assembler Version 4.1 (10060805) RELISTED26-Aug-11     11:07:39     page: 253


PC     Object              I  Line    Source C:\Users\fog76\Desktop\CHFIGH~2\Debug\main.src
016CFF DD07FA              A 13086    	LD	BC,(IX+-6)
016D02 09                  A 13087    	ADD	HL,BC
016D03 DD2FFD              A 13088    	LD	(IX+-3),HL
016D06 DD31FD              A 13089    	LD	IY,(IX+-3)
016D09 FD0700              A 13090    	LD	BC,(IY+0)
016D0C DD0FEE              A 13091    	LD	(IX+-18),BC
016D0F FD0703              A 13092    	LD	BC,(IY+3)
016D12 DD0FEB              A 13093    	LD	(IX+-21),BC
016D15 01000000            A 13094    	LD	BC,0
016D19 C5                  A 13095    	PUSH	BC
016D1A ED4B 87 7D 01       A 13096    	LD	BC,(_rSel)
016D1F C5                  A 13097    	PUSH	BC
016D20 01190000            A 13098    	LD	BC,25
016D24 C5                  A 13099    	PUSH	BC
016D25 C5                  A 13100    	PUSH	BC
016D26 DD07EB              A 13101    	LD	BC,(IX+-21)
016D29 C5                  A 13102    	PUSH	BC
016D2A DD07EE              A 13103    	LD	BC,(IX+-18)
016D2D C5                  A 13104    	PUSH	BC
016D2E CD 4C 65 01         A 13105    	CALL	_Draw_Trans_Image
016D32 C1                  A 13106    	POP	BC
016D33 C1                  A 13107    	POP	BC
016D34 C1                  A 13108    	POP	BC
016D35 C1                  A 13109    	POP	BC
016D36 C1                  A 13110    	POP	BC
016D37 C1                  A 13111    	POP	BC
016D38 01000000            A 13112    	LD	BC,0
016D3C DD0FF7              A 13113    	LD	(IX+-9),BC
016D3F 18 07               A 13114    	JR	L_716
016D41                     A 13115    L_714:
016D41 DD07F7              A 13116    	LD	BC,(IX+-9)
016D44 03                  A 13117    	INC	BC
016D45 DD0FF7              A 13118    	LD	(IX+-9),BC
016D48                     A 13119    L_716:
016D48 0160E316            A 13120    	LD	BC,1500000
016D4C DD27F7              A 13121    	LD	HL,(IX+-9)
016D4F B7                  A 13122    	OR	A,A
016D50 ED42                A 13123    	SBC	HL,BC
016D52 38 ED               A 13124    	JR	C,L_714
016D54 CD B1 00 01         A 13125    	CALL	_BlackOut
016D58 DD7E06              A 13126    	LD	A,(IX+6)
016D5B 17ED62              A 13127    	SEXT	HL
016D5E DD6E06              A 13128    	LD	L,(IX+6)
016D61 E5C1                A 13129    	LD	BC,HL
016D63                     A 13130    L__475:
016D63 11010000            A 13131    	LD	DE,1
016D67 B7                  A 13132    	OR	A,A
016D68 ED52                A 13133    	SBC	HL,DE
016D6A 38 7C               A 13134    	JR	C,L_720
016D6C 21020000            A 13135    	LD	HL,2
016D70 B7                  A 13136    	OR	A,A
016D71 ED42                A 13137    	SBC	HL,BC
Zilog eZ80 Macro Assembler Version 4.1 (10060805) RELISTED26-Aug-11     11:07:39     page: 254


PC     Object              I  Line    Source C:\Users\fog76\Desktop\CHFIGH~2\Debug\main.src
016D73 38 73               A 13138    	JR	C,L_720
016D75 C5E1                A 13139    	LD	HL,BC
016D77 29                  A 13140    	ADD	HL,HL
016D78 29                  A 13141    	ADD	HL,HL
016D79 B7                  A 13142    	OR	A,A
016D7A ED42                A 13143    	SBC	HL,BC
016D7C 01 81 6D 01         A 13144    	LD	BC,L__474-3
016D80 09                  A 13145    	ADD	HL,BC
016D81 ED27                A 13146    	LD	HL,(HL)
016D83 E9                  A 13147    	JP	(HL)
016D84                     A 13148    L__474:
016D84 8A6D01              A 13149    	DW24	L_718	
                           A 13150    
016D87 BA6D01              A 13151    	DW24	L_719	
                           A 13152    
016D8A                     A 13153    L_718:
016D8A 01002C01            A 13154    	LD	BC,76800
016D8E C5                  A 13155    	PUSH	BC
016D8F ED4B D2 7F 01       A 13156    	LD	BC,(_VideoMem)
016D94 C5                  A 13157    	PUSH	BC
016D95 01 B3 75 01         A 13158    	LD	BC,L__478
016D99 C5                  A 13159    	PUSH	BC
016D9A CD 5E 00 01         A 13160    	CALL	_Load_Raw_Data
016D9E C1                  A 13161    	POP	BC
016D9F C1                  A 13162    	POP	BC
016DA0 C1                  A 13163    	POP	BC
016DA1 01000200            A 13164    	LD	BC,512
016DA5 C5                  A 13165    	PUSH	BC
016DA6 ED4B D5 7F 01       A 13166    	LD	BC,(_PaletteMem)
016DAB C5                  A 13167    	PUSH	BC
016DAC 01 BB 75 01         A 13168    	LD	BC,L__479
016DB0 C5                  A 13169    	PUSH	BC
016DB1 CD 5E 00 01         A 13170    	CALL	_Load_Raw_Data
016DB5 C1                  A 13171    	POP	BC
016DB6 C1                  A 13172    	POP	BC
016DB7 C1                  A 13173    	POP	BC
016DB8 18 2E               A 13174    	JR	L_720
016DBA                     A 13175    L_719:
016DBA 01002C01            A 13176    	LD	BC,76800
016DBE C5                  A 13177    	PUSH	BC
016DBF ED4B D2 7F 01       A 13178    	LD	BC,(_VideoMem)
016DC4 C5                  A 13179    	PUSH	BC
016DC5 01 C3 75 01         A 13180    	LD	BC,L__480
016DC9 C5                  A 13181    	PUSH	BC
016DCA CD 5E 00 01         A 13182    	CALL	_Load_Raw_Data
016DCE C1                  A 13183    	POP	BC
016DCF C1                  A 13184    	POP	BC
016DD0 C1                  A 13185    	POP	BC
016DD1 01000200            A 13186    	LD	BC,512
016DD5 C5                  A 13187    	PUSH	BC
016DD6 ED4B D5 7F 01       A 13188    	LD	BC,(_PaletteMem)
016DDB C5                  A 13189    	PUSH	BC
Zilog eZ80 Macro Assembler Version 4.1 (10060805) RELISTED26-Aug-11     11:07:39     page: 255


PC     Object              I  Line    Source C:\Users\fog76\Desktop\CHFIGH~2\Debug\main.src
016DDC 01 CC 75 01         A 13190    	LD	BC,L__481
016DE0 C5                  A 13191    	PUSH	BC
016DE1 CD 5E 00 01         A 13192    	CALL	_Load_Raw_Data
016DE5 C1                  A 13193    	POP	BC
016DE6 C1                  A 13194    	POP	BC
016DE7 C1                  A 13195    	POP	BC
016DE8                     A 13196    L_720:
016DE8 CD 1F 5F 01         A 13197    	CALL	_WaitKeyPress
016DEC 01 3F 7D 01         A 13198    	LD	BC,_Click
016DF0 C5                  A 13199    	PUSH	BC
016DF1 CD 6C 5F 01         A 13200    	CALL	_Play_Raw_Audio
016DF5 C1                  A 13201    	POP	BC
016DF6 DDF9                A 13202    	LD	SP,IX
016DF8 DDE1                A 13203    	POP	IX
016DFA C9                  A 13204    	RET	
                           A 13205    
                           A 13206    
                           A 13207    ;**************************** _Show_End_Screen 
                           A 13208    ;Name                         Addr/Register   S
                           A 13209    ;_Click                              STATIC    
                           A 13210    ;_Play_Raw_Audio                     IMPORT  --
                           A 13211    ;_WaitKeyPress                       IMPORT  --
                           A 13212    ;_PaletteMem                         STATIC    
                           A 13213    ;_VideoMem                           STATIC    
                           A 13214    ;_Load_Raw_Data                      IMPORT  --
                           A 13215    ;_BlackOut                           IMPORT  --
                           A 13216    ;_rSel                               STATIC    
                           A 13217    ;_Draw_Trans_Image                   IMPORT  --
                           A 13218    ;_PosScac                            STATIC    
                           A 13219    ;_mossa_giocata                      STATIC    
                           A 13220    ;y                                    IX-21    
                           A 13221    ;x                                    IX-18    
                           A 13222    ;ri                                   IX-15    
                           A 13223    ;co                                   IX-12    
                           A 13224    ;i                                     IX-9    
                           A 13225    ;win                                   IX+6    
                           A 13226    
                           A 13227    
                           A 13228    ; Stack Frame Size: 30 (bytes)
                           A 13229    ;       Spill Code: 0 (instruction)
                           A 13230    
                           A 13231    
                           A 13232    	SEGMENT STRSECT
0175B3                     A 13233    L__478:
0175B3 77696E2E 726177     A 13234    	DB	"win.raw"
0175BA 00                  A 13235    	DB	0
0175BB                     A 13236    L__479:
0175BB 77696E2E 70616C     A 13237    	DB	"win.pal"
0175C2 00                  A 13238    	DB	0
0175C3                     A 13239    L__480:
0175C3 6C6F7365 2E726177   A 13240    	DB	"lose.raw"
0175CB 00                  A 13241    	DB	0
Zilog eZ80 Macro Assembler Version 4.1 (10060805) RELISTED26-Aug-11     11:07:39     page: 256


PC     Object              I  Line    Source C:\Users\fog76\Desktop\CHFIGH~2\Debug\main.src
0175CC                     A 13242    L__481:
0175CC 6C6F7365 2E70616C   A 13243    	DB	"lose.pal"
0175D4 00                  A 13244    	DB	0
                           A 13245    	XREF _memset:ROM
                           A 13246    	XREF _memcpy:ROM
                           A 13247    	XREF _srand:ROM
                           A 13248    	XREF _rand:ROM
                           A 13249    	XREF _malloc:ROM
                           A 13250    	XREF _free:ROM
                           A 13251    	XREF __lcmps:ROM
                           A 13252    	XREF __lcmpu:ROM
                           A 13253    	XREF __ladd:ROM
                           A 13254    	XREF __imuls:ROM
                           A 13255    	XREF __lmuls:ROM
                           A 13256    	XREF __ldivu:ROM
                           A 13257    	XREF __lmulu:ROM
                           A 13258    	XREF __irems:ROM
                           A 13259    	XREF __lremu:ROM
                           A 13260    	XREF __fadd:ROM
                           A 13261    	XREF __fsub:ROM
                           A 13262    	XREF __fcmp:ROM
                           A 13263    	XREF __itol:ROM
                           A 13264    	XREF __ildix:ROM
                           A 13265    	XREF __istix:ROM
                           A 13266    	XREF __frameset0:ROM
                           A 13267    	XREF __frameset:ROM
                           A 13268    	XREF __seqcase:ROM
                           A 13269    	XREF __ladd_b:ROM
                           A 13270    	XREF __ishl_b:ROM
                           A 13271    	XDEF _Show_End_Screen
                           A 13272    	XDEF _Crea_Mossa
                           A 13273    	XDEF _Ottiemi_Mossa
                           A 13274    	XDEF _Draw_User_Selection
                           A 13275    	XDEF _Save_Back_Selection
                           A 13276    	XDEF _MainMenu
                           A 13277    	XDEF _Fill_Rectangle
                           A 13278    	XDEF _Draw_Trans_Image
                           A 13279    	XDEF _Draw_Image
                           A 13280    	XDEF _Load_Components
                           A 13281    	XDEF _Free_All_Mem
                           A 13282    	XDEF _Play_Raw_Audio
                           A 13283    	XDEF _Disable_Audio
                           A 13284    	XDEF _print
                           A 13285    	XDEF _GetKeyScanCode
                           A 13286    	XDEF _WaitKeyPress
                           A 13287    	XDEF _MyMain
                           A 13288    	XDEF _controllo
                           A 13289    	XDEF _apri
                           A 13290    	XDEF _acquisisci
                           A 13291    	XDEF _modifica
                           A 13292    	XDEF _mossaimposs
                           A 13293    	XDEF _stampap
Zilog eZ80 Macro Assembler Version 4.1 (10060805) RELISTED26-Aug-11     11:07:39     page: 257


PC     Object              I  Line    Source C:\Users\fog76\Desktop\CHFIGH~2\Debug\main.src
                           A 13294    	XDEF _posiniz
                           A 13295    	XDEF _Set_PosScac
                           A 13296    	XDEF _inizializza
                           A 13297    	XDEF _vincitore
                           A 13298    	XDEF _raccogli
                           A 13299    	XDEF _BlackOut
                           A 13300    	XDEF _Load_Raw_Data
                           A 13301    	XDEF _Set_320_240_Mode
                           A 13302    	XDEF _Palette
                           A 13303    	XDEF _MainFileSize
                           A 13304    	XDEF _MainDest
                           A 13305    	XDEF _MainFile
                           A 13306    	XDEF _main
                           A 13307    	XDEF _PlayerColor
                           A 13308    	XDEF _User
                           A 13309    	XDEF _Mossa2
                           A 13310    	XDEF _Mossa1
                           A 13311    	XDEF _gScanCode
                           A 13312    	XDEF _DeleteBack
                           A 13313    	XDEF _chAbort
                           A 13314    	XDEF _mLivello
                           A 13315    	XDEF _mColore
                           A 13316    	XDEF _Neri
                           A 13317    	XDEF _Bianchi
                           A 13318    	XDEF _bPiece
                           A 13319    	XDEF _wPiece
                           A 13320    	XDEF _bsel
                           A 13321    	XDEF _rSel
                           A 13322    	XDEF _wSel
                           A 13323    	XDEF _bPlay
                           A 13324    	XDEF _wPlay
                           A 13325    	XDEF _Think
                           A 13326    	XDEF _mHard
                           A 13327    	XDEF _mNormal
                           A 13328    	XDEF _mBlack
                           A 13329    	XDEF _mWhite
                           A 13330    	XDEF _mSelect
                           A 13331    	XDEF _cont
                           A 13332    	XDEF _ap
                           A 13333    	XDEF _possibili
                           A 13334    	XDEF _ramo
                           A 13335    	XDEF _livello
                           A 13336    	XDEF _prof
                           A 13337    	XDEF _effe
                           A 13338    	XDEF _nmossa
                           A 13339    	XDEF _col_prof
                           A 13340    	XDEF _PosScac
                           A 13341    	XDEF _oldscac
                           A 13342    	XDEF _scac
                           A 13343    	XDEF _mossa_in_analisi
                           A 13344    	XDEF _mossa_giocata
                           A 13345    	XDEF _PaletteMem
Zilog eZ80 Macro Assembler Version 4.1 (10060805) RELISTED26-Aug-11     11:07:39     page: 258


PC     Object              I  Line    Source C:\Users\fog76\Desktop\CHFIGH~2\Debug\main.src
                           A 13346    	XDEF _VideoMem
                           A 13347    	END


Errors: 0
Warnings: 0
Lines Assembled: 13348
