Zilog eZ80 Macro Assembler Version 4.1 (10060805) RELISTED19-Sep-11     11:50:04     page:   1


PC     Object              I  Line    Source 
                           A     1    ; Zilog eZ80 ANSI C Compiler Release 3.3
                           A     2    ; -nomodsect -optspeed -noreduceopt -peephole -
                           A     3    ; -localcse -const=ROM 
                           A     4    	FILE	"..\MAIN.C"
                           A     5    	.assume ADL=1
                           A     6    	SEGMENT DATA
014678                     A     7    _mlSec:
014678 0000                A     8    	DW	0
01467A 00                  A     9    	DB	0
01467B                     A    10    _mlMSec:
01467B 0000                A    11    	DW	0
                           A    12    	SEGMENT BSS
0139E1                     A    13    _TxtPnt:
0139E1                     A    14    	DS	3
0139E4                     A    15    _MainFile:
0139E4                     A    16    	DS	3
0139E7                     A    17    _Param:
0139E7                     A    18    	DS	3
0139EA                     A    19    _MainDest:
0139EA                     A    20    	DS	3
0139ED                     A    21    _MainFileSize:
0139ED                     A    22    	DS	3
0139F0                     A    23    _g_AValue:
0139F0                     A    24    	DS	1
0139F1                     A    25    _g_SValue:
0139F1                     A    26    	DS	1
0139F2                     A    27    _K_xHL:
0139F2                     A    28    	DS	3
                           A    29    ;    1	#include <Stdio.h>
                           A    30    ;    2	#include <Stdlib.h>
                           A    31    ;    3	#include <String.h>
                           A    32    ;    4	
                           A    33    ;    5	#define ENABLE_MSEC_COUNTER			1
                           A    34    ;    6	#define DISABLE_MSEC_COUNTER		0
                           A    35    ;    7	
                           A    36    ;    8	#include "PROSE_Header.h"
                           A    37    ;    9	
                           A    38    ;   10	/*-------------------------------------
                           A    39    ;   11	unsigned int mlSec = 0;
                           A    40    ;   12	short int mlMSec = 0;
                           A    41    ;   13	static char *TxtPnt;
                           A    42    ;   14	char *MainFile, *Param;
                           A    43    ;   15	unsigned char *MainDest;
                           A    44    ;   16	unsigned int MainFileSize;
                           A    45    ;   17	static unsigned char g_AValue, g_SValue
                           A    46    ;   18	unsigned int K_xHL;
                           A    47    	SEGMENT CODE
                           A    48    ;   19	
                           A    49    ;   20	void MyMain(void);
                           A    50    ;   21	
                           A    51    ;   22	void MSec_Counter(char Enable);
                           A    52    ;   23	unsigned long Read_MSec_Counter(void);
Zilog eZ80 Macro Assembler Version 4.1 (10060805) RELISTED19-Sep-11     11:50:04     page:   2


PC     Object              I  Line    Source C:\DOCUME~1\_Enzo_\Desktop\Zapp\Debug\main.src
                           A    53    ;   24	void print(const char *Txt);
                           A    54    ;   25	
                           A    55    ;   26	int Load_Bin_Data(const char *FName, co
                           A    56    ;   27	int File_Exists(const char *FName);
                           A    57    ;   28	int Create_File(const char *FName);
                           A    58    ;   29	void mDelay(int Millisec);
                           A    59    ;   30	void ReadKbd(unsigned char *Ascii, unsi
                           A    60    ;   31	
                           A    61    ;   32	int Handle_Input(void);
                           A    62    ;   33	void Load_Basic(void);
                           A    63    ;   34	
                           A    64    ;   35	void uitoa(unsigned int val, char *stri
                           A    65    ;   36	
                           A    66    ;   37	int Dump_Memory(const char *FName);
                           A    67    ;   38	void Dump_In_File(void);
                           A    68    ;   39	int Load_Dump(void);
                           A    69    ;   40	/*-------------------------------------
                           A    70    ;   41	
                           A    71    ;   42	void main(void)
                           A    72    ;   43	{
010000                     A    73    _main:
                           A    74    ;   44		INIT_HARDWARE;
       0000009A            A    75    PB_DR		equ 09Ah
       0000009B            A    76    PB_DDR		equ 09Bh
       0000009C            A    77    PB_ALT1		equ 09Ch
       0000009D            A    78    PB_ALT2		equ 09Dh
       0000009E            A    79    PC_DR		equ 09Eh
       0000009F            A    80    PC_DDR		equ 09Fh
       000000A0            A    81    PC_ALT1		equ 0A0h
       000000A1            A    82    PC_ALT2		equ 0A1h
       000000A2            A    83    PD_DR		equ 0A2h
       000000A3            A    84    PD_DDR		equ 0A3h
       000000A4            A    85    PD_ALT1		equ 0A4h
       000000A5            A    86    PD_ALT2		equ 0A5h
       000000C0            A    87    UART0_RBR	equ 0C0h
       000000C0            A    88    UART0_THR	equ 0C0h
       000000C0            A    89    UART0_BRG_L	equ 0C0h
       000000C1            A    90    UART0_BRG_H	equ 0C1h
       000000C1            A    91    UART0_IER	equ 0C1h
       000000C2            A    92    UART0_FCTL	equ 0C2h
       000000C3            A    93    UART0_LCTL	equ 0C3h
       000000C4            A    94    UART0_MCTL	equ 0C4h
       000000C5            A    95    UART0_LSR	equ 0C5h
       000000C6            A    96    UART0_MSR	equ 0C6h
       000000A8            A    97    CS0_LBR		equ 0A8h
       000000A9            A    98    CS0_UBR		equ 0A9h
       000000AA            A    99    CS0_CTL		equ 0AAh
       000000AB            A   100    CS1_LBR		equ 0ABh
       000000AC            A   101    CS1_UBR		equ 0ACh
       000000AD            A   102    CS1_CTL		equ 0ADh
       000000AE            A   103    CS2_LBR		equ 0AEh
       000000AF            A   104    CS2_UBR		equ 0AFh
Zilog eZ80 Macro Assembler Version 4.1 (10060805) RELISTED19-Sep-11     11:50:04     page:   3


PC     Object              I  Line    Source C:\DOCUME~1\_Enzo_\Desktop\Zapp\Debug\main.src
       000000B0            A   105    CS2_CTL		equ 0B0h
       000000B1            A   106    CS3_LBR		equ 0B1h
       000000B2            A   107    CS3_UBR		equ 0B2h
       000000B3            A   108    CS3_CTL		equ 0B3h
       00000080            A   109    TMR0_CTL		equ 080h
       00000081            A   110    TMR0_DR_L	equ 081h
       00000081            A   111    TMR0_RR_L	equ 081h
       00000082            A   112    TMR0_DR_H	equ 082h
       00000082            A   113    TMR0_RR_H	equ 082h
       00000092            A   114    TMR_ISS		equ 092h
       000000ED            A   115    RTC_CTRL		equ 0EDh
       000000EC            A   116    RTC_ACTRL	equ 0ECh
       000000E0            A   117    RTC_SEC		equ 0E0h
       000000E1            A   118    RTC_MIN		equ 0E1h
       000000E2            A   119    RTC_HRS		equ 0E2h
       000000E3            A   120    RTC_DOW		equ 0E3h
       000000E4            A   121    RTC_DOM		equ 0E4h
       000000E5            A   122    RTC_MON		equ 0E5h
       000000E6            A   123    RTC_YR		equ 0E6h
       000000E7            A   124    RTC_CEN		equ 0E7h
       00000000            A   125    port_pic_data		equ 000h
       00000001            A   126    port_pic_ctrl		equ 001h
       00000001            A   127    port_hw_flags		equ 001h
       00000002            A   128    port_sdc_ctrl		equ 002h
       00000002            A   129    port_keyboard_data	equ 002h
       00000003            A   130    port_sdc_data		equ 003h
       00000004            A   131    port_memory_paging	equ 004h
       00000005            A   132    port_irq_ctrl		equ 005h
       00000006            A   133    port_nmi_ack			equ 006h
       00000007            A   134    port_ps2_ctrl		equ 007h
       00000008            A   135    port_selector		equ 008h
       00000006            A   136    port_mouse_data		equ 006h
       00000009            A   137    port_clear_flags		equ 009h
       00000000            A   138    sdc_power			equ 0h
       00000001            A   139    sdc_cs				equ 1h
       00000002            A   140    sdc_speed			equ 2h
       00000004            A   141    sdc_serializer_busy	equ 4h
       00000005            A   142    vrt					equ 5h
       00000000            A   143    sysram_addr			equ 0000000h
       00800000            A   144    vram_a_addr			equ 0800000h
       00C00000            A   145    vram_b_addr			equ 0C00000h
       00FF0000            A   146    hw_palette			equ 0ff0000h
       00FF0800            A   147    hw_sprite_registers	equ 0ff0800h
       00FF1000            A   148    hw_video_parameters	equ 0ff1000h
       00FF1400            A   149    hw_audio_registers	equ 0ff1400h
       00FF1800            A   150    hw_video_settings	equ 0ff1800h
       00FF1000            A   151    tilemap_parameters	equ hw_video_parameters + 0
       00FF1020            A   152    bitmap_parameters	equ hw_video_parameters + 2
       00FF1800            A   153    video_control		equ hw_video_settings + 00h
       00FF1801            A   154    sprite_control		equ hw_video_settings + 01h
       00FF1802            A   155    bgnd_palette_select	equ hw_video_settings + 02h
       00FF1803            A   156    sprite_palette_select	equ hw_video_settings +
Zilog eZ80 Macro Assembler Version 4.1 (10060805) RELISTED19-Sep-11     11:50:04     page:   4


PC     Object              I  Line    Source C:\DOCUME~1\_Enzo_\Desktop\Zapp\Debug\main.src
       00FF1804            A   157    right_border_position	equ hw_video_settings +
       00000A00            A   158    os_start			equ 0A00h
       00000A14            A   159    prose_return		equ os_start + 14h
       00000A20            A   160    prose_kernal		equ os_start + 20h
                           A   161    ;   45		INIT_KJT;
       00000000            A   162    kr_mount_volumes			equ 00h
       00000001            A   163    kr_get_device_info		equ 01h
       00000002            A   164    kr_check_volume_format	equ 02h
       00000003            A   165    kr_change_volume			equ 03h
       00000004            A   166    kr_get_volume_info		equ 04h
       00000005            A   167    kr_format_device			equ 05h
       00000006            A   168    kr_make_dir				equ 06h
       00000007            A   169    kr_change_dir			equ 07h
       00000008            A   170    kr_parent_dir			equ 08h
       00000009            A   171    kr_root_dir				equ 09h
       0000000A            A   172    kr_delete_dir			equ 0Ah
       0000000B            A   173    kr_find_file				equ 0Bh
       0000000C            A   174    kr_set_file_pointer		equ 0Ch
       0000000D            A   175    kr_set_load_length		equ 0Dh
       0000000E            A   176    kr_read_file				equ 0Eh
       0000000F            A   177    kr_erase_file			equ 0Fh
       00000010            A   178    kr_rename_file			equ 10h
       00000011            A   179    kr_create_file			equ 11h
       00000012            A   180    kr_write_file			equ 12h
       00000013            A   181    kr_get_total_sectors		equ 13h
       00000014            A   182    kr_dir_list_first_entry	equ 14h
       00000015            A   183    kr_dir_list_get_entry	equ 15h
       00000016            A   184    kr_dir_list_next_entry	equ 16h
       00000017            A   185    kr_read_sector			equ 17h
       00000018            A   186    kr_write_sector			equ 18h
       00000019            A   187    kr_file_sector_list		equ 19h
       0000001A            A   188    kr_get_dir_cluster		equ 1Ah
       0000001B            A   189    kr_set_dir_cluster		equ 1Bh
       0000001C            A   190    kr_get_dir_name			equ 1Ch
       0000001D            A   191    kr_wait_key				equ 1Dh
       0000001E            A   192    kr_get_key				equ 1Eh
       0000001F            A   193    kr_get_key_mod_flags		equ 1Fh
       00000020            A   194    kr_serial_receive_header	equ 20h
       00000021            A   195    kr_serial_receive_file	equ 21h
       00000022            A   196    kr_serial_send_file		equ 22h
       00000023            A   197    kr_serial_tx_byte		equ 23h
       00000024            A   198    kr_serial_rx_byte		equ 24h
       00000025            A   199    kr_print_string			equ 25h
       00000026            A   200    kr_clear_screen			equ 26h
       00000027            A   201    kr_wait_vrt				equ 27h
       00000028            A   202    kr_set_cursor_position	equ 28h
       00000029            A   203    kr_plot_char				equ 29h
       0000002A            A   204    kr_set_pen				equ 2Ah
       0000002B            A   205    kr_background_colours	equ 2Bh
       0000002C            A   206    kr_draw_cursor			equ 2Ch
       0000002D            A   207    kr_get_pen				equ 2Dh
       0000002E            A   208    kr_scroll_up				equ 2Eh
Zilog eZ80 Macro Assembler Version 4.1 (10060805) RELISTED19-Sep-11     11:50:04     page:   5


PC     Object              I  Line    Source C:\DOCUME~1\_Enzo_\Desktop\Zapp\Debug\main.src
       0000002F            A   209    kr_os_display			equ 2Fh
       00000030            A   210    kr_get_display_size		equ 30h
       00000031            A   211    kr_get_charmap_addr_xy	equ 31h
       00000032            A   212    kr_get_cursor_position	equ 32h
       00000033            A   213    kr_set_envar				equ 33h
       00000034            A   214    kr_get_envar				equ 34h
       00000035            A   215    kr_delete_envar			equ 35h
       00000036            A   216    kr_set_mouse_window		equ 36h
       00000037            A   217    kr_get_mouse_position	equ 37h
       00000038            A   218    kr_get_mouse_motion		equ 38h
       00000039            A   219    kr_time_delay			equ 39h
       0000003A            A   220    kr_compare_strings		equ 3Ah
       0000003B            A   221    kr_hex_byte_to_ascii		equ 3Bh
       0000003C            A   222    kr_ascii_to_hex_word		equ 3Ch
       0000003D            A   223    kr_get_string			equ 3Dh
       0000003E            A   224    kr_get_version			equ 3Eh
       0000003F            A   225    kr_dont_store_registers	equ 3Fh
       00000040            A   226    kr_get_font_info			equ 40h
       00000041            A   227    kr_read_rtc				equ 41h
       00000042            A   228    kr_write_rtc				equ 42h
       00000043            A   229    kr_get_keymap_location	equ 43h
       00000053            A   230    kr_init_msec_counter		equ 53h
       00000054            A   231    kr_read_msec_counter		equ 54h
                           A   232    ;   46		
                           A   233    ;   47		CREATE_HEADER;
010000 18 0E               A   234    jr skip_header
010002 50524F              A   235    db 'PRO'
010005 000001              A   236    mb_loc dw24 10000h
010008 000000              A   237    dw24 0
01000B 0000                A   238    dw 0
01000D 0000                A   239    dw 0
01000F 01                  A   240    db 1
010010                     A   241    skip_header
                           A   242    ;   48		
                           A   243    ;   49		Param = NULL;
010010 01000000            A   244    	LD	BC,0
010014 ED43 E7 39 01       A   245    	LD	(_Param),BC
                           A   246    ;   50		
                           A   247    ;   51		asm ("ld a, (hl)");
010019 7E                  A   248    ld a, (hl)
                           A   249    ;   52		asm ("or a");
01001A B7                  A   250    or a
                           A   251    ;   53		asm ("jr z, no_param");
01001B 28 0E               A   252    jr z, no_param
                           A   253    ;   54		asm ("ld (_K_xHL), hl");
01001D 22 F2 39 01         A   254    ld (_K_xHL), hl
                           A   255    ;   55		
                           A   256    ;   56		Param = (char *)K_xHL;
010021 ED4B F2 39 01       A   257    	LD	BC,(_K_xHL)
010026 ED43 E7 39 01       A   258    	LD	(_Param),BC
                           A   259    ;   57		
                           A   260    ;   58		asm ("no_param:");
Zilog eZ80 Macro Assembler Version 4.1 (10060805) RELISTED19-Sep-11     11:50:04     page:   6


PC     Object              I  Line    Source C:\DOCUME~1\_Enzo_\Desktop\Zapp\Debug\main.src
01002B                     A   261    no_param:
                           A   262    ;   59		
                           A   263    ;   60		MyMain();
01002B CD 82 2C 01         A   264    	CALL	_MyMain
                           A   265    ;   61		
                           A   266    ;   62		QUIT_TO_PROSE;
01002F AF                  A   267    xor a
010030 5BC3140A 00         A   268    jp.lil prose_return
010035 C9                  A   269    	RET	
                           A   270    
                           A   271    
                           A   272    ;**************************** _main ***********
                           A   273    ;Name                         Addr/Register   S
                           A   274    ;_MyMain                             IMPORT  --
                           A   275    ;_K_xHL                              STATIC    
                           A   276    ;_Param                              STATIC    
                           A   277    
                           A   278    
                           A   279    ; Stack Frame Size: 6 (bytes)
                           A   280    ;       Spill Code: 0 (instruction)
                           A   281    
                           A   282    
                           A   283    	SEGMENT DATA
01467D                     A   284    _VideoMem:
01467D 005080              A   285    	DW24	8409088
014680                     A   286    _VideoMemScroll:
014680 005A80              A   287    	DW24	8411648
014683                     A   288    _PaletteMem:
014683 0000FF              A   289    	DW24	16711680
                           A   290    	SEGMENT BSS
0139F5                     A   291    _screenTbl:
0139F5                     A   292    	DS	960
013DB5                     A   293    _oldscreenTbl:
013DB5                     A   294    	DS	960
014175                     A   295    _indexX:
014175                     A   296    	DS	3
014178                     A   297    _indexY:
014178                     A   298    	DS	3
                           A   299    	SEGMENT DATA
014686                     A   300    _terminalSpeed:
014686 3C00                A   301    	DW	60
014688 00                  A   302    	DB	0
                           A   303    	SEGMENT BSS
01417B                     A   304    _oldindexX:
01417B                     A   305    	DS	3
01417E                     A   306    _oldindexY:
01417E                     A   307    	DS	3
014181                     A   308    _YOffset:
014181                     A   309    	DS	720
                           A   310    	SEGMENT DATA
014689                     A   311    _Characters:
014689 000000              A   312    	DW24	0
Zilog eZ80 Macro Assembler Version 4.1 (10060805) RELISTED19-Sep-11     11:50:04     page:   7


PC     Object              I  Line    Source C:\DOCUME~1\_Enzo_\Desktop\Zapp\Debug\main.src
                           A   313    	SEGMENT BSS
014451                     A   314    _lastTime:
014451                     A   315    	DS	4*1
014455                     A   316    _Palette:
014455                     A   317    	DS	512
                           A   318    	SEGMENT CODE
010036                     A   319    _Set_320_240_Mode:
010036 DDE5                A   320    push ix
010038 3E06                A   321    ld a, 0110b
01003A 320018FF            A   322    ld (video_control), a
01003E 3E00                A   323    ld a, 0
010040 320218FF            A   324    ld (bgnd_palette_select), a
010044 3E63                A   325    ld a, 99
010046 320418FF            A   326    ld (right_border_position), a
01004A DD212010 FF         A   327    ld ix, bitmap_parameters
01004F 21005000            A   328    ld hl, 1024 * 20
010053 DD2F00              A   329    ld (ix), hl
010056 DD360401            A   330    ld (ix+04h), 1
01005A DD360800            A   331    ld (ix+08h), 0
01005E DD360C00            A   332    ld (ix+0ch), 0
010062 DD361027            A   333    ld (ix+10h), 0 + (320 / 8) - 1
010066 2A 7D 46 01         A   334    ld hl, (_VideoMem)
01006A 3600                A   335    ld (hl), 0
01006C E5                  A   336    push hl
01006D D1                  A   337    pop de
01006E 13                  A   338    inc de
01006F 01002C01            A   339    ld bc, 320*240
010073 0B                  A   340    dec bc
010074 EDB0                A   341    ldir
010076 DDE1                A   342    pop ix
010078 C9                  A   343    	RET	
                           A   344    
                           A   345    
                           A   346    ;**************************** _Set_320_240_Mode
                           A   347    ;Name                         Addr/Register   S
                           A   348    
                           A   349    
                           A   350    ; Stack Frame Size: 6 (bytes)
                           A   351    ;       Spill Code: 0 (instruction)
                           A   352    
                           A   353    
010079                     A   354    _LoadCharMap:
010079 01000400            A   355    	LD	BC,1024
01007D C5                  A   356    	PUSH	BC
01007E CD EC 34 01         A   357    	CALL	_malloc
010082 C1                  A   358    	POP	BC
010083 22 89 46 01         A   359    	LD	(_Characters),HL
010087 01000400            A   360    	LD	BC,1024
01008B C5                  A   361    	PUSH	BC
01008C ED4B 89 46 01       A   362    	LD	BC,(_Characters)
010091 C5                  A   363    	PUSH	BC
010092 01 C2 37 01         A   364    	LD	BC,L__2
Zilog eZ80 Macro Assembler Version 4.1 (10060805) RELISTED19-Sep-11     11:50:04     page:   8


PC     Object              I  Line    Source C:\DOCUME~1\_Enzo_\Desktop\Zapp\Debug\main.src
010096 C5                  A   365    	PUSH	BC
010097 CD 19 2E 01         A   366    	CALL	_Load_Bin_Data
01009B C1                  A   367    	POP	BC
01009C C1                  A   368    	POP	BC
01009D C1                  A   369    	POP	BC
01009E C9                  A   370    	RET	
                           A   371    
                           A   372    
                           A   373    ;**************************** _LoadCharMap ****
                           A   374    ;Name                         Addr/Register   S
                           A   375    ;_Load_Bin_Data                      IMPORT  --
                           A   376    ;_Characters                         STATIC    
                           A   377    ;_malloc                             IMPORT  --
                           A   378    
                           A   379    
                           A   380    ; Stack Frame Size: 6 (bytes)
                           A   381    ;       Spill Code: 0 (instruction)
                           A   382    
                           A   383    
                           A   384    	SEGMENT STRSECT
0137C2                     A   385    L__2:
0137C2 43484152 4D41502E   A   386    	DB	"CHARMAP.ROM"
0137CA 524F4D 
0137CD 00                  A   387    	DB	0
                           A   388    	SEGMENT CODE
01009F                     A   389    _Blit_Char:
01009F 21F3FFFF            A   390    	LD	HL,-13
0100A3 CD 3A 36 01         A   391    	CALL	__frameset
0100A7 DD2709              A   392    	LD	HL,(IX+9)
0100AA 29                  A   393    	ADD	HL,HL
0100AB 29                  A   394    	ADD	HL,HL
0100AC B7                  A   395    	OR	A,A
0100AD DD0709              A   396    	LD	BC,(IX+9)
0100B0 ED42                A   397    	SBC	HL,BC
0100B2 01 81 41 01         A   398    	LD	BC,_YOffset
0100B6 09                  A   399    	ADD	HL,BC
0100B7 ED27                A   400    	LD	HL,(HL)
0100B9 DD0706              A   401    	LD	BC,(IX+6)
0100BC 09                  A   402    	ADD	HL,BC
0100BD DD2FF9              A   403    	LD	(IX+-7),HL
0100C0 DD7E0C              A   404    	LD	A,(IX+12)
0100C3 B7ED62              A   405    	UEXT	HL
0100C6 6F                  A   406    	LD	L,A
0100C7 29                  A   407    	ADD	HL,HL
0100C8 29                  A   408    	ADD	HL,HL
0100C9 29                  A   409    	ADD	HL,HL
0100CA ED4B 89 46 01       A   410    	LD	BC,(_Characters)
0100CF 09                  A   411    	ADD	HL,BC
0100D0 DD2FF6              A   412    	LD	(IX+-10),HL
0100D3 01000000            A   413    	LD	BC,0
0100D7 DD0FF3              A   414    	LD	(IX+-13),BC
0100DA 18 73               A   415    	JR	L_15
Zilog eZ80 Macro Assembler Version 4.1 (10060805) RELISTED19-Sep-11     11:50:04     page:   9


PC     Object              I  Line    Source C:\DOCUME~1\_Enzo_\Desktop\Zapp\Debug\main.src
0100DC                     A   416    L_13:
0100DC DD36FC80            A   417    	LD	(IX+-4),128
0100E0 01080000            A   418    	LD	BC,8
0100E4 DD0FFD              A   419    	LD	(IX+-3),BC
0100E7 18 40               A   420    	JR	L_10
0100E9                     A   421    L_8:
0100E9 DD27F6              A   422    	LD	HL,(IX+-10)
0100EC 7E                  A   423    	LD	A,(HL)
0100ED DDA6FC              A   424    	AND	A,(IX+-4)
0100F0 28 11               A   425    	JR	Z,L_6
0100F2 DD07FD              A   426    	LD	BC,(IX+-3)
0100F5 DD27F9              A   427    	LD	HL,(IX+-7)
0100F8 09                  A   428    	ADD	HL,BC
0100F9 ED4B 7D 46 01       A   429    	LD	BC,(_VideoMem)
0100FE 09                  A   430    	ADD	HL,BC
0100FF 36FF                A   431    	LD	(HL),255
010101 18 0F               A   432    	JR	L_7
010103                     A   433    L_6:
010103 DD07FD              A   434    	LD	BC,(IX+-3)
010106 DD27F9              A   435    	LD	HL,(IX+-7)
010109 09                  A   436    	ADD	HL,BC
01010A ED4B 7D 46 01       A   437    	LD	BC,(_VideoMem)
01010F 09                  A   438    	ADD	HL,BC
010110 3600                A   439    	LD	(HL),0
010112                     A   440    L_7:
010112 DD7EFC              A   441    	LD	A,(IX+-4)
010115 B7ED62              A   442    	UEXT	HL
010118 6F                  A   443    	LD	L,A
010119 3E01                A   444    	LD	A,1
01011B CD 82 35 01         A   445    	CALL	__ishrs_b
01011F DD75FC              A   446    	LD	(IX+-4),L
010122 DD07FD              A   447    	LD	BC,(IX+-3)
010125 0B                  A   448    	DEC	BC
010126 DD0FFD              A   449    	LD	(IX+-3),BC
010129                     A   450    L_10:
010129 DD07FD              A   451    	LD	BC,(IX+-3)
01012C B7                  A   452    	OR	A,A
01012D ED62                A   453    	SBC	HL,HL
01012F B7                  A   454    	OR	A,A
010130 ED42                A   455    	SBC	HL,BC
010132 FA E9 00 01         A   456    	JP	M,L_8
010136 01400100            A   457    	LD	BC,320
01013A DD27F9              A   458    	LD	HL,(IX+-7)
01013D 09                  A   459    	ADD	HL,BC
01013E DD2FF9              A   460    	LD	(IX+-7),HL
010141 DD07F6              A   461    	LD	BC,(IX+-10)
010144 03                  A   462    	INC	BC
010145 DD0FF6              A   463    	LD	(IX+-10),BC
010148 DD07F3              A   464    	LD	BC,(IX+-13)
01014B 03                  A   465    	INC	BC
01014C DD0FF3              A   466    	LD	(IX+-13),BC
01014F                     A   467    L_15:
Zilog eZ80 Macro Assembler Version 4.1 (10060805) RELISTED19-Sep-11     11:50:04     page:  10


PC     Object              I  Line    Source C:\DOCUME~1\_Enzo_\Desktop\Zapp\Debug\main.src
01014F 01080000            A   468    	LD	BC,8
010153 DD27F3              A   469    	LD	HL,(IX+-13)
010156 B7                  A   470    	OR	A,A
010157 ED42                A   471    	SBC	HL,BC
010159 FA 63 01 01         A   472    	JP	M,L__7
01015D EA DC 00 01         A   473    	JP	PE,L_13
010161 18 04               A   474    	JR	L__8
010163                     A   475    L__7:
010163 E2 DC 00 01         A   476    	JP	PO,L_13
010167                     A   477    L__8:
010167 DDF9                A   478    	LD	SP,IX
010169 DDE1                A   479    	POP	IX
01016B C9                  A   480    	RET	
                           A   481    
                           A   482    
                           A   483    ;**************************** _Blit_Char ******
                           A   484    ;Name                         Addr/Register   S
                           A   485    ;_VideoMem                           STATIC    
                           A   486    ;_Characters                         STATIC    
                           A   487    ;_YOffset                            STATIC    
                           A   488    ;y                                    IX-13    
                           A   489    ;work_char                            IX-10    
                           A   490    ;offset                                IX-7    
                           A   491    ;bit_mask                              IX-4    
                           A   492    ;x                                     IX-3    
                           A   493    ;c                                    IX+12    
                           A   494    ;yc                                    IX+9    
                           A   495    ;xc                                    IX+6    
                           A   496    
                           A   497    
                           A   498    ; Stack Frame Size: 28 (bytes)
                           A   499    ;       Spill Code: 0 (instruction)
                           A   500    
                           A   501    
01016C                     A   502    _Blit_String:
01016C 21FDFFFF            A   503    	LD	HL,-3
010170 CD 3A 36 01         A   504    	CALL	__frameset
010174 01000000            A   505    	LD	BC,0
010178 DD0FFD              A   506    	LD	(IX+-3),BC
01017B 18 28               A   507    	JR	L_20
01017D                     A   508    L_18:
01017D DD07FD              A   509    	LD	BC,(IX+-3)
010180 DD270C              A   510    	LD	HL,(IX+12)
010183 09                  A   511    	ADD	HL,BC
010184 4E                  A   512    	LD	C,(HL)
010185 0600                A   513    	LD	B,0
010187 C5                  A   514    	PUSH	BC
010188 DD0709              A   515    	LD	BC,(IX+9)
01018B C5                  A   516    	PUSH	BC
01018C DD27FD              A   517    	LD	HL,(IX+-3)
01018F 29                  A   518    	ADD	HL,HL
010190 29                  A   519    	ADD	HL,HL
Zilog eZ80 Macro Assembler Version 4.1 (10060805) RELISTED19-Sep-11     11:50:04     page:  11


PC     Object              I  Line    Source C:\DOCUME~1\_Enzo_\Desktop\Zapp\Debug\main.src
010191 29                  A   520    	ADD	HL,HL
010192 DD0706              A   521    	LD	BC,(IX+6)
010195 09                  A   522    	ADD	HL,BC
010196 E5                  A   523    	PUSH	HL
010197 CD 9F 00 01         A   524    	CALL	_Blit_Char
01019B C1                  A   525    	POP	BC
01019C C1                  A   526    	POP	BC
01019D C1                  A   527    	POP	BC
01019E DD07FD              A   528    	LD	BC,(IX+-3)
0101A1 03                  A   529    	INC	BC
0101A2 DD0FFD              A   530    	LD	(IX+-3),BC
0101A5                     A   531    L_20:
0101A5 DD070C              A   532    	LD	BC,(IX+12)
0101A8 C5                  A   533    	PUSH	BC
0101A9 CD DB 35 01         A   534    	CALL	_strlen
0101AD C1                  A   535    	POP	BC
0101AE E5C1                A   536    	LD	BC,HL
0101B0 DD27FD              A   537    	LD	HL,(IX+-3)
0101B3 B7                  A   538    	OR	A,A
0101B4 ED42                A   539    	SBC	HL,BC
0101B6 38 C5               A   540    	JR	C,L_18
0101B8 DDF9                A   541    	LD	SP,IX
0101BA DDE1                A   542    	POP	IX
0101BC C9                  A   543    	RET	
                           A   544    
                           A   545    
                           A   546    ;**************************** _Blit_String ****
                           A   547    ;Name                         Addr/Register   S
                           A   548    ;_strlen                             IMPORT  --
                           A   549    ;index                                 IX-3    
                           A   550    ;str                                  IX+12    
                           A   551    ;y                                     IX+9    
                           A   552    ;x                                     IX+6    
                           A   553    
                           A   554    
                           A   555    ; Stack Frame Size: 18 (bytes)
                           A   556    ;       Spill Code: 0 (instruction)
                           A   557    
                           A   558    
0101BD                     A   559    _Show_Mode:
0101BD 01 CE 37 01         A   560    	LD	BC,L__12
0101C1 C5                  A   561    	PUSH	BC
0101C2 01DB0000            A   562    	LD	BC,219
0101C6 C5                  A   563    	PUSH	BC
0101C7 01500000            A   564    	LD	BC,80
0101CB C5                  A   565    	PUSH	BC
0101CC CD 6C 01 01         A   566    	CALL	_Blit_String
0101D0 C1                  A   567    	POP	BC
0101D1 C1                  A   568    	POP	BC
0101D2 C1                  A   569    	POP	BC
0101D3 CD 91 07 01         A   570    	CALL	_Mem_Mode
0101D7 01080000            A   571    	LD	BC,8
Zilog eZ80 Macro Assembler Version 4.1 (10060805) RELISTED19-Sep-11     11:50:04     page:  12


PC     Object              I  Line    Source C:\DOCUME~1\_Enzo_\Desktop\Zapp\Debug\main.src
0101DB B7                  A   572    	OR	A,A
0101DC ED42                A   573    	SBC	HL,BC
0101DE 20 18               A   574    	JR	NZ,L_23
0101E0 01 D9 37 01         A   575    	LD	BC,L__14
0101E4 C5                  A   576    	PUSH	BC
0101E5 01DB0000            A   577    	LD	BC,219
0101E9 C5                  A   578    	PUSH	BC
0101EA 01500000            A   579    	LD	BC,80
0101EE C5                  A   580    	PUSH	BC
0101EF CD 6C 01 01         A   581    	CALL	_Blit_String
0101F3 C1                  A   582    	POP	BC
0101F4 C1                  A   583    	POP	BC
0101F5 C1                  A   584    	POP	BC
0101F6 18 16               A   585    	JR	L_24
0101F8                     A   586    L_23:
0101F8 01 E3 37 01         A   587    	LD	BC,L__15
0101FC C5                  A   588    	PUSH	BC
0101FD 01DB0000            A   589    	LD	BC,219
010201 C5                  A   590    	PUSH	BC
010202 01500000            A   591    	LD	BC,80
010206 C5                  A   592    	PUSH	BC
010207 CD 6C 01 01         A   593    	CALL	_Blit_String
01020B C1                  A   594    	POP	BC
01020C C1                  A   595    	POP	BC
01020D C1                  A   596    	POP	BC
01020E                     A   597    L_24:
01020E 01 EE 37 01         A   598    	LD	BC,L__16
010212 C5                  A   599    	PUSH	BC
010213 01DB0000            A   600    	LD	BC,219
010217 C5                  A   601    	PUSH	BC
010218 01A80000            A   602    	LD	BC,168
01021C C5                  A   603    	PUSH	BC
01021D CD 6C 01 01         A   604    	CALL	_Blit_String
010221 C1                  A   605    	POP	BC
010222 C1                  A   606    	POP	BC
010223 C1                  A   607    	POP	BC
010224 C9                  A   608    	RET	
                           A   609    
                           A   610    
                           A   611    ;**************************** _Show_Mode ******
                           A   612    ;Name                         Addr/Register   S
                           A   613    ;_Mem_Mode                           IMPORT  --
                           A   614    
                           A   615    
                           A   616    ; Stack Frame Size: 6 (bytes)
                           A   617    ;       Spill Code: 0 (instruction)
                           A   618    
                           A   619    
                           A   620    	SEGMENT STRSECT
0137CE                     A   621    L__12:
0137CE 20202020 20202020   A   622    	DB	"          "
0137D6 2020 
Zilog eZ80 Macro Assembler Version 4.1 (10060805) RELISTED19-Sep-11     11:50:04     page:  13


PC     Object              I  Line    Source C:\DOCUME~1\_Enzo_\Desktop\Zapp\Debug\main.src
0137D8 00                  A   623    	DB	0
0137D9                     A   624    L__14:
0137D9 4D4F4445 3A20384B   A   625    	DB	"MODE: 8KB"
0137E1 42 
0137E2 00                  A   626    	DB	0
0137E3                     A   627    L__15:
0137E3 4D4F4445 3A203634   A   628    	DB	"MODE: 64KB"
0137EB 4B42 
0137ED 00                  A   629    	DB	0
0137EE                     A   630    L__16:
0137EE 46333A43 48414E47   A   631    	DB	"F3:CHANGE MODE"
0137F6 45204D4F 4445 
0137FC 00                  A   632    	DB	0
                           A   633    	SEGMENT CODE
010225                     A   634    _Set_Screen:
010225 21FDFFFF            A   635    	LD	HL,-3
010229 CD 3A 36 01         A   636    	CALL	__frameset
01022D 01000000            A   637    	LD	BC,0
010231 DD0FFD              A   638    	LD	(IX+-3),BC
010234 18 2A               A   639    	JR	L_29
010236                     A   640    L_27:
010236 DD27FD              A   641    	LD	HL,(IX+-3)
010239 DD07FD              A   642    	LD	BC,(IX+-3)
01023C DD17FD              A   643    	LD	DE,(IX+-3)
01023F 29                  A   644    	ADD	HL,HL
010240 29                  A   645    	ADD	HL,HL
010241 09                  A   646    	ADD	HL,BC
010242 29                  A   647    	ADD	HL,HL
010243 29                  A   648    	ADD	HL,HL
010244 29                  A   649    	ADD	HL,HL
010245 29                  A   650    	ADD	HL,HL
010246 29                  A   651    	ADD	HL,HL
010247 29                  A   652    	ADD	HL,HL
010248 E5C1                A   653    	LD	BC,HL
01024A DD27FD              A   654    	LD	HL,(IX+-3)
01024D 29                  A   655    	ADD	HL,HL
01024E 29                  A   656    	ADD	HL,HL
01024F B7                  A   657    	OR	A,A
010250 ED52                A   658    	SBC	HL,DE
010252 11 81 41 01         A   659    	LD	DE,_YOffset
010256 19                  A   660    	ADD	HL,DE
010257 ED0F                A   661    	LD	(HL),BC
010259 DD07FD              A   662    	LD	BC,(IX+-3)
01025C 03                  A   663    	INC	BC
01025D DD0FFD              A   664    	LD	(IX+-3),BC
010260                     A   665    L_29:
010260 01F00000            A   666    	LD	BC,240
010264 DD27FD              A   667    	LD	HL,(IX+-3)
010267 B7                  A   668    	OR	A,A
010268 ED42                A   669    	SBC	HL,BC
01026A FA 74 02 01         A   670    	JP	M,L__22
01026E EA 36 02 01         A   671    	JP	PE,L_27
Zilog eZ80 Macro Assembler Version 4.1 (10060805) RELISTED19-Sep-11     11:50:04     page:  14


PC     Object              I  Line    Source C:\DOCUME~1\_Enzo_\Desktop\Zapp\Debug\main.src
010272 18 04               A   672    	JR	L__23
010274                     A   673    L__22:
010274 E2 36 02 01         A   674    	JP	PO,L_27
010278                     A   675    L__23:
010278 CD 36 00 01         A   676    	CALL	_Set_320_240_Mode
01027C 01000200            A   677    	LD	BC,512
010280 C5                  A   678    	PUSH	BC
010281 01000000            A   679    	LD	BC,0
010285 C5                  A   680    	PUSH	BC
010286 01 55 44 01         A   681    	LD	BC,_Palette
01028A C5                  A   682    	PUSH	BC
01028B CD EC 36 01         A   683    	CALL	_memset
01028F C1                  A   684    	POP	BC
010290 C1                  A   685    	POP	BC
010291 C1                  A   686    	POP	BC
010292 21 55 44 01         A   687    	LD	HL,_Palette
010296 3600                A   688    	LD	(HL),0
010298 23                  A   689    	INC	HL
010299 3600                A   690    	LD	(HL),0
01029B 21 55 44 01         A   691    	LD	HL,_Palette
01029F 01FE0100            A   692    	LD	BC,510
0102A3 09                  A   693    	ADD	HL,BC
0102A4 36F0                A   694    	LD	(HL),240
0102A6 23                  A   695    	INC	HL
0102A7 01000200            A   696    	LD	BC,512
0102AB C5                  A   697    	PUSH	BC
0102AC 3600                A   698    	LD	(HL),0
0102AE 01 55 44 01         A   699    	LD	BC,_Palette
0102B2 C5                  A   700    	PUSH	BC
0102B3 ED4B 83 46 01       A   701    	LD	BC,(_PaletteMem)
0102B8 C5                  A   702    	PUSH	BC
0102B9 CD 1E 36 01         A   703    	CALL	_memcpy
0102BD C1                  A   704    	POP	BC
0102BE C1                  A   705    	POP	BC
0102BF C1                  A   706    	POP	BC
0102C0 01000000            A   707    	LD	BC,0
0102C4 DD0FFD              A   708    	LD	(IX+-3),BC
0102C7 18 1E               A   709    	JR	L_34
0102C9                     A   710    L_32:
0102C9 01580200            A   711    	LD	BC,600
0102CD 21 81 41 01         A   712    	LD	HL,_YOffset
0102D1 09                  A   713    	ADD	HL,BC
0102D2 ED27                A   714    	LD	HL,(HL)
0102D4 DD17FD              A   715    	LD	DE,(IX+-3)
0102D7 ED4B 7D 46 01       A   716    	LD	BC,(_VideoMem)
0102DC 19                  A   717    	ADD	HL,DE
0102DD 09                  A   718    	ADD	HL,BC
0102DE 36FF                A   719    	LD	(HL),255
0102E0 DD07FD              A   720    	LD	BC,(IX+-3)
0102E3 03                  A   721    	INC	BC
0102E4 DD0FFD              A   722    	LD	(IX+-3),BC
0102E7                     A   723    L_34:
Zilog eZ80 Macro Assembler Version 4.1 (10060805) RELISTED19-Sep-11     11:50:04     page:  15


PC     Object              I  Line    Source C:\DOCUME~1\_Enzo_\Desktop\Zapp\Debug\main.src
0102E7 01400100            A   724    	LD	BC,320
0102EB DD27FD              A   725    	LD	HL,(IX+-3)
0102EE B7                  A   726    	OR	A,A
0102EF ED42                A   727    	SBC	HL,BC
0102F1 FA FB 02 01         A   728    	JP	M,L__24
0102F5 EA C9 02 01         A   729    	JP	PE,L_32
0102F9 18 04               A   730    	JR	L__25
0102FB                     A   731    L__24:
0102FB E2 C9 02 01         A   732    	JP	PO,L_32
0102FF                     A   733    L__25:
0102FF 01 FD 37 01         A   734    	LD	BC,L__20
010303 C5                  A   735    	PUSH	BC
010304 01D20000            A   736    	LD	BC,210
010308 C5                  A   737    	PUSH	BC
010309 01000000            A   738    	LD	BC,0
01030D C5                  A   739    	PUSH	BC
01030E CD 6C 01 01         A   740    	CALL	_Blit_String
010312 C1                  A   741    	POP	BC
010313 C1                  A   742    	POP	BC
010314 C1                  A   743    	POP	BC
010315 01 24 38 01         A   744    	LD	BC,L__21
010319 C5                  A   745    	PUSH	BC
01031A 01DB0000            A   746    	LD	BC,219
01031E C5                  A   747    	PUSH	BC
01031F 01000000            A   748    	LD	BC,0
010323 C5                  A   749    	PUSH	BC
010324 CD 6C 01 01         A   750    	CALL	_Blit_String
010328 C1                  A   751    	POP	BC
010329 C1                  A   752    	POP	BC
01032A C1                  A   753    	POP	BC
01032B CD BD 01 01         A   754    	CALL	_Show_Mode
01032F DDF9                A   755    	LD	SP,IX
010331 DDE1                A   756    	POP	IX
010333 C9                  A   757    	RET	
                           A   758    
                           A   759    
                           A   760    ;**************************** _Set_Screen *****
                           A   761    ;Name                         Addr/Register   S
                           A   762    ;_VideoMem                           STATIC    
                           A   763    ;_PaletteMem                         STATIC    
                           A   764    ;_memcpy                             IMPORT  --
                           A   765    ;_Palette                            STATIC    
                           A   766    ;_memset                             IMPORT  --
                           A   767    ;_YOffset                            STATIC    
                           A   768    ;i                                     IX-3    
                           A   769    
                           A   770    
                           A   771    ; Stack Frame Size: 9 (bytes)
                           A   772    ;       Spill Code: 0 (instruction)
                           A   773    
                           A   774    
                           A   775    	SEGMENT STRSECT
Zilog eZ80 Macro Assembler Version 4.1 (10060805) RELISTED19-Sep-11     11:50:04     page:  16


PC     Object              I  Line    Source C:\DOCUME~1\_Enzo_\Desktop\Zapp\Debug\main.src
0137FD                     A   776    L__20:
0137FD 4631323A 45584954   A   777    	DB	"F12:EXIT  F10:RESET  F9:HARD  F8:BASIC
013805 20204631 303A5245 
01380D 53455420 2046393A 
013815 48415244 20204638 
01381D 3A424153 4943 
013823 00                  A   778    	DB	0
013824                     A   779    L__21:
013824 46353A44 554D50     A   780    	DB	"F5:DUMP"
01382B 00                  A   781    	DB	0
                           A   782    	SEGMENT CODE
010334                     A   783    _Close_Screen:
010334 DDE5                A   784    push ix
010336 3E2F                A   785    ld a, kr_os_display
010338 5BCD200A 00         A   786    call.lil prose_kernal
01033D 3E26                A   787    ld a, kr_clear_screen
01033F 5BCD200A 00         A   788    call.lil prose_kernal
010344 DDE1                A   789    pop ix
010346 C9                  A   790    	RET	
                           A   791    
                           A   792    
                           A   793    ;**************************** _Close_Screen ***
                           A   794    ;Name                         Addr/Register   S
                           A   795    
                           A   796    
                           A   797    ; Stack Frame Size: 6 (bytes)
                           A   798    ;       Spill Code: 0 (instruction)
                           A   799    
                           A   800    
010347                     A   801    _Update_Screen:
010347 21EFFFFF            A   802    	LD	HL,-17
01034B CD 3A 36 01         A   803    	CALL	__frameset
01034F 2A 7E 41 01         A   804    	LD	HL,(_oldindexY)
010353 29                  A   805    	ADD	HL,HL
010354 29                  A   806    	ADD	HL,HL
010355 29                  A   807    	ADD	HL,HL
010356 01200000            A   808    	LD	BC,32
01035A C5                  A   809    	PUSH	BC
01035B E5                  A   810    	PUSH	HL
01035C 2A 7B 41 01         A   811    	LD	HL,(_oldindexX)
010360 29                  A   812    	ADD	HL,HL
010361 29                  A   813    	ADD	HL,HL
010362 29                  A   814    	ADD	HL,HL
010363 B7                  A   815    	OR	A,A
010364 ED4B 7B 41 01       A   816    	LD	BC,(_oldindexX)
010369 ED42                A   817    	SBC	HL,BC
01036B E5                  A   818    	PUSH	HL
01036C CD 9F 00 01         A   819    	CALL	_Blit_Char
010370 C1                  A   820    	POP	BC
010371 C1                  A   821    	POP	BC
010372 C1                  A   822    	POP	BC
010373 01000000            A   823    	LD	BC,0
Zilog eZ80 Macro Assembler Version 4.1 (10060805) RELISTED19-Sep-11     11:50:04     page:  17


PC     Object              I  Line    Source C:\DOCUME~1\_Enzo_\Desktop\Zapp\Debug\main.src
010377 DD0FFD              A   824    	LD	(IX+-3),BC
01037A C3 0C 04 01         A   825    	JR	L_46
01037E                     A   826    L_44:
01037E 01000000            A   827    	LD	BC,0
010382 DD0FFA              A   828    	LD	(IX+-6),BC
010385 18 66               A   829    	JR	L_43
010387                     A   830    L_41:
010387 DD27FA              A   831    	LD	HL,(IX+-6)
01038A 29                  A   832    	ADD	HL,HL
01038B 29                  A   833    	ADD	HL,HL
01038C DD07FA              A   834    	LD	BC,(IX+-6)
01038F 09                  A   835    	ADD	HL,BC
010390 29                  A   836    	ADD	HL,HL
010391 29                  A   837    	ADD	HL,HL
010392 29                  A   838    	ADD	HL,HL
010393 DD07FD              A   839    	LD	BC,(IX+-3)
010396 09                  A   840    	ADD	HL,BC
010397 DD2FEF              A   841    	LD	(IX+-17),HL
01039A 01 F5 39 01         A   842    	LD	BC,_screenTbl
01039E 09                  A   843    	ADD	HL,BC
01039F DD2FF2              A   844    	LD	(IX+-14),HL
0103A2 7E                  A   845    	LD	A,(HL)
0103A3 DD77F9              A   846    	LD	(IX+-7),A
0103A6 DD07EF              A   847    	LD	BC,(IX+-17)
0103A9 21 B5 3D 01         A   848    	LD	HL,_oldscreenTbl
0103AD 09                  A   849    	ADD	HL,BC
0103AE DD2FF5              A   850    	LD	(IX+-11),HL
0103B1 7E                  A   851    	LD	A,(HL)
0103B2 DD77F8              A   852    	LD	(IX+-8),A
0103B5 DD7EF9              A   853    	LD	A,(IX+-7)
0103B8 DDBEF8              A   854    	CP	A,(IX+-8)
0103BB 28 29               A   855    	JR	Z,L_42
0103BD DD4EF9              A   856    	LD	C,(IX+-7)
0103C0 0600                A   857    	LD	B,0
0103C2 C5                  A   858    	PUSH	BC
0103C3 DD27FA              A   859    	LD	HL,(IX+-6)
0103C6 29                  A   860    	ADD	HL,HL
0103C7 29                  A   861    	ADD	HL,HL
0103C8 29                  A   862    	ADD	HL,HL
0103C9 E5                  A   863    	PUSH	HL
0103CA DD27FD              A   864    	LD	HL,(IX+-3)
0103CD 29                  A   865    	ADD	HL,HL
0103CE 29                  A   866    	ADD	HL,HL
0103CF 29                  A   867    	ADD	HL,HL
0103D0 B7                  A   868    	OR	A,A
0103D1 DD07FD              A   869    	LD	BC,(IX+-3)
0103D4 ED42                A   870    	SBC	HL,BC
0103D6 E5                  A   871    	PUSH	HL
0103D7 CD 9F 00 01         A   872    	CALL	_Blit_Char
0103DB C1                  A   873    	POP	BC
0103DC C1                  A   874    	POP	BC
0103DD C1                  A   875    	POP	BC
Zilog eZ80 Macro Assembler Version 4.1 (10060805) RELISTED19-Sep-11     11:50:04     page:  18


PC     Object              I  Line    Source C:\DOCUME~1\_Enzo_\Desktop\Zapp\Debug\main.src
0103DE DD27F2              A   876    	LD	HL,(IX+-14)
0103E1 7E                  A   877    	LD	A,(HL)
0103E2 DD27F5              A   878    	LD	HL,(IX+-11)
0103E5 77                  A   879    	LD	(HL),A
0103E6                     A   880    L_42:
0103E6 DD07FA              A   881    	LD	BC,(IX+-6)
0103E9 03                  A   882    	INC	BC
0103EA DD0FFA              A   883    	LD	(IX+-6),BC
0103ED                     A   884    L_43:
0103ED 01180000            A   885    	LD	BC,24
0103F1 DD27FA              A   886    	LD	HL,(IX+-6)
0103F4 B7                  A   887    	OR	A,A
0103F5 ED42                A   888    	SBC	HL,BC
0103F7 FA 01 04 01         A   889    	JP	M,L__31
0103FB EA 87 03 01         A   890    	JP	PE,L_41
0103FF 18 04               A   891    	JR	L__32
010401                     A   892    L__31:
010401 E2 87 03 01         A   893    	JP	PO,L_41
010405                     A   894    L__32:
010405 DD07FD              A   895    	LD	BC,(IX+-3)
010408 03                  A   896    	INC	BC
010409 DD0FFD              A   897    	LD	(IX+-3),BC
01040C                     A   898    L_46:
01040C 01280000            A   899    	LD	BC,40
010410 DD27FD              A   900    	LD	HL,(IX+-3)
010413 B7                  A   901    	OR	A,A
010414 ED42                A   902    	SBC	HL,BC
010416 FA 20 04 01         A   903    	JP	M,L__33
01041A EA 7E 03 01         A   904    	JP	PE,L_44
01041E 18 04               A   905    	JR	L__34
010420                     A   906    L__33:
010420 E2 7E 03 01         A   907    	JP	PO,L_44
010424                     A   908    L__34:
010424 2A 78 41 01         A   909    	LD	HL,(_indexY)
010428 29                  A   910    	ADD	HL,HL
010429 29                  A   911    	ADD	HL,HL
01042A 29                  A   912    	ADD	HL,HL
01042B 01400000            A   913    	LD	BC,64
01042F C5                  A   914    	PUSH	BC
010430 E5                  A   915    	PUSH	HL
010431 2A 75 41 01         A   916    	LD	HL,(_indexX)
010435 29                  A   917    	ADD	HL,HL
010436 29                  A   918    	ADD	HL,HL
010437 29                  A   919    	ADD	HL,HL
010438 B7                  A   920    	OR	A,A
010439 ED4B 75 41 01       A   921    	LD	BC,(_indexX)
01043E ED42                A   922    	SBC	HL,BC
010440 E5                  A   923    	PUSH	HL
010441 CD 9F 00 01         A   924    	CALL	_Blit_Char
010445 C1                  A   925    	POP	BC
010446 C1                  A   926    	POP	BC
010447 C1                  A   927    	POP	BC
Zilog eZ80 Macro Assembler Version 4.1 (10060805) RELISTED19-Sep-11     11:50:04     page:  19


PC     Object              I  Line    Source C:\DOCUME~1\_Enzo_\Desktop\Zapp\Debug\main.src
010448 ED4B 75 41 01       A   928    	LD	BC,(_indexX)
01044D ED43 7B 41 01       A   929    	LD	(_oldindexX),BC
010452 ED4B 78 41 01       A   930    	LD	BC,(_indexY)
010457 ED43 7E 41 01       A   931    	LD	(_oldindexY),BC
01045C DDF9                A   932    	LD	SP,IX
01045E DDE1                A   933    	POP	IX
010460 C9                  A   934    	RET	
                           A   935    
                           A   936    
                           A   937    ;**************************** _Update_Screen **
                           A   938    ;Name                         Addr/Register   S
                           A   939    ;_indexX                             STATIC    
                           A   940    ;_indexY                             STATIC    
                           A   941    ;_oldscreenTbl                       STATIC    
                           A   942    ;_screenTbl                          STATIC    
                           A   943    ;_oldindexX                          STATIC    
                           A   944    ;_oldindexY                          STATIC    
                           A   945    ;ofs                                  IX-17    
                           A   946    ;G_0                                  IX-14    
                           A   947    ;G_1                                  IX-11    
                           A   948    ;oc                                    IX-8    
                           A   949    ;c                                     IX-7    
                           A   950    ;j                                     IX-6    
                           A   951    ;i                                     IX-3    
                           A   952    
                           A   953    
                           A   954    ; Stack Frame Size: 23 (bytes)
                           A   955    ;       Spill Code: 0 (instruction)
                           A   956    
                           A   957    
010461                     A   958    _Reset_Screen:
010461 01C00300            A   959    	LD	BC,960
010465 C5                  A   960    	PUSH	BC
010466 01000000            A   961    	LD	BC,0
01046A C5                  A   962    	PUSH	BC
01046B 01 F5 39 01         A   963    	LD	BC,_screenTbl
01046F C5                  A   964    	PUSH	BC
010470 01000000            A   965    	LD	BC,0
010474 ED43 78 41 01       A   966    	LD	(_indexY),BC
010479 ED43 75 41 01       A   967    	LD	(_indexX),BC
01047E ED43 7E 41 01       A   968    	LD	(_oldindexY),BC
010483 ED43 7B 41 01       A   969    	LD	(_oldindexX),BC
010488 CD EC 36 01         A   970    	CALL	_memset
01048C C1                  A   971    	POP	BC
01048D C1                  A   972    	POP	BC
01048E C1                  A   973    	POP	BC
01048F 01C00300            A   974    	LD	BC,960
010493 C5                  A   975    	PUSH	BC
010494 01000000            A   976    	LD	BC,0
010498 C5                  A   977    	PUSH	BC
010499 01 B5 3D 01         A   978    	LD	BC,_oldscreenTbl
01049D C5                  A   979    	PUSH	BC
Zilog eZ80 Macro Assembler Version 4.1 (10060805) RELISTED19-Sep-11     11:50:04     page:  20


PC     Object              I  Line    Source C:\DOCUME~1\_Enzo_\Desktop\Zapp\Debug\main.src
01049E CD EC 36 01         A   980    	CALL	_memset
0104A2 C1                  A   981    	POP	BC
0104A3 C1                  A   982    	POP	BC
0104A4 C1                  A   983    	POP	BC
0104A5 CD 47 03 01         A   984    	CALL	_Update_Screen
0104A9 C9                  A   985    	RET	
                           A   986    
                           A   987    
                           A   988    ;**************************** _Reset_Screen ***
                           A   989    ;Name                         Addr/Register   S
                           A   990    ;_oldscreenTbl                       STATIC    
                           A   991    ;_screenTbl                          STATIC    
                           A   992    ;_memset                             IMPORT  --
                           A   993    ;_oldindexX                          STATIC    
                           A   994    ;_oldindexY                          STATIC    
                           A   995    ;_indexX                             STATIC    
                           A   996    ;_indexY                             STATIC    
                           A   997    
                           A   998    
                           A   999    ; Stack Frame Size: 6 (bytes)
                           A  1000    ;       Spill Code: 0 (instruction)
                           A  1001    
                           A  1002    
0104AA                     A  1003    _New_Line:
0104AA 21FDFFFF            A  1004    	LD	HL,-3
0104AE CD 3A 36 01         A  1005    	CALL	__frameset
0104B2 01000000            A  1006    	LD	BC,0
0104B6 DD0FFD              A  1007    	LD	(IX+-3),BC
0104B9 18 67               A  1008    	JR	L_53
0104BB                     A  1009    L_51:
0104BB 11 F5 39 01         A  1010    	LD	DE,_screenTbl
0104BF 01280000            A  1011    	LD	BC,40
0104C3 C5                  A  1012    	PUSH	BC
0104C4 DD07FD              A  1013    	LD	BC,(IX+-3)
0104C7 03                  A  1014    	INC	BC
0104C8 C5E1                A  1015    	LD	HL,BC
0104CA 29                  A  1016    	ADD	HL,HL
0104CB 29                  A  1017    	ADD	HL,HL
0104CC 09                  A  1018    	ADD	HL,BC
0104CD 29                  A  1019    	ADD	HL,HL
0104CE 29                  A  1020    	ADD	HL,HL
0104CF 29                  A  1021    	ADD	HL,HL
0104D0 19                  A  1022    	ADD	HL,DE
0104D1 E5                  A  1023    	PUSH	HL
0104D2 DD27FD              A  1024    	LD	HL,(IX+-3)
0104D5 29                  A  1025    	ADD	HL,HL
0104D6 29                  A  1026    	ADD	HL,HL
0104D7 DD07FD              A  1027    	LD	BC,(IX+-3)
0104DA 09                  A  1028    	ADD	HL,BC
0104DB 29                  A  1029    	ADD	HL,HL
0104DC 29                  A  1030    	ADD	HL,HL
0104DD 29                  A  1031    	ADD	HL,HL
Zilog eZ80 Macro Assembler Version 4.1 (10060805) RELISTED19-Sep-11     11:50:04     page:  21


PC     Object              I  Line    Source C:\DOCUME~1\_Enzo_\Desktop\Zapp\Debug\main.src
0104DE 01 F5 39 01         A  1032    	LD	BC,_screenTbl
0104E2 09                  A  1033    	ADD	HL,BC
0104E3 E5                  A  1034    	PUSH	HL
0104E4 CD 1E 36 01         A  1035    	CALL	_memcpy
0104E8 C1                  A  1036    	POP	BC
0104E9 C1                  A  1037    	POP	BC
0104EA C1                  A  1038    	POP	BC
0104EB 11 B5 3D 01         A  1039    	LD	DE,_oldscreenTbl
0104EF 01280000            A  1040    	LD	BC,40
0104F3 C5                  A  1041    	PUSH	BC
0104F4 DD07FD              A  1042    	LD	BC,(IX+-3)
0104F7 03                  A  1043    	INC	BC
0104F8 C5E1                A  1044    	LD	HL,BC
0104FA 29                  A  1045    	ADD	HL,HL
0104FB 29                  A  1046    	ADD	HL,HL
0104FC 09                  A  1047    	ADD	HL,BC
0104FD 29                  A  1048    	ADD	HL,HL
0104FE 29                  A  1049    	ADD	HL,HL
0104FF 29                  A  1050    	ADD	HL,HL
010500 19                  A  1051    	ADD	HL,DE
010501 E5                  A  1052    	PUSH	HL
010502 DD27FD              A  1053    	LD	HL,(IX+-3)
010505 29                  A  1054    	ADD	HL,HL
010506 29                  A  1055    	ADD	HL,HL
010507 DD07FD              A  1056    	LD	BC,(IX+-3)
01050A 09                  A  1057    	ADD	HL,BC
01050B 29                  A  1058    	ADD	HL,HL
01050C 29                  A  1059    	ADD	HL,HL
01050D 29                  A  1060    	ADD	HL,HL
01050E 01 B5 3D 01         A  1061    	LD	BC,_oldscreenTbl
010512 09                  A  1062    	ADD	HL,BC
010513 E5                  A  1063    	PUSH	HL
010514 CD 1E 36 01         A  1064    	CALL	_memcpy
010518 C1                  A  1065    	POP	BC
010519 C1                  A  1066    	POP	BC
01051A C1                  A  1067    	POP	BC
01051B DD07FD              A  1068    	LD	BC,(IX+-3)
01051E 03                  A  1069    	INC	BC
01051F DD0FFD              A  1070    	LD	(IX+-3),BC
010522                     A  1071    L_53:
010522 01170000            A  1072    	LD	BC,23
010526 DD27FD              A  1073    	LD	HL,(IX+-3)
010529 B7                  A  1074    	OR	A,A
01052A ED42                A  1075    	SBC	HL,BC
01052C FA 36 05 01         A  1076    	JP	M,L__38
010530 EA BB 04 01         A  1077    	JP	PE,L_51
010534 18 04               A  1078    	JR	L__39
010536                     A  1079    L__38:
010536 E2 BB 04 01         A  1080    	JP	PO,L_51
01053A                     A  1081    L__39:
01053A 01280000            A  1082    	LD	BC,40
01053E C5                  A  1083    	PUSH	BC
Zilog eZ80 Macro Assembler Version 4.1 (10060805) RELISTED19-Sep-11     11:50:04     page:  22


PC     Object              I  Line    Source C:\DOCUME~1\_Enzo_\Desktop\Zapp\Debug\main.src
01053F 01000000            A  1084    	LD	BC,0
010543 C5                  A  1085    	PUSH	BC
010544 01980300            A  1086    	LD	BC,920
010548 21 F5 39 01         A  1087    	LD	HL,_screenTbl
01054C 09                  A  1088    	ADD	HL,BC
01054D E5                  A  1089    	PUSH	HL
01054E CD EC 36 01         A  1090    	CALL	_memset
010552 C1                  A  1091    	POP	BC
010553 C1                  A  1092    	POP	BC
010554 C1                  A  1093    	POP	BC
010555 01280000            A  1094    	LD	BC,40
010559 C5                  A  1095    	PUSH	BC
01055A 01000000            A  1096    	LD	BC,0
01055E C5                  A  1097    	PUSH	BC
01055F 01980300            A  1098    	LD	BC,920
010563 21 B5 3D 01         A  1099    	LD	HL,_oldscreenTbl
010567 09                  A  1100    	ADD	HL,BC
010568 E5                  A  1101    	PUSH	HL
010569 CD EC 36 01         A  1102    	CALL	_memset
01056D C1                  A  1103    	POP	BC
01056E C1                  A  1104    	POP	BC
01056F C1                  A  1105    	POP	BC
010570 2A 7E 41 01         A  1106    	LD	HL,(_oldindexY)
010574 29                  A  1107    	ADD	HL,HL
010575 29                  A  1108    	ADD	HL,HL
010576 29                  A  1109    	ADD	HL,HL
010577 01200000            A  1110    	LD	BC,32
01057B C5                  A  1111    	PUSH	BC
01057C E5                  A  1112    	PUSH	HL
01057D 2A 7B 41 01         A  1113    	LD	HL,(_oldindexX)
010581 29                  A  1114    	ADD	HL,HL
010582 29                  A  1115    	ADD	HL,HL
010583 29                  A  1116    	ADD	HL,HL
010584 B7                  A  1117    	OR	A,A
010585 ED4B 7B 41 01       A  1118    	LD	BC,(_oldindexX)
01058A ED42                A  1119    	SBC	HL,BC
01058C E5                  A  1120    	PUSH	HL
01058D CD 9F 00 01         A  1121    	CALL	_Blit_Char
010591 C1                  A  1122    	POP	BC
010592 C1                  A  1123    	POP	BC
010593 C1                  A  1124    	POP	BC
010594 0100E600            A  1125    	LD	BC,58880
010598 C5                  A  1126    	PUSH	BC
010599 ED4B 80 46 01       A  1127    	LD	BC,(_VideoMemScroll)
01059E C5                  A  1128    	PUSH	BC
01059F ED4B 7D 46 01       A  1129    	LD	BC,(_VideoMem)
0105A4 C5                  A  1130    	PUSH	BC
0105A5 CD 1E 36 01         A  1131    	CALL	_memcpy
0105A9 C1                  A  1132    	POP	BC
0105AA C1                  A  1133    	POP	BC
0105AB C1                  A  1134    	POP	BC
0105AC 01000A00            A  1135    	LD	BC,2560
Zilog eZ80 Macro Assembler Version 4.1 (10060805) RELISTED19-Sep-11     11:50:04     page:  23


PC     Object              I  Line    Source C:\DOCUME~1\_Enzo_\Desktop\Zapp\Debug\main.src
0105B0 C5                  A  1136    	PUSH	BC
0105B1 01000000            A  1137    	LD	BC,0
0105B5 C5                  A  1138    	PUSH	BC
0105B6 0100E600            A  1139    	LD	BC,58880
0105BA 2A 7D 46 01         A  1140    	LD	HL,(_VideoMem)
0105BE 09                  A  1141    	ADD	HL,BC
0105BF E5                  A  1142    	PUSH	HL
0105C0 CD EC 36 01         A  1143    	CALL	_memset
0105C4 C1                  A  1144    	POP	BC
0105C5 C1                  A  1145    	POP	BC
0105C6 C1                  A  1146    	POP	BC
0105C7 DDF9                A  1147    	LD	SP,IX
0105C9 DDE1                A  1148    	POP	IX
0105CB C9                  A  1149    	RET	
                           A  1150    
                           A  1151    
                           A  1152    ;**************************** _New_Line *******
                           A  1153    ;Name                         Addr/Register   S
                           A  1154    ;_VideoMem                           STATIC    
                           A  1155    ;_VideoMemScroll                     STATIC    
                           A  1156    ;_oldindexX                          STATIC    
                           A  1157    ;_oldindexY                          STATIC    
                           A  1158    ;_memset                             IMPORT  --
                           A  1159    ;_oldscreenTbl                       STATIC    
                           A  1160    ;_screenTbl                          STATIC    
                           A  1161    ;_memcpy                             IMPORT  --
                           A  1162    ;i                                     IX-3    
                           A  1163    
                           A  1164    
                           A  1165    ; Stack Frame Size: 9 (bytes)
                           A  1166    ;       Spill Code: 0 (instruction)
                           A  1167    
                           A  1168    
0105CC                     A  1169    _Output_Dsp:
0105CC CD 11 36 01         A  1170    	CALL	__frameset0
0105D0 DD7E06              A  1171    	LD	A,(IX+6)
0105D3 B7ED62              A  1172    	UEXT	HL
0105D6 6F                  A  1173    	LD	L,A
0105D7 E5D1                A  1174    	LD	DE,HL
0105D9                     A  1175    L__41:
0105D9 010D0000            A  1176    	LD	BC,13
0105DD B7                  A  1177    	OR	A,A
0105DE ED42                A  1178    	SBC	HL,BC
0105E0 20 16               A  1179    	JR	NZ,L_58
0105E2 01000000            A  1180    	LD	BC,0
0105E6 ED43 75 41 01       A  1181    	LD	(_indexX),BC
0105EB ED4B 78 41 01       A  1182    	LD	BC,(_indexY)
0105F0 03                  A  1183    	INC	BC
0105F1 ED43 78 41 01       A  1184    	LD	(_indexY),BC
0105F6 18 37               A  1185    	JR	L_65
0105F8                     A  1186    L_58:
0105F8 3E1F                A  1187    	LD	A,31
Zilog eZ80 Macro Assembler Version 4.1 (10060805) RELISTED19-Sep-11     11:50:04     page:  24


PC     Object              I  Line    Source C:\DOCUME~1\_Enzo_\Desktop\Zapp\Debug\main.src
0105FA DDBE06              A  1188    	CP	A,(IX+6)
0105FD 30 30               A  1189    	JR	NC,L_65
0105FF DD7E06              A  1190    	LD	A,(IX+6)
010602 FE60                A  1191    	CP	A,96
010604 30 29               A  1192    	JR	NC,L_65
010606 2A 78 41 01         A  1193    	LD	HL,(_indexY)
01060A ED4B 78 41 01       A  1194    	LD	BC,(_indexY)
01060F ED5B 75 41 01       A  1195    	LD	DE,(_indexX)
010614 DD7E06              A  1196    	LD	A,(IX+6)
010617 29                  A  1197    	ADD	HL,HL
010618 29                  A  1198    	ADD	HL,HL
010619 09                  A  1199    	ADD	HL,BC
01061A 29                  A  1200    	ADD	HL,HL
01061B 29                  A  1201    	ADD	HL,HL
01061C 29                  A  1202    	ADD	HL,HL
01061D 19                  A  1203    	ADD	HL,DE
01061E 01 F5 39 01         A  1204    	LD	BC,_screenTbl
010622 09                  A  1205    	ADD	HL,BC
010623 77                  A  1206    	LD	(HL),A
010624 ED4B 75 41 01       A  1207    	LD	BC,(_indexX)
010629 03                  A  1208    	INC	BC
01062A ED43 75 41 01       A  1209    	LD	(_indexX),BC
01062F                     A  1210    L_65:
01062F 01280000            A  1211    	LD	BC,40
010633 2A 75 41 01         A  1212    	LD	HL,(_indexX)
010637 B7                  A  1213    	OR	A,A
010638 ED42                A  1214    	SBC	HL,BC
01063A 20 14               A  1215    	JR	NZ,L_68
01063C 01000000            A  1216    	LD	BC,0
010640 ED43 75 41 01       A  1217    	LD	(_indexX),BC
010645 ED4B 78 41 01       A  1218    	LD	BC,(_indexY)
01064A 03                  A  1219    	INC	BC
01064B ED43 78 41 01       A  1220    	LD	(_indexY),BC
010650                     A  1221    L_68:
010650 01180000            A  1222    	LD	BC,24
010654 2A 78 41 01         A  1223    	LD	HL,(_indexY)
010658 B7                  A  1224    	OR	A,A
010659 ED42                A  1225    	SBC	HL,BC
01065B 20 0F               A  1226    	JR	NZ,L_69
01065D CD AA 04 01         A  1227    	CALL	_New_Line
010661 ED4B 78 41 01       A  1228    	LD	BC,(_indexY)
010666 0B                  A  1229    	DEC	BC
010667 ED43 78 41 01       A  1230    	LD	(_indexY),BC
01066C                     A  1231    L_69:
01066C CD 47 03 01         A  1232    	CALL	_Update_Screen
010670 DDF9                A  1233    	LD	SP,IX
010672 DDE1                A  1234    	POP	IX
010674 C9                  A  1235    	RET	
                           A  1236    
                           A  1237    
                           A  1238    ;**************************** _Output_Dsp *****
                           A  1239    ;Name                         Addr/Register   S
Zilog eZ80 Macro Assembler Version 4.1 (10060805) RELISTED19-Sep-11     11:50:04     page:  25


PC     Object              I  Line    Source C:\DOCUME~1\_Enzo_\Desktop\Zapp\Debug\main.src
                           A  1240    ;_screenTbl                          STATIC    
                           A  1241    ;_indexY                             STATIC    
                           A  1242    ;_indexX                             STATIC    
                           A  1243    ;Dsp                                   IX+6    
                           A  1244    
                           A  1245    
                           A  1246    ; Stack Frame Size: 9 (bytes)
                           A  1247    ;       Spill Code: 0 (instruction)
                           A  1248    
                           A  1249    
                           A  1250    	SEGMENT DATA
01468C                     A  1251    __dspCr:
01468C 00                  A  1252    	DB	0
01468D                     A  1253    __dsp:
01468D 00                  A  1254    	DB	0
01468E                     A  1255    __kbdCr:
01468E 00                  A  1256    	DB	0
01468F                     A  1257    __kbd:
01468F 00                  A  1258    	DB	0
014690                     A  1259    _kbdInterrups:
014690 0000                A  1260    	DW	0
014692 00                  A  1261    	DB	0
014693                     A  1262    _dspOutput:
014693 0000                A  1263    	DW	0
014695 00                  A  1264    	DB	0
                           A  1265    	SEGMENT CODE
010675                     A  1266    _Reset_Pia6820:
010675 01000000            A  1267    	LD	BC,0
010679 ED43 93 46 01       A  1268    	LD	(_dspOutput),BC
01067E ED43 90 46 01       A  1269    	LD	(_kbdInterrups),BC
010683 AF                  A  1270    	XOR	A,A
010684 32 8C 46 01         A  1271    	LD	(__dspCr),A
010688 AF                  A  1272    	XOR	A,A
010689 32 8E 46 01         A  1273    	LD	(__kbdCr),A
01068D C9                  A  1274    	RET	
                           A  1275    
                           A  1276    
                           A  1277    ;**************************** _Reset_Pia6820 **
                           A  1278    ;Name                         Addr/Register   S
                           A  1279    ;__kbdCr                             STATIC    
                           A  1280    ;__dspCr                             STATIC    
                           A  1281    ;_kbdInterrups                       STATIC    
                           A  1282    ;_dspOutput                          STATIC    
                           A  1283    
                           A  1284    
                           A  1285    ; Stack Frame Size: 6 (bytes)
                           A  1286    ;       Spill Code: 0 (instruction)
                           A  1287    
                           A  1288    
01068E                     A  1289    _Set_KdbInterrups:
01068E CD 11 36 01         A  1290    	CALL	__frameset0
010692 DD0706              A  1291    	LD	BC,(IX+6)
Zilog eZ80 Macro Assembler Version 4.1 (10060805) RELISTED19-Sep-11     11:50:04     page:  26


PC     Object              I  Line    Source C:\DOCUME~1\_Enzo_\Desktop\Zapp\Debug\main.src
010695 ED43 90 46 01       A  1292    	LD	(_kbdInterrups),BC
01069A DDF9                A  1293    	LD	SP,IX
01069C DDE1                A  1294    	POP	IX
01069E C9                  A  1295    	RET	
                           A  1296    
                           A  1297    
                           A  1298    ;**************************** _Set_KdbInterrups
                           A  1299    ;Name                         Addr/Register   S
                           A  1300    ;_kbdInterrups                       STATIC    
                           A  1301    ;b                                     IX+6    
                           A  1302    
                           A  1303    
                           A  1304    ; Stack Frame Size: 9 (bytes)
                           A  1305    ;       Spill Code: 0 (instruction)
                           A  1306    
                           A  1307    
01069F                     A  1308    _Get_KdbInterrups:
01069F 2A 90 46 01         A  1309    	LD	HL,(_kbdInterrups)
0106A3 C9                  A  1310    	RET	
                           A  1311    
                           A  1312    
                           A  1313    ;**************************** _Get_KdbInterrups
                           A  1314    ;Name                         Addr/Register   S
                           A  1315    ;_kbdInterrups                       STATIC    
                           A  1316    
                           A  1317    
                           A  1318    ; Stack Frame Size: 6 (bytes)
                           A  1319    ;       Spill Code: 0 (instruction)
                           A  1320    
                           A  1321    
0106A4                     A  1322    _Get_DspOutput:
0106A4 2A 93 46 01         A  1323    	LD	HL,(_dspOutput)
0106A8 C9                  A  1324    	RET	
                           A  1325    
                           A  1326    
                           A  1327    ;**************************** _Get_DspOutput **
                           A  1328    ;Name                         Addr/Register   S
                           A  1329    ;_dspOutput                          STATIC    
                           A  1330    
                           A  1331    
                           A  1332    ; Stack Frame Size: 6 (bytes)
                           A  1333    ;       Spill Code: 0 (instruction)
                           A  1334    
                           A  1335    
0106A9                     A  1336    _Write_DspCr:
0106A9 CD 11 36 01         A  1337    	CALL	__frameset0
0106AD 01000000            A  1338    	LD	BC,0
0106B1 2A 93 46 01         A  1339    	LD	HL,(_dspOutput)
0106B5 B7                  A  1340    	OR	A,A
0106B6 ED42                A  1341    	SBC	HL,BC
0106B8 20 12               A  1342    	JR	NZ,L_77
0106BA DD7E06              A  1343    	LD	A,(IX+6)
Zilog eZ80 Macro Assembler Version 4.1 (10060805) RELISTED19-Sep-11     11:50:04     page:  27


PC     Object              I  Line    Source C:\DOCUME~1\_Enzo_\Desktop\Zapp\Debug\main.src
0106BD FE80                A  1344    	CP	A,128
0106BF 38 0B               A  1345    	JR	C,L_77
0106C1 01010000            A  1346    	LD	BC,1
0106C5 ED43 93 46 01       A  1347    	LD	(_dspOutput),BC
0106CA 18 07               A  1348    	JR	L_78
0106CC                     A  1349    L_77:
0106CC DD7E06              A  1350    	LD	A,(IX+6)
0106CF 32 8C 46 01         A  1351    	LD	(__dspCr),A
0106D3                     A  1352    L_78:
0106D3 DDF9                A  1353    	LD	SP,IX
0106D5 DDE1                A  1354    	POP	IX
0106D7 C9                  A  1355    	RET	
                           A  1356    
                           A  1357    
                           A  1358    ;**************************** _Write_DspCr ****
                           A  1359    ;Name                         Addr/Register   S
                           A  1360    ;__dspCr                             STATIC    
                           A  1361    ;_dspOutput                          STATIC    
                           A  1362    ;DspCr                                 IX+6    
                           A  1363    
                           A  1364    
                           A  1365    ; Stack Frame Size: 9 (bytes)
                           A  1366    ;       Spill Code: 0 (instruction)
                           A  1367    
                           A  1368    
0106D8                     A  1369    _Write_Dsp:
0106D8 CD 11 36 01         A  1370    	CALL	__frameset0
0106DC DD7E06              A  1371    	LD	A,(IX+6)
0106DF FE80                A  1372    	CP	A,128
0106E1 38 08               A  1373    	JR	C,L_80
0106E3 DD7E06              A  1374    	LD	A,(IX+6)
0106E6 D680                A  1375    	SUB	A,128
0106E8 DD7706              A  1376    	LD	(IX+6),A
0106EB                     A  1377    L_80:
0106EB DD4E06              A  1378    	LD	C,(IX+6)
0106EE 0600                A  1379    	LD	B,0
0106F0 C5                  A  1380    	PUSH	BC
0106F1 CD CC 05 01         A  1381    	CALL	_Output_Dsp
0106F5 C1                  A  1382    	POP	BC
0106F6 DD7E06              A  1383    	LD	A,(IX+6)
0106F9 32 8D 46 01         A  1384    	LD	(__dsp),A
0106FD DDF9                A  1385    	LD	SP,IX
0106FF DDE1                A  1386    	POP	IX
010701 C9                  A  1387    	RET	
                           A  1388    
                           A  1389    
                           A  1390    ;**************************** _Write_Dsp ******
                           A  1391    ;Name                         Addr/Register   S
                           A  1392    ;__dsp                               STATIC    
                           A  1393    ;Dsp                                   IX+6    
                           A  1394    
                           A  1395    
Zilog eZ80 Macro Assembler Version 4.1 (10060805) RELISTED19-Sep-11     11:50:04     page:  28


PC     Object              I  Line    Source C:\DOCUME~1\_Enzo_\Desktop\Zapp\Debug\main.src
                           A  1396    ; Stack Frame Size: 9 (bytes)
                           A  1397    ;       Spill Code: 0 (instruction)
                           A  1398    
                           A  1399    
010702                     A  1400    _Write_KbdCr:
010702 CD 11 36 01         A  1401    	CALL	__frameset0
010706 01000000            A  1402    	LD	BC,0
01070A 2A 90 46 01         A  1403    	LD	HL,(_kbdInterrups)
01070E B7                  A  1404    	OR	A,A
01070F ED42                A  1405    	SBC	HL,BC
010711 20 12               A  1406    	JR	NZ,L_84
010713 DD7E06              A  1407    	LD	A,(IX+6)
010716 FE80                A  1408    	CP	A,128
010718 38 0B               A  1409    	JR	C,L_84
01071A 01010000            A  1410    	LD	BC,1
01071E ED43 90 46 01       A  1411    	LD	(_kbdInterrups),BC
010723 18 07               A  1412    	JR	L_85
010725                     A  1413    L_84:
010725 DD7E06              A  1414    	LD	A,(IX+6)
010728 32 8E 46 01         A  1415    	LD	(__kbdCr),A
01072C                     A  1416    L_85:
01072C DDF9                A  1417    	LD	SP,IX
01072E DDE1                A  1418    	POP	IX
010730 C9                  A  1419    	RET	
                           A  1420    
                           A  1421    
                           A  1422    ;**************************** _Write_KbdCr ****
                           A  1423    ;Name                         Addr/Register   S
                           A  1424    ;__kbdCr                             STATIC    
                           A  1425    ;_kbdInterrups                       STATIC    
                           A  1426    ;KbdCr                                 IX+6    
                           A  1427    
                           A  1428    
                           A  1429    ; Stack Frame Size: 9 (bytes)
                           A  1430    ;       Spill Code: 0 (instruction)
                           A  1431    
                           A  1432    
010731                     A  1433    _Write_Kbd:
010731 CD 11 36 01         A  1434    	CALL	__frameset0
010735 DD7E06              A  1435    	LD	A,(IX+6)
010738 32 8F 46 01         A  1436    	LD	(__kbd),A
01073C DDF9                A  1437    	LD	SP,IX
01073E DDE1                A  1438    	POP	IX
010740 C9                  A  1439    	RET	
                           A  1440    
                           A  1441    
                           A  1442    ;**************************** _Write_Kbd ******
                           A  1443    ;Name                         Addr/Register   S
                           A  1444    ;__kbd                               STATIC    
                           A  1445    ;Kbd                                   IX+6    
                           A  1446    
                           A  1447    
Zilog eZ80 Macro Assembler Version 4.1 (10060805) RELISTED19-Sep-11     11:50:04     page:  29


PC     Object              I  Line    Source C:\DOCUME~1\_Enzo_\Desktop\Zapp\Debug\main.src
                           A  1448    ; Stack Frame Size: 9 (bytes)
                           A  1449    ;       Spill Code: 0 (instruction)
                           A  1450    
                           A  1451    
010741                     A  1452    _Read_DspCr:
010741 3A 8C 46 01         A  1453    	LD	A,(__dspCr)
010745 C9                  A  1454    	RET	
                           A  1455    
                           A  1456    
                           A  1457    ;**************************** _Read_DspCr *****
                           A  1458    ;Name                         Addr/Register   S
                           A  1459    ;__dspCr                             STATIC    
                           A  1460    
                           A  1461    
                           A  1462    ; Stack Frame Size: 6 (bytes)
                           A  1463    ;       Spill Code: 0 (instruction)
                           A  1464    
                           A  1465    
010746                     A  1466    _Read_Dsp:
010746 3A 8D 46 01         A  1467    	LD	A,(__dsp)
01074A C9                  A  1468    	RET	
                           A  1469    
                           A  1470    
                           A  1471    ;**************************** _Read_Dsp *******
                           A  1472    ;Name                         Addr/Register   S
                           A  1473    ;__dsp                               STATIC    
                           A  1474    
                           A  1475    
                           A  1476    ; Stack Frame Size: 6 (bytes)
                           A  1477    ;       Spill Code: 0 (instruction)
                           A  1478    
                           A  1479    
01074B                     A  1480    _Read_KbdCr:
01074B 01000000            A  1481    	LD	BC,0
01074F 2A 90 46 01         A  1482    	LD	HL,(_kbdInterrups)
010753 B7                  A  1483    	OR	A,A
010754 ED42                A  1484    	SBC	HL,BC
010756 28 11               A  1485    	JR	Z,L_91
010758 3A 8E 46 01         A  1486    	LD	A,(__kbdCr)
01075C FE80                A  1487    	CP	A,128
01075E 38 09               A  1488    	JR	C,L_91
010760 AF                  A  1489    	XOR	A,A
010761 32 8E 46 01         A  1490    	LD	(__kbdCr),A
010765 3EA7                A  1491    	LD	A,167
010767 18 04               A  1492    	JR	L_92
010769                     A  1493    L_91:
010769 3A 8E 46 01         A  1494    	LD	A,(__kbdCr)
01076D                     A  1495    L_92:
01076D C9                  A  1496    	RET	
                           A  1497    
                           A  1498    
                           A  1499    ;**************************** _Read_KbdCr *****
Zilog eZ80 Macro Assembler Version 4.1 (10060805) RELISTED19-Sep-11     11:50:04     page:  30


PC     Object              I  Line    Source C:\DOCUME~1\_Enzo_\Desktop\Zapp\Debug\main.src
                           A  1500    ;Name                         Addr/Register   S
                           A  1501    ;__kbdCr                             STATIC    
                           A  1502    ;_kbdInterrups                       STATIC    
                           A  1503    
                           A  1504    
                           A  1505    ; Stack Frame Size: 6 (bytes)
                           A  1506    ;       Spill Code: 0 (instruction)
                           A  1507    
                           A  1508    
01076E                     A  1509    _Read_Kbd:
01076E 3A 8F 46 01         A  1510    	LD	A,(__kbd)
010772 C9                  A  1511    	RET	
                           A  1512    
                           A  1513    
                           A  1514    ;**************************** _Read_Kbd *******
                           A  1515    ;Name                         Addr/Register   S
                           A  1516    ;__kbd                               STATIC    
                           A  1517    
                           A  1518    
                           A  1519    ; Stack Frame Size: 6 (bytes)
                           A  1520    ;       Spill Code: 0 (instruction)
                           A  1521    
                           A  1522    
                           A  1523    	SEGMENT DATA
014696                     A  1524    _mem:
014696 000000              A  1525    	DW24	0
014699                     A  1526    _mode:
014699 0800                A  1527    	DW	8
01469B 00                  A  1528    	DB	0
01469C                     A  1529    _writeInRom:
01469C 0100                A  1530    	DW	1
01469E 00                  A  1531    	DB	0
                           A  1532    	SEGMENT CODE
010773                     A  1533    _Flip_Mode:
010773 01080000            A  1534    	LD	BC,8
010777 2A 99 46 01         A  1535    	LD	HL,(_mode)
01077B B7                  A  1536    	OR	A,A
01077C ED42                A  1537    	SBC	HL,BC
01077E 20 0B               A  1538    	JR	NZ,L_95
010780 01200000            A  1539    	LD	BC,32
010784 ED43 99 46 01       A  1540    	LD	(_mode),BC
010789 18 05               A  1541    	JR	L_96
01078B                     A  1542    L_95:
01078B ED43 99 46 01       A  1543    	LD	(_mode),BC
010790                     A  1544    L_96:
010790 C9                  A  1545    	RET	
                           A  1546    
                           A  1547    
                           A  1548    ;**************************** _Flip_Mode ******
                           A  1549    ;Name                         Addr/Register   S
                           A  1550    ;_mode                               STATIC    
                           A  1551    
Zilog eZ80 Macro Assembler Version 4.1 (10060805) RELISTED19-Sep-11     11:50:04     page:  31


PC     Object              I  Line    Source C:\DOCUME~1\_Enzo_\Desktop\Zapp\Debug\main.src
                           A  1552    
                           A  1553    ; Stack Frame Size: 6 (bytes)
                           A  1554    ;       Spill Code: 0 (instruction)
                           A  1555    
                           A  1556    
010791                     A  1557    _Mem_Mode:
010791 2A 99 46 01         A  1558    	LD	HL,(_mode)
010795 C9                  A  1559    	RET	
                           A  1560    
                           A  1561    
                           A  1562    ;**************************** _Mem_Mode *******
                           A  1563    ;Name                         Addr/Register   S
                           A  1564    ;_mode                               STATIC    
                           A  1565    
                           A  1566    
                           A  1567    ; Stack Frame Size: 6 (bytes)
                           A  1568    ;       Spill Code: 0 (instruction)
                           A  1569    
                           A  1570    
010796                     A  1571    _Load_Monitor:
010796 01000001            A  1572    	LD	BC,65536
01079A C5                  A  1573    	PUSH	BC
01079B CD EC 34 01         A  1574    	CALL	_malloc
01079F C1                  A  1575    	POP	BC
0107A0 22 96 46 01         A  1576    	LD	(_mem),HL
0107A4 0100FF00            A  1577    	LD	BC,65280
0107A8 11000100            A  1578    	LD	DE,256
0107AC D5                  A  1579    	PUSH	DE
0107AD 09                  A  1580    	ADD	HL,BC
0107AE E5                  A  1581    	PUSH	HL
0107AF 01 2C 38 01         A  1582    	LD	BC,L__69
0107B3 C5                  A  1583    	PUSH	BC
0107B4 CD 19 2E 01         A  1584    	CALL	_Load_Bin_Data
0107B8 C1                  A  1585    	POP	BC
0107B9 C1                  A  1586    	POP	BC
0107BA C1                  A  1587    	POP	BC
0107BB C9                  A  1588    	RET	
                           A  1589    
                           A  1590    
                           A  1591    ;**************************** _Load_Monitor ***
                           A  1592    ;Name                         Addr/Register   S
                           A  1593    ;_Load_Bin_Data                      IMPORT  --
                           A  1594    ;_mem                                STATIC    
                           A  1595    ;_malloc                             IMPORT  --
                           A  1596    
                           A  1597    
                           A  1598    ; Stack Frame Size: 6 (bytes)
                           A  1599    ;       Spill Code: 0 (instruction)
                           A  1600    
                           A  1601    
                           A  1602    	SEGMENT STRSECT
01382C                     A  1603    L__69:
Zilog eZ80 Macro Assembler Version 4.1 (10060805) RELISTED19-Sep-11     11:50:04     page:  32


PC     Object              I  Line    Source C:\DOCUME~1\_Enzo_\Desktop\Zapp\Debug\main.src
01382C 4D4F4E49 544F522E   A  1604    	DB	"MONITOR.ROM"
013834 524F4D 
013837 00                  A  1605    	DB	0
                           A  1606    	SEGMENT CODE
0107BC                     A  1607    _Reset_Memory:
0107BC ED4B 99 46 01       A  1608    	LD	BC,(_mode)
0107C1 21080000            A  1609    	LD	HL,8
0107C5 B7                  A  1610    	OR	A,A
0107C6 ED42                A  1611    	SBC	HL,BC
0107C8 F2 D2 07 01         A  1612    	JP	P,L__72
0107CC EA EF 07 01         A  1613    	JP	PE,L_100
0107D0 18 04               A  1614    	JR	L__73
0107D2                     A  1615    L__72:
0107D2 E2 EF 07 01         A  1616    	JP	PO,L_100
0107D6                     A  1617    L__73:
0107D6 0100E000            A  1618    	LD	BC,57344
0107DA C5                  A  1619    	PUSH	BC
0107DB 01000000            A  1620    	LD	BC,0
0107DF C5                  A  1621    	PUSH	BC
0107E0 ED4B 96 46 01       A  1622    	LD	BC,(_mem)
0107E5 C5                  A  1623    	PUSH	BC
0107E6 CD EC 36 01         A  1624    	CALL	_memset
0107EA C1                  A  1625    	POP	BC
0107EB C1                  A  1626    	POP	BC
0107EC C1                  A  1627    	POP	BC
0107ED 18 17               A  1628    	JR	L_101
0107EF                     A  1629    L_100:
0107EF 0100FF00            A  1630    	LD	BC,65280
0107F3 C5                  A  1631    	PUSH	BC
0107F4 01000000            A  1632    	LD	BC,0
0107F8 C5                  A  1633    	PUSH	BC
0107F9 ED4B 96 46 01       A  1634    	LD	BC,(_mem)
0107FE C5                  A  1635    	PUSH	BC
0107FF CD EC 36 01         A  1636    	CALL	_memset
010803 C1                  A  1637    	POP	BC
010804 C1                  A  1638    	POP	BC
010805 C1                  A  1639    	POP	BC
010806                     A  1640    L_101:
010806 C9                  A  1641    	RET	
                           A  1642    
                           A  1643    
                           A  1644    ;**************************** _Reset_Memory ***
                           A  1645    ;Name                         Addr/Register   S
                           A  1646    ;_mem                                STATIC    
                           A  1647    ;_memset                             IMPORT  --
                           A  1648    ;_mode                               STATIC    
                           A  1649    
                           A  1650    
                           A  1651    ; Stack Frame Size: 6 (bytes)
                           A  1652    ;       Spill Code: 0 (instruction)
                           A  1653    
                           A  1654    
Zilog eZ80 Macro Assembler Version 4.1 (10060805) RELISTED19-Sep-11     11:50:04     page:  33


PC     Object              I  Line    Source C:\DOCUME~1\_Enzo_\Desktop\Zapp\Debug\main.src
010807                     A  1655    _Mem_Read:
010807 CD 11 36 01         A  1656    	CALL	__frameset0
01080B 490113D0            A  1657    	LD.LIS	BC,53267
01080F DD2706              A  1658    	LD	HL,(IX+6)
010812 B7                  A  1659    	OR	A,A
010813 40ED42              A  1660    	SBC.SIS	HL,BC
010816 20 06               A  1661    	JR	NZ,L_104
010818 CD 41 07 01         A  1662    	CALL	_Read_DspCr
01081C 18 47               A  1663    	JR	L_110
01081E                     A  1664    L_104:
01081E 490112D0            A  1665    	LD.LIS	BC,53266
010822 DD2706              A  1666    	LD	HL,(IX+6)
010825 B7                  A  1667    	OR	A,A
010826 40ED42              A  1668    	SBC.SIS	HL,BC
010829 20 06               A  1669    	JR	NZ,L_106
01082B CD 46 07 01         A  1670    	CALL	_Read_Dsp
01082F 18 34               A  1671    	JR	L_110
010831                     A  1672    L_106:
010831 490111D0            A  1673    	LD.LIS	BC,53265
010835 DD2706              A  1674    	LD	HL,(IX+6)
010838 B7                  A  1675    	OR	A,A
010839 40ED42              A  1676    	SBC.SIS	HL,BC
01083C 20 06               A  1677    	JR	NZ,L_108
01083E CD 4B 07 01         A  1678    	CALL	_Read_KbdCr
010842 18 21               A  1679    	JR	L_110
010844                     A  1680    L_108:
010844 490110D0            A  1681    	LD.LIS	BC,53264
010848 DD2706              A  1682    	LD	HL,(IX+6)
01084B B7                  A  1683    	OR	A,A
01084C 40ED42              A  1684    	SBC.SIS	HL,BC
01084F 20 06               A  1685    	JR	NZ,L_109
010851 CD 6E 07 01         A  1686    	CALL	_Read_Kbd
010855 18 0E               A  1687    	JR	L_110
010857                     A  1688    L_109:
010857 DD0706              A  1689    	LD	BC,(IX+6)
01085A CD D5 35 01         A  1690    	CALL	__stoiu
01085E ED4B 96 46 01       A  1691    	LD	BC,(_mem)
010863 09                  A  1692    	ADD	HL,BC
010864 7E                  A  1693    	LD	A,(HL)
010865                     A  1694    L_110:
010865 DDF9                A  1695    	LD	SP,IX
010867 DDE1                A  1696    	POP	IX
010869 C9                  A  1697    	RET	
                           A  1698    
                           A  1699    
                           A  1700    ;**************************** _Mem_Read *******
                           A  1701    ;Name                         Addr/Register   S
                           A  1702    ;_mem                                STATIC    
                           A  1703    ;address                               IX+6    
                           A  1704    
                           A  1705    
                           A  1706    ; Stack Frame Size: 9 (bytes)
Zilog eZ80 Macro Assembler Version 4.1 (10060805) RELISTED19-Sep-11     11:50:04     page:  34


PC     Object              I  Line    Source C:\DOCUME~1\_Enzo_\Desktop\Zapp\Debug\main.src
                           A  1707    ;       Spill Code: 0 (instruction)
                           A  1708    
                           A  1709    
01086A                     A  1710    _Mem_Write:
01086A CD 11 36 01         A  1711    	CALL	__frameset0
01086E 490113D0            A  1712    	LD.LIS	BC,53267
010872 DD2706              A  1713    	LD	HL,(IX+6)
010875 B7                  A  1714    	OR	A,A
010876 40ED42              A  1715    	SBC.SIS	HL,BC
010879 20 0F               A  1716    	JR	NZ,L_113
01087B DD4E09              A  1717    	LD	C,(IX+9)
01087E 0600                A  1718    	LD	B,0
010880 C5                  A  1719    	PUSH	BC
010881 CD A9 06 01         A  1720    	CALL	_Write_DspCr
010885 C1                  A  1721    	POP	BC
010886 C3 2C 09 01         A  1722    	JR	L_126
01088A                     A  1723    L_113:
01088A 490112D0            A  1724    	LD.LIS	BC,53266
01088E DD2706              A  1725    	LD	HL,(IX+6)
010891 B7                  A  1726    	OR	A,A
010892 40ED42              A  1727    	SBC.SIS	HL,BC
010895 20 0F               A  1728    	JR	NZ,L_115
010897 DD4E09              A  1729    	LD	C,(IX+9)
01089A 0600                A  1730    	LD	B,0
01089C C5                  A  1731    	PUSH	BC
01089D CD D8 06 01         A  1732    	CALL	_Write_Dsp
0108A1 C1                  A  1733    	POP	BC
0108A2 C3 2C 09 01         A  1734    	JR	L_126
0108A6                     A  1735    L_115:
0108A6 490111D0            A  1736    	LD.LIS	BC,53265
0108AA DD2706              A  1737    	LD	HL,(IX+6)
0108AD B7                  A  1738    	OR	A,A
0108AE 40ED42              A  1739    	SBC.SIS	HL,BC
0108B1 20 0D               A  1740    	JR	NZ,L_117
0108B3 DD4E09              A  1741    	LD	C,(IX+9)
0108B6 0600                A  1742    	LD	B,0
0108B8 C5                  A  1743    	PUSH	BC
0108B9 CD 02 07 01         A  1744    	CALL	_Write_KbdCr
0108BD C1                  A  1745    	POP	BC
0108BE 18 6C               A  1746    	JR	L_126
0108C0                     A  1747    L_117:
0108C0 490110D0            A  1748    	LD.LIS	BC,53264
0108C4 DD2706              A  1749    	LD	HL,(IX+6)
0108C7 B7                  A  1750    	OR	A,A
0108C8 40ED42              A  1751    	SBC.SIS	HL,BC
0108CB 20 0D               A  1752    	JR	NZ,L_120
0108CD DD4E09              A  1753    	LD	C,(IX+9)
0108D0 0600                A  1754    	LD	B,0
0108D2 C5                  A  1755    	PUSH	BC
0108D3 CD 31 07 01         A  1756    	CALL	_Write_Kbd
0108D7 C1                  A  1757    	POP	BC
0108D8 18 52               A  1758    	JR	L_126
Zilog eZ80 Macro Assembler Version 4.1 (10060805) RELISTED19-Sep-11     11:50:04     page:  35


PC     Object              I  Line    Source C:\DOCUME~1\_Enzo_\Desktop\Zapp\Debug\main.src
0108DA                     A  1759    L_120:
0108DA 490100FF            A  1760    	LD.LIS	BC,65280
0108DE DD2706              A  1761    	LD	HL,(IX+6)
0108E1 B7                  A  1762    	OR	A,A
0108E2 40ED42              A  1763    	SBC.SIS	HL,BC
0108E5 38 0D               A  1764    	JR	C,L_124
0108E7 01000000            A  1765    	LD	BC,0
0108EB 2A 9C 46 01         A  1766    	LD	HL,(_writeInRom)
0108EF B7                  A  1767    	OR	A,A
0108F0 ED42                A  1768    	SBC	HL,BC
0108F2 28 38               A  1769    	JR	Z,L_126
0108F4                     A  1770    L_124:
0108F4 01080000            A  1771    	LD	BC,8
0108F8 2A 99 46 01         A  1772    	LD	HL,(_mode)
0108FC B7                  A  1773    	OR	A,A
0108FD ED42                A  1774    	SBC	HL,BC
0108FF 20 1A               A  1775    	JR	NZ,L_125
010901 49010020            A  1776    	LD.LIS	BC,8192
010905 DD2706              A  1777    	LD	HL,(IX+6)
010908 B7                  A  1778    	OR	A,A
010909 40ED42              A  1779    	SBC.SIS	HL,BC
01090C 38 0D               A  1780    	JR	C,L_125
01090E 490100FF            A  1781    	LD.LIS	BC,65280
010912 DD2706              A  1782    	LD	HL,(IX+6)
010915 B7                  A  1783    	OR	A,A
010916 40ED42              A  1784    	SBC.SIS	HL,BC
010919 38 11               A  1785    	JR	C,L_126
01091B                     A  1786    L_125:
01091B DD0706              A  1787    	LD	BC,(IX+6)
01091E CD D5 35 01         A  1788    	CALL	__stoiu
010922 ED4B 96 46 01       A  1789    	LD	BC,(_mem)
010927 09                  A  1790    	ADD	HL,BC
010928 DD7E09              A  1791    	LD	A,(IX+9)
01092B 77                  A  1792    	LD	(HL),A
01092C                     A  1793    L_126:
01092C DDF9                A  1794    	LD	SP,IX
01092E DDE1                A  1795    	POP	IX
010930 C9                  A  1796    	RET	
                           A  1797    
                           A  1798    
                           A  1799    ;**************************** _Mem_Write ******
                           A  1800    ;Name                         Addr/Register   S
                           A  1801    ;_mem                                STATIC    
                           A  1802    ;_mode                               STATIC    
                           A  1803    ;_writeInRom                         STATIC    
                           A  1804    ;value                                 IX+9    
                           A  1805    ;address                               IX+6    
                           A  1806    
                           A  1807    
                           A  1808    ; Stack Frame Size: 12 (bytes)
                           A  1809    ;       Spill Code: 0 (instruction)
                           A  1810    
Zilog eZ80 Macro Assembler Version 4.1 (10060805) RELISTED19-Sep-11     11:50:04     page:  36


PC     Object              I  Line    Source C:\DOCUME~1\_Enzo_\Desktop\Zapp\Debug\main.src
                           A  1811    
                           A  1812    	SEGMENT BSS
014655                     A  1813    _accumulator:
014655                     A  1814    	DS	1
014656                     A  1815    _xRegister:
014656                     A  1816    	DS	1
014657                     A  1817    _yRegister:
014657                     A  1818    	DS	1
                           A  1819    	SEGMENT DATA
01469F                     A  1820    _statusRegister:
01469F 24                  A  1821    	DB	36
                           A  1822    	SEGMENT BSS
014658                     A  1823    _stackPointer:
014658                     A  1824    	DS	1
                           A  1825    	SEGMENT DATA
0146A0                     A  1826    _IRQ:
0146A0 0000                A  1827    	DW	0
0146A2 00                  A  1828    	DB	0
0146A3                     A  1829    _NMI:
0146A3 0000                A  1830    	DW	0
0146A5 00                  A  1831    	DB	0
                           A  1832    	SEGMENT BSS
014659                     A  1833    _programCounter:
014659                     A  1834    	DS	3
01465C                     A  1835    _btmp:
01465C                     A  1836    	DS	1
01465D                     A  1837    _op:
01465D                     A  1838    	DS	3
014660                     A  1839    _opH:
014660                     A  1840    	DS	3
014663                     A  1841    _opL:
014663                     A  1842    	DS	3
014666                     A  1843    _ptr:
014666                     A  1844    	DS	3
014669                     A  1845    _ptrH:
014669                     A  1846    	DS	3
01466C                     A  1847    _ptrL:
01466C                     A  1848    	DS	3
01466F                     A  1849    _tmp:
01466F                     A  1850    	DS	3
                           A  1851    	SEGMENT DATA
0146A6                     A  1852    _Cpu_Opcode:
0146A6 000000              A  1853    	DW24	0
0146A9 000000              A  1854    	DW24	0
0146AC 000000              A  1855    	DW24	0
0146AF 000000              A  1856    	DW24	0
0146B2 000000              A  1857    	DW24	0
0146B5 000000              A  1858    	DW24	0
0146B8 000000              A  1859    	DW24	0
0146BB 000000              A  1860    	DW24	0
0146BE 000000              A  1861    	DW24	0
0146C1 000000              A  1862    	DW24	0
Zilog eZ80 Macro Assembler Version 4.1 (10060805) RELISTED19-Sep-11     11:50:04     page:  37


PC     Object              I  Line    Source C:\DOCUME~1\_Enzo_\Desktop\Zapp\Debug\main.src
0146C4 000000              A  1863    	DW24	0
0146C7 000000              A  1864    	DW24	0
0146CA 000000              A  1865    	DW24	0
0146CD 000000              A  1866    	DW24	0
0146D0 000000              A  1867    	DW24	0
0146D3 000000              A  1868    	DW24	0
0146D6 000000              A  1869    	DW24	0
0146D9 000000              A  1870    	DW24	0
0146DC 000000              A  1871    	DW24	0
0146DF 000000              A  1872    	DW24	0
0146E2 000000              A  1873    	DW24	0
0146E5 000000              A  1874    	DW24	0
0146E8 000000              A  1875    	DW24	0
0146EB 000000              A  1876    	DW24	0
0146EE 000000              A  1877    	DW24	0
0146F1 000000              A  1878    	DW24	0
0146F4 000000              A  1879    	DW24	0
0146F7 000000              A  1880    	DW24	0
0146FA 000000              A  1881    	DW24	0
0146FD 000000              A  1882    	DW24	0
014700 000000              A  1883    	DW24	0
014703 000000              A  1884    	DW24	0
014706 000000              A  1885    	DW24	0
014709 000000              A  1886    	DW24	0
01470C 000000              A  1887    	DW24	0
01470F 000000              A  1888    	DW24	0
014712 000000              A  1889    	DW24	0
014715 000000              A  1890    	DW24	0
014718 000000              A  1891    	DW24	0
01471B 000000              A  1892    	DW24	0
01471E 000000              A  1893    	DW24	0
014721 000000              A  1894    	DW24	0
014724 000000              A  1895    	DW24	0
014727 000000              A  1896    	DW24	0
01472A 000000              A  1897    	DW24	0
01472D 000000              A  1898    	DW24	0
014730 000000              A  1899    	DW24	0
014733 000000              A  1900    	DW24	0
014736 000000              A  1901    	DW24	0
014739 000000              A  1902    	DW24	0
01473C 000000              A  1903    	DW24	0
01473F 000000              A  1904    	DW24	0
014742 000000              A  1905    	DW24	0
014745 000000              A  1906    	DW24	0
014748 000000              A  1907    	DW24	0
01474B 000000              A  1908    	DW24	0
01474E 000000              A  1909    	DW24	0
014751 000000              A  1910    	DW24	0
014754 000000              A  1911    	DW24	0
014757 000000              A  1912    	DW24	0
01475A 000000              A  1913    	DW24	0
01475D 000000              A  1914    	DW24	0
Zilog eZ80 Macro Assembler Version 4.1 (10060805) RELISTED19-Sep-11     11:50:04     page:  38


PC     Object              I  Line    Source C:\DOCUME~1\_Enzo_\Desktop\Zapp\Debug\main.src
014760 000000              A  1915    	DW24	0
014763 000000              A  1916    	DW24	0
014766 000000              A  1917    	DW24	0
014769 000000              A  1918    	DW24	0
01476C 000000              A  1919    	DW24	0
01476F 000000              A  1920    	DW24	0
014772 000000              A  1921    	DW24	0
014775 000000              A  1922    	DW24	0
014778 000000              A  1923    	DW24	0
01477B 000000              A  1924    	DW24	0
01477E 000000              A  1925    	DW24	0
014781 000000              A  1926    	DW24	0
014784 000000              A  1927    	DW24	0
014787 000000              A  1928    	DW24	0
01478A 000000              A  1929    	DW24	0
01478D 000000              A  1930    	DW24	0
014790 000000              A  1931    	DW24	0
014793 000000              A  1932    	DW24	0
014796 000000              A  1933    	DW24	0
014799 000000              A  1934    	DW24	0
01479C 000000              A  1935    	DW24	0
01479F 000000              A  1936    	DW24	0
0147A2 000000              A  1937    	DW24	0
0147A5 000000              A  1938    	DW24	0
0147A8 000000              A  1939    	DW24	0
0147AB 000000              A  1940    	DW24	0
0147AE 000000              A  1941    	DW24	0
0147B1 000000              A  1942    	DW24	0
0147B4 000000              A  1943    	DW24	0
0147B7 000000              A  1944    	DW24	0
0147BA 000000              A  1945    	DW24	0
0147BD 000000              A  1946    	DW24	0
0147C0 000000              A  1947    	DW24	0
0147C3 000000              A  1948    	DW24	0
0147C6 000000              A  1949    	DW24	0
0147C9 000000              A  1950    	DW24	0
0147CC 000000              A  1951    	DW24	0
0147CF 000000              A  1952    	DW24	0
0147D2 000000              A  1953    	DW24	0
0147D5 000000              A  1954    	DW24	0
0147D8 000000              A  1955    	DW24	0
0147DB 000000              A  1956    	DW24	0
0147DE 000000              A  1957    	DW24	0
0147E1 000000              A  1958    	DW24	0
0147E4 000000              A  1959    	DW24	0
0147E7 000000              A  1960    	DW24	0
0147EA 000000              A  1961    	DW24	0
0147ED 000000              A  1962    	DW24	0
0147F0 000000              A  1963    	DW24	0
0147F3 000000              A  1964    	DW24	0
0147F6 000000              A  1965    	DW24	0
0147F9 000000              A  1966    	DW24	0
Zilog eZ80 Macro Assembler Version 4.1 (10060805) RELISTED19-Sep-11     11:50:04     page:  39


PC     Object              I  Line    Source C:\DOCUME~1\_Enzo_\Desktop\Zapp\Debug\main.src
0147FC 000000              A  1967    	DW24	0
0147FF 000000              A  1968    	DW24	0
014802 000000              A  1969    	DW24	0
014805 000000              A  1970    	DW24	0
014808 000000              A  1971    	DW24	0
01480B 000000              A  1972    	DW24	0
01480E 000000              A  1973    	DW24	0
014811 000000              A  1974    	DW24	0
014814 000000              A  1975    	DW24	0
014817 000000              A  1976    	DW24	0
01481A 000000              A  1977    	DW24	0
01481D 000000              A  1978    	DW24	0
014820 000000              A  1979    	DW24	0
014823 000000              A  1980    	DW24	0
014826 000000              A  1981    	DW24	0
014829 000000              A  1982    	DW24	0
01482C 000000              A  1983    	DW24	0
01482F 000000              A  1984    	DW24	0
014832 000000              A  1985    	DW24	0
014835 000000              A  1986    	DW24	0
014838 000000              A  1987    	DW24	0
01483B 000000              A  1988    	DW24	0
01483E 000000              A  1989    	DW24	0
014841 000000              A  1990    	DW24	0
014844 000000              A  1991    	DW24	0
014847 000000              A  1992    	DW24	0
01484A 000000              A  1993    	DW24	0
01484D 000000              A  1994    	DW24	0
014850 000000              A  1995    	DW24	0
014853 000000              A  1996    	DW24	0
014856 000000              A  1997    	DW24	0
014859 000000              A  1998    	DW24	0
01485C 000000              A  1999    	DW24	0
01485F 000000              A  2000    	DW24	0
014862 000000              A  2001    	DW24	0
014865 000000              A  2002    	DW24	0
014868 000000              A  2003    	DW24	0
01486B 000000              A  2004    	DW24	0
01486E 000000              A  2005    	DW24	0
014871 000000              A  2006    	DW24	0
014874 000000              A  2007    	DW24	0
014877 000000              A  2008    	DW24	0
01487A 000000              A  2009    	DW24	0
01487D 000000              A  2010    	DW24	0
014880 000000              A  2011    	DW24	0
014883 000000              A  2012    	DW24	0
014886 000000              A  2013    	DW24	0
014889 000000              A  2014    	DW24	0
01488C 000000              A  2015    	DW24	0
01488F 000000              A  2016    	DW24	0
014892 000000              A  2017    	DW24	0
014895 000000              A  2018    	DW24	0
Zilog eZ80 Macro Assembler Version 4.1 (10060805) RELISTED19-Sep-11     11:50:04     page:  40


PC     Object              I  Line    Source C:\DOCUME~1\_Enzo_\Desktop\Zapp\Debug\main.src
014898 000000              A  2019    	DW24	0
01489B 000000              A  2020    	DW24	0
01489E 000000              A  2021    	DW24	0
0148A1 000000              A  2022    	DW24	0
0148A4 000000              A  2023    	DW24	0
0148A7 000000              A  2024    	DW24	0
0148AA 000000              A  2025    	DW24	0
0148AD 000000              A  2026    	DW24	0
0148B0 000000              A  2027    	DW24	0
0148B3 000000              A  2028    	DW24	0
0148B6 000000              A  2029    	DW24	0
0148B9 000000              A  2030    	DW24	0
0148BC 000000              A  2031    	DW24	0
0148BF 000000              A  2032    	DW24	0
0148C2 000000              A  2033    	DW24	0
0148C5 000000              A  2034    	DW24	0
0148C8 000000              A  2035    	DW24	0
0148CB 000000              A  2036    	DW24	0
0148CE 000000              A  2037    	DW24	0
0148D1 000000              A  2038    	DW24	0
0148D4 000000              A  2039    	DW24	0
0148D7 000000              A  2040    	DW24	0
0148DA 000000              A  2041    	DW24	0
0148DD 000000              A  2042    	DW24	0
0148E0 000000              A  2043    	DW24	0
0148E3 000000              A  2044    	DW24	0
0148E6 000000              A  2045    	DW24	0
0148E9 000000              A  2046    	DW24	0
0148EC 000000              A  2047    	DW24	0
0148EF 000000              A  2048    	DW24	0
0148F2 000000              A  2049    	DW24	0
0148F5 000000              A  2050    	DW24	0
0148F8 000000              A  2051    	DW24	0
0148FB 000000              A  2052    	DW24	0
0148FE 000000              A  2053    	DW24	0
014901 000000              A  2054    	DW24	0
014904 000000              A  2055    	DW24	0
014907 000000              A  2056    	DW24	0
01490A 000000              A  2057    	DW24	0
01490D 000000              A  2058    	DW24	0
014910 000000              A  2059    	DW24	0
014913 000000              A  2060    	DW24	0
014916 000000              A  2061    	DW24	0
014919 000000              A  2062    	DW24	0
01491C 000000              A  2063    	DW24	0
01491F 000000              A  2064    	DW24	0
014922 000000              A  2065    	DW24	0
014925 000000              A  2066    	DW24	0
014928 000000              A  2067    	DW24	0
01492B 000000              A  2068    	DW24	0
01492E 000000              A  2069    	DW24	0
014931 000000              A  2070    	DW24	0
Zilog eZ80 Macro Assembler Version 4.1 (10060805) RELISTED19-Sep-11     11:50:04     page:  41


PC     Object              I  Line    Source C:\DOCUME~1\_Enzo_\Desktop\Zapp\Debug\main.src
014934 000000              A  2071    	DW24	0
014937 000000              A  2072    	DW24	0
01493A 000000              A  2073    	DW24	0
01493D 000000              A  2074    	DW24	0
014940 000000              A  2075    	DW24	0
014943 000000              A  2076    	DW24	0
014946 000000              A  2077    	DW24	0
014949 000000              A  2078    	DW24	0
01494C 000000              A  2079    	DW24	0
01494F 000000              A  2080    	DW24	0
014952 000000              A  2081    	DW24	0
014955 000000              A  2082    	DW24	0
014958 000000              A  2083    	DW24	0
01495B 000000              A  2084    	DW24	0
01495E 000000              A  2085    	DW24	0
014961 000000              A  2086    	DW24	0
014964 000000              A  2087    	DW24	0
014967 000000              A  2088    	DW24	0
01496A 000000              A  2089    	DW24	0
01496D 000000              A  2090    	DW24	0
014970 000000              A  2091    	DW24	0
014973 000000              A  2092    	DW24	0
014976 000000              A  2093    	DW24	0
014979 000000              A  2094    	DW24	0
01497C 000000              A  2095    	DW24	0
01497F 000000              A  2096    	DW24	0
014982 000000              A  2097    	DW24	0
014985 000000              A  2098    	DW24	0
014988 000000              A  2099    	DW24	0
01498B 000000              A  2100    	DW24	0
01498E 000000              A  2101    	DW24	0
014991 000000              A  2102    	DW24	0
014994 000000              A  2103    	DW24	0
014997 000000              A  2104    	DW24	0
01499A 000000              A  2105    	DW24	0
01499D 000000              A  2106    	DW24	0
0149A0 000000              A  2107    	DW24	0
0149A3 000000              A  2108    	DW24	0
                           A  2109    	SEGMENT CODE
010931                     A  2110    _Mem_Read_Absolute:
010931 21FCFFFF            A  2111    	LD	HL,-4
010935 CD 3A 36 01         A  2112    	CALL	__frameset
010939 DD0706              A  2113    	LD	BC,(IX+6)
01093C 03                  A  2114    	INC	BC
01093D C5                  A  2115    	PUSH	BC
01093E CD 07 08 01         A  2116    	CALL	_Mem_Read
010942 C1                  A  2117    	POP	BC
010943 DD0706              A  2118    	LD	BC,(IX+6)
010946 C5                  A  2119    	PUSH	BC
010947 4F                  A  2120    	LD	C,A
010948 0600                A  2121    	LD	B,0
01094A C5E1                A  2122    	LD	HL,BC
Zilog eZ80 Macro Assembler Version 4.1 (10060805) RELISTED19-Sep-11     11:50:04     page:  42


PC     Object              I  Line    Source C:\DOCUME~1\_Enzo_\Desktop\Zapp\Debug\main.src
01094C 65                  A  2123    	LD	H,L
01094D 2E00                A  2124    	LD	L,0
01094F E5D1                A  2125    	LD	DE,HL
010951 DD1FFD              A  2126    	LD	(IX+-3),DE
010954 DD72FC              A  2127    	LD	(IX+-4),D
010957 CD 07 08 01         A  2128    	CALL	_Mem_Read
01095B DD17FD              A  2129    	LD	DE,(IX+-3)
01095E DD56FC              A  2130    	LD	D,(IX+-4)
010961 C1                  A  2131    	POP	BC
010962 4F                  A  2132    	LD	C,A
010963 0600                A  2133    	LD	B,0
010965 D5E1                A  2134    	LD	HL,DE
010967 CD 4C 37 01         A  2135    	CALL	__sor
01096B DDF9                A  2136    	LD	SP,IX
01096D DDE1                A  2137    	POP	IX
01096F C9                  A  2138    	RET	
                           A  2139    
                           A  2140    
                           A  2141    ;**************************** _Mem_Read_Absolut
                           A  2142    ;Name                         Addr/Register   S
                           A  2143    ;adr                                   IX+6    
                           A  2144    
                           A  2145    
                           A  2146    ; Stack Frame Size: 13 (bytes)
                           A  2147    ;       Spill Code: 0 (instruction)
                           A  2148    
                           A  2149    
010970                     A  2150    _pushProgramCounter:
010970 2A 59 46 01         A  2151    	LD	HL,(_programCounter)
010974 3E08                A  2152    	LD	A,8
010976 CD 82 35 01         A  2153    	CALL	__ishrs_b
01097A 3A 58 46 01         A  2154    	LD	A,(_stackPointer)
01097E 4D                  A  2155    	LD	C,L
01097F 0600                A  2156    	LD	B,0
010981 C5                  A  2157    	PUSH	BC
010982 4F                  A  2158    	LD	C,A
010983 C5E1                A  2159    	LD	HL,BC
010985 49110001            A  2160    	LD.LIS	DE,256
010989 4019                A  2161    	ADD.SIS	HL,DE
01098B E5                  A  2162    	PUSH	HL
01098C CD 6A 08 01         A  2163    	CALL	_Mem_Write
010990 C1                  A  2164    	POP	BC
010991 C1                  A  2165    	POP	BC
010992 3A 59 46 01         A  2166    	LD	A,(_programCounter)
010996 4F                  A  2167    	LD	C,A
010997 3A 58 46 01         A  2168    	LD	A,(_stackPointer)
01099B 0600                A  2169    	LD	B,0
01099D C5                  A  2170    	PUSH	BC
01099E 4F                  A  2171    	LD	C,A
01099F C5E1                A  2172    	LD	HL,BC
0109A1 4911FF00            A  2173    	LD.LIS	DE,255
0109A5 4019                A  2174    	ADD.SIS	HL,DE
Zilog eZ80 Macro Assembler Version 4.1 (10060805) RELISTED19-Sep-11     11:50:04     page:  43


PC     Object              I  Line    Source C:\DOCUME~1\_Enzo_\Desktop\Zapp\Debug\main.src
0109A7 E5                  A  2175    	PUSH	HL
0109A8 CD 6A 08 01         A  2176    	CALL	_Mem_Write
0109AC C1                  A  2177    	POP	BC
0109AD C1                  A  2178    	POP	BC
0109AE 3A 58 46 01         A  2179    	LD	A,(_stackPointer)
0109B2 3D                  A  2180    	DEC	A
0109B3 3D                  A  2181    	DEC	A
0109B4 32 58 46 01         A  2182    	LD	(_stackPointer),A
0109B8 C9                  A  2183    	RET	
                           A  2184    
                           A  2185    
                           A  2186    ;**************************** _pushProgramCount
                           A  2187    ;Name                         Addr/Register   S
                           A  2188    ;_stackPointer                       STATIC    
                           A  2189    ;_programCounter                     STATIC    
                           A  2190    
                           A  2191    
                           A  2192    ; Stack Frame Size: 6 (bytes)
                           A  2193    ;       Spill Code: 0 (instruction)
                           A  2194    
                           A  2195    
0109B9                     A  2196    _popProgramCounter:
0109B9 3A 58 46 01         A  2197    	LD	A,(_stackPointer)
0109BD 3C                  A  2198    	INC	A
0109BE 4F                  A  2199    	LD	C,A
0109BF 0600                A  2200    	LD	B,0
0109C1 C5E1                A  2201    	LD	HL,BC
0109C3 49110001            A  2202    	LD.LIS	DE,256
0109C7 4019                A  2203    	ADD.SIS	HL,DE
0109C9 E5                  A  2204    	PUSH	HL
0109CA 32 58 46 01         A  2205    	LD	(_stackPointer),A
0109CE CD 07 08 01         A  2206    	CALL	_Mem_Read
0109D2 C1                  A  2207    	POP	BC
0109D3 B7ED62              A  2208    	UEXT	HL
0109D6 6F                  A  2209    	LD	L,A
0109D7 22 59 46 01         A  2210    	LD	(_programCounter),HL
0109DB 3A 58 46 01         A  2211    	LD	A,(_stackPointer)
0109DF 3C                  A  2212    	INC	A
0109E0 4F                  A  2213    	LD	C,A
0109E1 0600                A  2214    	LD	B,0
0109E3 C5E1                A  2215    	LD	HL,BC
0109E5 49110001            A  2216    	LD.LIS	DE,256
0109E9 4019                A  2217    	ADD.SIS	HL,DE
0109EB E5                  A  2218    	PUSH	HL
0109EC 32 58 46 01         A  2219    	LD	(_stackPointer),A
0109F0 CD 07 08 01         A  2220    	CALL	_Mem_Read
0109F4 C1                  A  2221    	POP	BC
0109F5 ED4B 59 46 01       A  2222    	LD	BC,(_programCounter)
0109FA B7ED62              A  2223    	UEXT	HL
0109FD 6F                  A  2224    	LD	L,A
0109FE 3E08                A  2225    	LD	A,8
010A00 CD 0D 37 01         A  2226    	CALL	__ishl_b
Zilog eZ80 Macro Assembler Version 4.1 (10060805) RELISTED19-Sep-11     11:50:04     page:  44


PC     Object              I  Line    Source C:\DOCUME~1\_Enzo_\Desktop\Zapp\Debug\main.src
010A04 09                  A  2227    	ADD	HL,BC
010A05 22 59 46 01         A  2228    	LD	(_programCounter),HL
010A09 C9                  A  2229    	RET	
                           A  2230    
                           A  2231    
                           A  2232    ;**************************** _popProgramCounte
                           A  2233    ;Name                         Addr/Register   S
                           A  2234    ;_programCounter                     STATIC    
                           A  2235    ;_stackPointer                       STATIC    
                           A  2236    
                           A  2237    
                           A  2238    ; Stack Frame Size: 6 (bytes)
                           A  2239    ;       Spill Code: 0 (instruction)
                           A  2240    
                           A  2241    
010A0A                     A  2242    _handleIRQ:
010A0A CD 70 09 01         A  2243    	CALL	_pushProgramCounter
010A0E 3A 9F 46 01         A  2244    	LD	A,(_statusRegister)
010A12 CBA7                A  2245    	RES	4,A
010A14 4F                  A  2246    	LD	C,A
010A15 3A 58 46 01         A  2247    	LD	A,(_stackPointer)
010A19 0600                A  2248    	LD	B,0
010A1B C5                  A  2249    	PUSH	BC
010A1C 4F                  A  2250    	LD	C,A
010A1D C5E1                A  2251    	LD	HL,BC
010A1F 49110001            A  2252    	LD.LIS	DE,256
010A23 4019                A  2253    	ADD.SIS	HL,DE
010A25 E5                  A  2254    	PUSH	HL
010A26 CD 6A 08 01         A  2255    	CALL	_Mem_Write
010A2A C1                  A  2256    	POP	BC
010A2B C1                  A  2257    	POP	BC
010A2C 3A 58 46 01         A  2258    	LD	A,(_stackPointer)
010A30 01FEFF00            A  2259    	LD	BC,65534
010A34 C5                  A  2260    	PUSH	BC
010A35 3D                  A  2261    	DEC	A
010A36 32 58 46 01         A  2262    	LD	(_stackPointer),A
010A3A 3A 9F 46 01         A  2263    	LD	A,(_statusRegister)
010A3E CBD7                A  2264    	SET	2,A
010A40 32 9F 46 01         A  2265    	LD	(_statusRegister),A
010A44 CD 31 09 01         A  2266    	CALL	_Mem_Read_Absolute
010A48 C1                  A  2267    	POP	BC
010A49 E5C1                A  2268    	LD	BC,HL
010A4B CD D5 35 01         A  2269    	CALL	__stoiu
010A4F 22 59 46 01         A  2270    	LD	(_programCounter),HL
010A53 C9                  A  2271    	RET	
                           A  2272    
                           A  2273    
                           A  2274    ;**************************** _handleIRQ ******
                           A  2275    ;Name                         Addr/Register   S
                           A  2276    ;_programCounter                     STATIC    
                           A  2277    ;_stackPointer                       STATIC    
                           A  2278    ;_statusRegister                     STATIC    
Zilog eZ80 Macro Assembler Version 4.1 (10060805) RELISTED19-Sep-11     11:50:04     page:  45


PC     Object              I  Line    Source C:\DOCUME~1\_Enzo_\Desktop\Zapp\Debug\main.src
                           A  2279    
                           A  2280    
                           A  2281    ; Stack Frame Size: 6 (bytes)
                           A  2282    ;       Spill Code: 0 (instruction)
                           A  2283    
                           A  2284    
010A54                     A  2285    _handleNMI:
010A54 CD 70 09 01         A  2286    	CALL	_pushProgramCounter
010A58 3A 9F 46 01         A  2287    	LD	A,(_statusRegister)
010A5C CBA7                A  2288    	RES	4,A
010A5E 4F                  A  2289    	LD	C,A
010A5F 3A 58 46 01         A  2290    	LD	A,(_stackPointer)
010A63 0600                A  2291    	LD	B,0
010A65 C5                  A  2292    	PUSH	BC
010A66 4F                  A  2293    	LD	C,A
010A67 C5E1                A  2294    	LD	HL,BC
010A69 49110001            A  2295    	LD.LIS	DE,256
010A6D 4019                A  2296    	ADD.SIS	HL,DE
010A6F E5                  A  2297    	PUSH	HL
010A70 CD 6A 08 01         A  2298    	CALL	_Mem_Write
010A74 C1                  A  2299    	POP	BC
010A75 C1                  A  2300    	POP	BC
010A76 3A 58 46 01         A  2301    	LD	A,(_stackPointer)
010A7A 3D                  A  2302    	DEC	A
010A7B 32 58 46 01         A  2303    	LD	(_stackPointer),A
010A7F 01FAFF00            A  2304    	LD	BC,65530
010A83 C5                  A  2305    	PUSH	BC
010A84 3A 9F 46 01         A  2306    	LD	A,(_statusRegister)
010A88 CBD7                A  2307    	SET	2,A
010A8A 32 9F 46 01         A  2308    	LD	(_statusRegister),A
010A8E 01000000            A  2309    	LD	BC,0
010A92 ED43 A3 46 01       A  2310    	LD	(_NMI),BC
010A97 CD 31 09 01         A  2311    	CALL	_Mem_Read_Absolute
010A9B C1                  A  2312    	POP	BC
010A9C E5C1                A  2313    	LD	BC,HL
010A9E CD D5 35 01         A  2314    	CALL	__stoiu
010AA2 22 59 46 01         A  2315    	LD	(_programCounter),HL
010AA6 C9                  A  2316    	RET	
                           A  2317    
                           A  2318    
                           A  2319    ;**************************** _handleNMI ******
                           A  2320    ;Name                         Addr/Register   S
                           A  2321    ;_programCounter                     STATIC    
                           A  2322    ;_NMI                                STATIC    
                           A  2323    ;_stackPointer                       STATIC    
                           A  2324    ;_statusRegister                     STATIC    
                           A  2325    
                           A  2326    
                           A  2327    ; Stack Frame Size: 6 (bytes)
                           A  2328    ;       Spill Code: 0 (instruction)
                           A  2329    
                           A  2330    
Zilog eZ80 Macro Assembler Version 4.1 (10060805) RELISTED19-Sep-11     11:50:04     page:  46


PC     Object              I  Line    Source C:\DOCUME~1\_Enzo_\Desktop\Zapp\Debug\main.src
010AA7                     A  2331    _Imm:
010AA7 ED4B 59 46 01       A  2332    	LD	BC,(_programCounter)
010AAC ED43 5D 46 01       A  2333    	LD	(_op),BC
010AB1 ED4B 59 46 01       A  2334    	LD	BC,(_programCounter)
010AB6 03                  A  2335    	INC	BC
010AB7 ED43 59 46 01       A  2336    	LD	(_programCounter),BC
010ABC C9                  A  2337    	RET	
                           A  2338    
                           A  2339    
                           A  2340    ;**************************** _Imm ************
                           A  2341    ;Name                         Addr/Register   S
                           A  2342    ;_op                                 STATIC    
                           A  2343    ;_programCounter                     STATIC    
                           A  2344    
                           A  2345    
                           A  2346    ; Stack Frame Size: 6 (bytes)
                           A  2347    ;       Spill Code: 0 (instruction)
                           A  2348    
                           A  2349    
010ABD                     A  2350    _Zero:
010ABD ED4B 59 46 01       A  2351    	LD	BC,(_programCounter)
010AC2 C5                  A  2352    	PUSH	BC
010AC3 ED4B 59 46 01       A  2353    	LD	BC,(_programCounter)
010AC8 03                  A  2354    	INC	BC
010AC9 ED43 59 46 01       A  2355    	LD	(_programCounter),BC
010ACE CD 07 08 01         A  2356    	CALL	_Mem_Read
010AD2 C1                  A  2357    	POP	BC
010AD3 B7ED62              A  2358    	UEXT	HL
010AD6 6F                  A  2359    	LD	L,A
010AD7 22 5D 46 01         A  2360    	LD	(_op),HL
010ADB C9                  A  2361    	RET	
                           A  2362    
                           A  2363    
                           A  2364    ;**************************** _Zero ***********
                           A  2365    ;Name                         Addr/Register   S
                           A  2366    ;_op                                 STATIC    
                           A  2367    ;_programCounter                     STATIC    
                           A  2368    
                           A  2369    
                           A  2370    ; Stack Frame Size: 6 (bytes)
                           A  2371    ;       Spill Code: 0 (instruction)
                           A  2372    
                           A  2373    
010ADC                     A  2374    _ZeroX:
010ADC ED4B 59 46 01       A  2375    	LD	BC,(_programCounter)
010AE1 C5                  A  2376    	PUSH	BC
010AE2 ED4B 59 46 01       A  2377    	LD	BC,(_programCounter)
010AE7 03                  A  2378    	INC	BC
010AE8 ED43 59 46 01       A  2379    	LD	(_programCounter),BC
010AED CD 07 08 01         A  2380    	CALL	_Mem_Read
010AF1 C1                  A  2381    	POP	BC
010AF2 B7ED62              A  2382    	UEXT	HL
Zilog eZ80 Macro Assembler Version 4.1 (10060805) RELISTED19-Sep-11     11:50:04     page:  47


PC     Object              I  Line    Source C:\DOCUME~1\_Enzo_\Desktop\Zapp\Debug\main.src
010AF5 6F                  A  2383    	LD	L,A
010AF6 E5C1                A  2384    	LD	BC,HL
010AF8 3A 56 46 01         A  2385    	LD	A,(_xRegister)
010AFC B7ED62              A  2386    	UEXT	HL
010AFF 6F                  A  2387    	LD	L,A
010B00 09                  A  2388    	ADD	HL,BC
010B01 7D                  A  2389    	LD	A,L
010B02 B7ED62              A  2390    	UEXT	HL
010B05 6F                  A  2391    	LD	L,A
010B06 22 5D 46 01         A  2392    	LD	(_op),HL
010B0A C9                  A  2393    	RET	
                           A  2394    
                           A  2395    
                           A  2396    ;**************************** _ZeroX **********
                           A  2397    ;Name                         Addr/Register   S
                           A  2398    ;_op                                 STATIC    
                           A  2399    ;_xRegister                          STATIC    
                           A  2400    ;_programCounter                     STATIC    
                           A  2401    
                           A  2402    
                           A  2403    ; Stack Frame Size: 6 (bytes)
                           A  2404    ;       Spill Code: 0 (instruction)
                           A  2405    
                           A  2406    
010B0B                     A  2407    _ZeroY:
010B0B ED4B 59 46 01       A  2408    	LD	BC,(_programCounter)
010B10 C5                  A  2409    	PUSH	BC
010B11 ED4B 59 46 01       A  2410    	LD	BC,(_programCounter)
010B16 03                  A  2411    	INC	BC
010B17 ED43 59 46 01       A  2412    	LD	(_programCounter),BC
010B1C CD 07 08 01         A  2413    	CALL	_Mem_Read
010B20 C1                  A  2414    	POP	BC
010B21 B7ED62              A  2415    	UEXT	HL
010B24 6F                  A  2416    	LD	L,A
010B25 E5C1                A  2417    	LD	BC,HL
010B27 3A 57 46 01         A  2418    	LD	A,(_yRegister)
010B2B B7ED62              A  2419    	UEXT	HL
010B2E 6F                  A  2420    	LD	L,A
010B2F 09                  A  2421    	ADD	HL,BC
010B30 7D                  A  2422    	LD	A,L
010B31 B7ED62              A  2423    	UEXT	HL
010B34 6F                  A  2424    	LD	L,A
010B35 22 5D 46 01         A  2425    	LD	(_op),HL
010B39 C9                  A  2426    	RET	
                           A  2427    
                           A  2428    
                           A  2429    ;**************************** _ZeroY **********
                           A  2430    ;Name                         Addr/Register   S
                           A  2431    ;_op                                 STATIC    
                           A  2432    ;_yRegister                          STATIC    
                           A  2433    ;_programCounter                     STATIC    
                           A  2434    
Zilog eZ80 Macro Assembler Version 4.1 (10060805) RELISTED19-Sep-11     11:50:04     page:  48


PC     Object              I  Line    Source C:\DOCUME~1\_Enzo_\Desktop\Zapp\Debug\main.src
                           A  2435    
                           A  2436    ; Stack Frame Size: 6 (bytes)
                           A  2437    ;       Spill Code: 0 (instruction)
                           A  2438    
                           A  2439    
010B3A                     A  2440    _Abs:
010B3A ED4B 59 46 01       A  2441    	LD	BC,(_programCounter)
010B3F C5                  A  2442    	PUSH	BC
010B40 CD 31 09 01         A  2443    	CALL	_Mem_Read_Absolute
010B44 C1                  A  2444    	POP	BC
010B45 E5C1                A  2445    	LD	BC,HL
010B47 CD D5 35 01         A  2446    	CALL	__stoiu
010B4B 22 5D 46 01         A  2447    	LD	(_op),HL
010B4F FD2A 59 46 01       A  2448    	LD	IY,(_programCounter)
010B54 ED0302              A  2449    	LEA	BC,IY+2
010B57 ED43 59 46 01       A  2450    	LD	(_programCounter),BC
010B5C C9                  A  2451    	RET	
                           A  2452    
                           A  2453    
                           A  2454    ;**************************** _Abs ************
                           A  2455    ;Name                         Addr/Register   S
                           A  2456    ;_op                                 STATIC    
                           A  2457    ;_programCounter                     STATIC    
                           A  2458    
                           A  2459    
                           A  2460    ; Stack Frame Size: 6 (bytes)
                           A  2461    ;       Spill Code: 0 (instruction)
                           A  2462    
                           A  2463    
010B5D                     A  2464    _AbsX:
010B5D ED4B 59 46 01       A  2465    	LD	BC,(_programCounter)
010B62 C5                  A  2466    	PUSH	BC
010B63 ED4B 59 46 01       A  2467    	LD	BC,(_programCounter)
010B68 03                  A  2468    	INC	BC
010B69 ED43 59 46 01       A  2469    	LD	(_programCounter),BC
010B6E CD 07 08 01         A  2470    	CALL	_Mem_Read
010B72 C1                  A  2471    	POP	BC
010B73 B7ED62              A  2472    	UEXT	HL
010B76 6F                  A  2473    	LD	L,A
010B77 E5C1                A  2474    	LD	BC,HL
010B79 3A 56 46 01         A  2475    	LD	A,(_xRegister)
010B7D B7ED62              A  2476    	UEXT	HL
010B80 6F                  A  2477    	LD	L,A
010B81 09                  A  2478    	ADD	HL,BC
010B82 22 63 46 01         A  2479    	LD	(_opL),HL
010B86 ED4B 59 46 01       A  2480    	LD	BC,(_programCounter)
010B8B C5                  A  2481    	PUSH	BC
010B8C ED4B 59 46 01       A  2482    	LD	BC,(_programCounter)
010B91 03                  A  2483    	INC	BC
010B92 ED43 59 46 01       A  2484    	LD	(_programCounter),BC
010B97 CD 07 08 01         A  2485    	CALL	_Mem_Read
010B9B C1                  A  2486    	POP	BC
Zilog eZ80 Macro Assembler Version 4.1 (10060805) RELISTED19-Sep-11     11:50:04     page:  49


PC     Object              I  Line    Source C:\DOCUME~1\_Enzo_\Desktop\Zapp\Debug\main.src
010B9C B7ED62              A  2487    	UEXT	HL
010B9F 6F                  A  2488    	LD	L,A
010BA0 3E08                A  2489    	LD	A,8
010BA2 CD 0D 37 01         A  2490    	CALL	__ishl_b
010BA6 22 60 46 01         A  2491    	LD	(_opH),HL
010BAA ED4B 63 46 01       A  2492    	LD	BC,(_opL)
010BAF 09                  A  2493    	ADD	HL,BC
010BB0 22 5D 46 01         A  2494    	LD	(_op),HL
010BB4 C9                  A  2495    	RET	
                           A  2496    
                           A  2497    
                           A  2498    ;**************************** _AbsX ***********
                           A  2499    ;Name                         Addr/Register   S
                           A  2500    ;_op                                 STATIC    
                           A  2501    ;_opH                                STATIC    
                           A  2502    ;_opL                                STATIC    
                           A  2503    ;_xRegister                          STATIC    
                           A  2504    ;_programCounter                     STATIC    
                           A  2505    
                           A  2506    
                           A  2507    ; Stack Frame Size: 6 (bytes)
                           A  2508    ;       Spill Code: 0 (instruction)
                           A  2509    
                           A  2510    
010BB5                     A  2511    _AbsY:
010BB5 ED4B 59 46 01       A  2512    	LD	BC,(_programCounter)
010BBA C5                  A  2513    	PUSH	BC
010BBB ED4B 59 46 01       A  2514    	LD	BC,(_programCounter)
010BC0 03                  A  2515    	INC	BC
010BC1 ED43 59 46 01       A  2516    	LD	(_programCounter),BC
010BC6 CD 07 08 01         A  2517    	CALL	_Mem_Read
010BCA C1                  A  2518    	POP	BC
010BCB B7ED62              A  2519    	UEXT	HL
010BCE 6F                  A  2520    	LD	L,A
010BCF E5C1                A  2521    	LD	BC,HL
010BD1 3A 57 46 01         A  2522    	LD	A,(_yRegister)
010BD5 B7ED62              A  2523    	UEXT	HL
010BD8 6F                  A  2524    	LD	L,A
010BD9 09                  A  2525    	ADD	HL,BC
010BDA 22 63 46 01         A  2526    	LD	(_opL),HL
010BDE ED4B 59 46 01       A  2527    	LD	BC,(_programCounter)
010BE3 C5                  A  2528    	PUSH	BC
010BE4 ED4B 59 46 01       A  2529    	LD	BC,(_programCounter)
010BE9 03                  A  2530    	INC	BC
010BEA ED43 59 46 01       A  2531    	LD	(_programCounter),BC
010BEF CD 07 08 01         A  2532    	CALL	_Mem_Read
010BF3 C1                  A  2533    	POP	BC
010BF4 B7ED62              A  2534    	UEXT	HL
010BF7 6F                  A  2535    	LD	L,A
010BF8 3E08                A  2536    	LD	A,8
010BFA CD 0D 37 01         A  2537    	CALL	__ishl_b
010BFE 22 60 46 01         A  2538    	LD	(_opH),HL
Zilog eZ80 Macro Assembler Version 4.1 (10060805) RELISTED19-Sep-11     11:50:04     page:  50


PC     Object              I  Line    Source C:\DOCUME~1\_Enzo_\Desktop\Zapp\Debug\main.src
010C02 ED4B 63 46 01       A  2539    	LD	BC,(_opL)
010C07 09                  A  2540    	ADD	HL,BC
010C08 22 5D 46 01         A  2541    	LD	(_op),HL
010C0C C9                  A  2542    	RET	
                           A  2543    
                           A  2544    
                           A  2545    ;**************************** _AbsY ***********
                           A  2546    ;Name                         Addr/Register   S
                           A  2547    ;_op                                 STATIC    
                           A  2548    ;_opH                                STATIC    
                           A  2549    ;_opL                                STATIC    
                           A  2550    ;_yRegister                          STATIC    
                           A  2551    ;_programCounter                     STATIC    
                           A  2552    
                           A  2553    
                           A  2554    ; Stack Frame Size: 6 (bytes)
                           A  2555    ;       Spill Code: 0 (instruction)
                           A  2556    
                           A  2557    
010C0D                     A  2558    _Ind:
010C0D ED4B 59 46 01       A  2559    	LD	BC,(_programCounter)
010C12 C5                  A  2560    	PUSH	BC
010C13 ED4B 59 46 01       A  2561    	LD	BC,(_programCounter)
010C18 03                  A  2562    	INC	BC
010C19 ED43 59 46 01       A  2563    	LD	(_programCounter),BC
010C1E CD 07 08 01         A  2564    	CALL	_Mem_Read
010C22 C1                  A  2565    	POP	BC
010C23 B7ED62              A  2566    	UEXT	HL
010C26 6F                  A  2567    	LD	L,A
010C27 22 6C 46 01         A  2568    	LD	(_ptrL),HL
010C2B ED4B 59 46 01       A  2569    	LD	BC,(_programCounter)
010C30 C5                  A  2570    	PUSH	BC
010C31 ED4B 59 46 01       A  2571    	LD	BC,(_programCounter)
010C36 03                  A  2572    	INC	BC
010C37 ED43 59 46 01       A  2573    	LD	(_programCounter),BC
010C3C CD 07 08 01         A  2574    	CALL	_Mem_Read
010C40 C1                  A  2575    	POP	BC
010C41 B7ED62              A  2576    	UEXT	HL
010C44 6F                  A  2577    	LD	L,A
010C45 3E08                A  2578    	LD	A,8
010C47 CD 0D 37 01         A  2579    	CALL	__ishl_b
010C4B 22 69 46 01         A  2580    	LD	(_ptrH),HL
010C4F ED4B 6C 46 01       A  2581    	LD	BC,(_ptrL)
010C54 4009                A  2582    	ADD.SIS	HL,BC
010C56 E5                  A  2583    	PUSH	HL
010C57 CD 07 08 01         A  2584    	CALL	_Mem_Read
010C5B C1                  A  2585    	POP	BC
010C5C B7ED62              A  2586    	UEXT	HL
010C5F 6F                  A  2587    	LD	L,A
010C60 22 5D 46 01         A  2588    	LD	(_op),HL
010C64 2A 6C 46 01         A  2589    	LD	HL,(_ptrL)
010C68 23                  A  2590    	INC	HL
Zilog eZ80 Macro Assembler Version 4.1 (10060805) RELISTED19-Sep-11     11:50:04     page:  51


PC     Object              I  Line    Source C:\DOCUME~1\_Enzo_\Desktop\Zapp\Debug\main.src
010C69 7D                  A  2591    	LD	A,L
010C6A B7ED62              A  2592    	UEXT	HL
010C6D 6F                  A  2593    	LD	L,A
010C6E 22 6C 46 01         A  2594    	LD	(_ptrL),HL
010C72 2A 69 46 01         A  2595    	LD	HL,(_ptrH)
010C76 ED4B 6C 46 01       A  2596    	LD	BC,(_ptrL)
010C7B 4009                A  2597    	ADD.SIS	HL,BC
010C7D E5                  A  2598    	PUSH	HL
010C7E CD 07 08 01         A  2599    	CALL	_Mem_Read
010C82 C1                  A  2600    	POP	BC
010C83 ED4B 5D 46 01       A  2601    	LD	BC,(_op)
010C88 B7ED62              A  2602    	UEXT	HL
010C8B 6F                  A  2603    	LD	L,A
010C8C 3E08                A  2604    	LD	A,8
010C8E CD 0D 37 01         A  2605    	CALL	__ishl_b
010C92 09                  A  2606    	ADD	HL,BC
010C93 22 5D 46 01         A  2607    	LD	(_op),HL
010C97 C9                  A  2608    	RET	
                           A  2609    
                           A  2610    
                           A  2611    ;**************************** _Ind ************
                           A  2612    ;Name                         Addr/Register   S
                           A  2613    ;_op                                 STATIC    
                           A  2614    ;_ptrH                               STATIC    
                           A  2615    ;_ptrL                               STATIC    
                           A  2616    ;_programCounter                     STATIC    
                           A  2617    
                           A  2618    
                           A  2619    ; Stack Frame Size: 6 (bytes)
                           A  2620    ;       Spill Code: 0 (instruction)
                           A  2621    
                           A  2622    
010C98                     A  2623    _IndZeroX:
010C98 21FDFFFF            A  2624    	LD	HL,-3
010C9C CD 3A 36 01         A  2625    	CALL	__frameset
010CA0 ED4B 59 46 01       A  2626    	LD	BC,(_programCounter)
010CA5 C5                  A  2627    	PUSH	BC
010CA6 ED4B 59 46 01       A  2628    	LD	BC,(_programCounter)
010CAB 03                  A  2629    	INC	BC
010CAC ED43 59 46 01       A  2630    	LD	(_programCounter),BC
010CB1 3A 56 46 01         A  2631    	LD	A,(_xRegister)
010CB5 B7ED62              A  2632    	UEXT	HL
010CB8 6F                  A  2633    	LD	L,A
010CB9 E5C1                A  2634    	LD	BC,HL
010CBB DD0FFD              A  2635    	LD	(IX+-3),BC
010CBE CD 07 08 01         A  2636    	CALL	_Mem_Read
010CC2 DD07FD              A  2637    	LD	BC,(IX+-3)
010CC5 D1                  A  2638    	POP	DE
010CC6 B7ED62              A  2639    	UEXT	HL
010CC9 6F                  A  2640    	LD	L,A
010CCA 09                  A  2641    	ADD	HL,BC
010CCB 22 66 46 01         A  2642    	LD	(_ptr),HL
Zilog eZ80 Macro Assembler Version 4.1 (10060805) RELISTED19-Sep-11     11:50:04     page:  52


PC     Object              I  Line    Source C:\DOCUME~1\_Enzo_\Desktop\Zapp\Debug\main.src
010CCF ED4B 66 46 01       A  2643    	LD	BC,(_ptr)
010CD4 C5                  A  2644    	PUSH	BC
010CD5 CD 07 08 01         A  2645    	CALL	_Mem_Read
010CD9 C1                  A  2646    	POP	BC
010CDA B7ED62              A  2647    	UEXT	HL
010CDD 6F                  A  2648    	LD	L,A
010CDE 22 5D 46 01         A  2649    	LD	(_op),HL
010CE2 2A 66 46 01         A  2650    	LD	HL,(_ptr)
010CE6 23                  A  2651    	INC	HL
010CE7 4D                  A  2652    	LD	C,L
010CE8 0600                A  2653    	LD	B,0
010CEA C5                  A  2654    	PUSH	BC
010CEB CD 07 08 01         A  2655    	CALL	_Mem_Read
010CEF C1                  A  2656    	POP	BC
010CF0 ED4B 5D 46 01       A  2657    	LD	BC,(_op)
010CF5 B7ED62              A  2658    	UEXT	HL
010CF8 6F                  A  2659    	LD	L,A
010CF9 3E08                A  2660    	LD	A,8
010CFB CD 0D 37 01         A  2661    	CALL	__ishl_b
010CFF 09                  A  2662    	ADD	HL,BC
010D00 22 5D 46 01         A  2663    	LD	(_op),HL
010D04 DDF9                A  2664    	LD	SP,IX
010D06 DDE1                A  2665    	POP	IX
010D08 C9                  A  2666    	RET	
                           A  2667    
                           A  2668    
                           A  2669    ;**************************** _IndZeroX *******
                           A  2670    ;Name                         Addr/Register   S
                           A  2671    ;_op                                 STATIC    
                           A  2672    ;_ptr                                STATIC    
                           A  2673    ;_xRegister                          STATIC    
                           A  2674    ;_programCounter                     STATIC    
                           A  2675    
                           A  2676    
                           A  2677    ; Stack Frame Size: 9 (bytes)
                           A  2678    ;       Spill Code: 0 (instruction)
                           A  2679    
                           A  2680    
010D09                     A  2681    _IndZeroY:
010D09 ED4B 59 46 01       A  2682    	LD	BC,(_programCounter)
010D0E C5                  A  2683    	PUSH	BC
010D0F ED4B 59 46 01       A  2684    	LD	BC,(_programCounter)
010D14 03                  A  2685    	INC	BC
010D15 ED43 59 46 01       A  2686    	LD	(_programCounter),BC
010D1A CD 07 08 01         A  2687    	CALL	_Mem_Read
010D1E C1                  A  2688    	POP	BC
010D1F B7ED62              A  2689    	UEXT	HL
010D22 6F                  A  2690    	LD	L,A
010D23 22 66 46 01         A  2691    	LD	(_ptr),HL
010D27 ED4B 66 46 01       A  2692    	LD	BC,(_ptr)
010D2C C5                  A  2693    	PUSH	BC
010D2D CD 07 08 01         A  2694    	CALL	_Mem_Read
Zilog eZ80 Macro Assembler Version 4.1 (10060805) RELISTED19-Sep-11     11:50:04     page:  53


PC     Object              I  Line    Source C:\DOCUME~1\_Enzo_\Desktop\Zapp\Debug\main.src
010D31 C1                  A  2695    	POP	BC
010D32 B7ED62              A  2696    	UEXT	HL
010D35 6F                  A  2697    	LD	L,A
010D36 E5C1                A  2698    	LD	BC,HL
010D38 3A 57 46 01         A  2699    	LD	A,(_yRegister)
010D3C B7ED62              A  2700    	UEXT	HL
010D3F 6F                  A  2701    	LD	L,A
010D40 09                  A  2702    	ADD	HL,BC
010D41 22 63 46 01         A  2703    	LD	(_opL),HL
010D45 ED4B 66 46 01       A  2704    	LD	BC,(_ptr)
010D4A 03                  A  2705    	INC	BC
010D4B C5                  A  2706    	PUSH	BC
010D4C CD 07 08 01         A  2707    	CALL	_Mem_Read
010D50 C1                  A  2708    	POP	BC
010D51 B7ED62              A  2709    	UEXT	HL
010D54 6F                  A  2710    	LD	L,A
010D55 3E08                A  2711    	LD	A,8
010D57 CD 0D 37 01         A  2712    	CALL	__ishl_b
010D5B 22 60 46 01         A  2713    	LD	(_opH),HL
010D5F ED4B 63 46 01       A  2714    	LD	BC,(_opL)
010D64 09                  A  2715    	ADD	HL,BC
010D65 22 5D 46 01         A  2716    	LD	(_op),HL
010D69 C9                  A  2717    	RET	
                           A  2718    
                           A  2719    
                           A  2720    ;**************************** _IndZeroY *******
                           A  2721    ;Name                         Addr/Register   S
                           A  2722    ;_op                                 STATIC    
                           A  2723    ;_opH                                STATIC    
                           A  2724    ;_opL                                STATIC    
                           A  2725    ;_yRegister                          STATIC    
                           A  2726    ;_ptr                                STATIC    
                           A  2727    ;_programCounter                     STATIC    
                           A  2728    
                           A  2729    
                           A  2730    ; Stack Frame Size: 6 (bytes)
                           A  2731    ;       Spill Code: 0 (instruction)
                           A  2732    
                           A  2733    
010D6A                     A  2734    _Rel:
010D6A ED4B 59 46 01       A  2735    	LD	BC,(_programCounter)
010D6F C5                  A  2736    	PUSH	BC
010D70 ED4B 59 46 01       A  2737    	LD	BC,(_programCounter)
010D75 03                  A  2738    	INC	BC
010D76 ED43 59 46 01       A  2739    	LD	(_programCounter),BC
010D7B CD 07 08 01         A  2740    	CALL	_Mem_Read
010D7F C1                  A  2741    	POP	BC
010D80 B7ED62              A  2742    	UEXT	HL
010D83 6F                  A  2743    	LD	L,A
010D84 22 5D 46 01         A  2744    	LD	(_op),HL
010D88 B7                  A  2745    	OR	A,A
010D89 01800000            A  2746    	LD	BC,128
Zilog eZ80 Macro Assembler Version 4.1 (10060805) RELISTED19-Sep-11     11:50:04     page:  54


PC     Object              I  Line    Source C:\DOCUME~1\_Enzo_\Desktop\Zapp\Debug\main.src
010D8D ED42                A  2747    	SBC	HL,BC
010D8F FA 99 0D 01         A  2748    	JP	M,L__106
010D93 EA AD 0D 01         A  2749    	JP	PE,L_160
010D97 18 04               A  2750    	JR	L__107
010D99                     A  2751    L__106:
010D99 E2 AD 0D 01         A  2752    	JP	PO,L_160
010D9D                     A  2753    L__107:
010D9D 2A 5D 46 01         A  2754    	LD	HL,(_op)
010DA1 0100FF00            A  2755    	LD	BC,65280
010DA5 CD BA 35 01         A  2756    	CALL	__ior
010DA9 22 5D 46 01         A  2757    	LD	(_op),HL
010DAD                     A  2758    L_160:
010DAD ED4B 59 46 01       A  2759    	LD	BC,(_programCounter)
010DB2 2A 5D 46 01         A  2760    	LD	HL,(_op)
010DB6 09                  A  2761    	ADD	HL,BC
010DB7 22 5D 46 01         A  2762    	LD	(_op),HL
010DBB C9                  A  2763    	RET	
                           A  2764    
                           A  2765    
                           A  2766    ;**************************** _Rel ************
                           A  2767    ;Name                         Addr/Register   S
                           A  2768    ;_op                                 STATIC    
                           A  2769    ;_programCounter                     STATIC    
                           A  2770    
                           A  2771    
                           A  2772    ; Stack Frame Size: 6 (bytes)
                           A  2773    ;       Spill Code: 0 (instruction)
                           A  2774    
                           A  2775    
010DBC                     A  2776    _WAbsX:
010DBC ED4B 59 46 01       A  2777    	LD	BC,(_programCounter)
010DC1 C5                  A  2778    	PUSH	BC
010DC2 ED4B 59 46 01       A  2779    	LD	BC,(_programCounter)
010DC7 03                  A  2780    	INC	BC
010DC8 ED43 59 46 01       A  2781    	LD	(_programCounter),BC
010DCD CD 07 08 01         A  2782    	CALL	_Mem_Read
010DD1 C1                  A  2783    	POP	BC
010DD2 B7ED62              A  2784    	UEXT	HL
010DD5 6F                  A  2785    	LD	L,A
010DD6 E5C1                A  2786    	LD	BC,HL
010DD8 3A 56 46 01         A  2787    	LD	A,(_xRegister)
010DDC B7ED62              A  2788    	UEXT	HL
010DDF 6F                  A  2789    	LD	L,A
010DE0 09                  A  2790    	ADD	HL,BC
010DE1 22 63 46 01         A  2791    	LD	(_opL),HL
010DE5 ED4B 59 46 01       A  2792    	LD	BC,(_programCounter)
010DEA C5                  A  2793    	PUSH	BC
010DEB ED4B 59 46 01       A  2794    	LD	BC,(_programCounter)
010DF0 03                  A  2795    	INC	BC
010DF1 ED43 59 46 01       A  2796    	LD	(_programCounter),BC
010DF6 CD 07 08 01         A  2797    	CALL	_Mem_Read
010DFA C1                  A  2798    	POP	BC
Zilog eZ80 Macro Assembler Version 4.1 (10060805) RELISTED19-Sep-11     11:50:04     page:  55


PC     Object              I  Line    Source C:\DOCUME~1\_Enzo_\Desktop\Zapp\Debug\main.src
010DFB B7ED62              A  2799    	UEXT	HL
010DFE 6F                  A  2800    	LD	L,A
010DFF 3E08                A  2801    	LD	A,8
010E01 CD 0D 37 01         A  2802    	CALL	__ishl_b
010E05 22 60 46 01         A  2803    	LD	(_opH),HL
010E09 ED4B 63 46 01       A  2804    	LD	BC,(_opL)
010E0E 09                  A  2805    	ADD	HL,BC
010E0F 22 5D 46 01         A  2806    	LD	(_op),HL
010E13 C9                  A  2807    	RET	
                           A  2808    
                           A  2809    
                           A  2810    ;**************************** _WAbsX **********
                           A  2811    ;Name                         Addr/Register   S
                           A  2812    ;_op                                 STATIC    
                           A  2813    ;_opH                                STATIC    
                           A  2814    ;_opL                                STATIC    
                           A  2815    ;_xRegister                          STATIC    
                           A  2816    ;_programCounter                     STATIC    
                           A  2817    
                           A  2818    
                           A  2819    ; Stack Frame Size: 6 (bytes)
                           A  2820    ;       Spill Code: 0 (instruction)
                           A  2821    
                           A  2822    
010E14                     A  2823    _WAbsY:
010E14 ED4B 59 46 01       A  2824    	LD	BC,(_programCounter)
010E19 C5                  A  2825    	PUSH	BC
010E1A ED4B 59 46 01       A  2826    	LD	BC,(_programCounter)
010E1F 03                  A  2827    	INC	BC
010E20 ED43 59 46 01       A  2828    	LD	(_programCounter),BC
010E25 CD 07 08 01         A  2829    	CALL	_Mem_Read
010E29 C1                  A  2830    	POP	BC
010E2A B7ED62              A  2831    	UEXT	HL
010E2D 6F                  A  2832    	LD	L,A
010E2E E5C1                A  2833    	LD	BC,HL
010E30 3A 57 46 01         A  2834    	LD	A,(_yRegister)
010E34 B7ED62              A  2835    	UEXT	HL
010E37 6F                  A  2836    	LD	L,A
010E38 09                  A  2837    	ADD	HL,BC
010E39 22 63 46 01         A  2838    	LD	(_opL),HL
010E3D ED4B 59 46 01       A  2839    	LD	BC,(_programCounter)
010E42 C5                  A  2840    	PUSH	BC
010E43 ED4B 59 46 01       A  2841    	LD	BC,(_programCounter)
010E48 03                  A  2842    	INC	BC
010E49 ED43 59 46 01       A  2843    	LD	(_programCounter),BC
010E4E CD 07 08 01         A  2844    	CALL	_Mem_Read
010E52 C1                  A  2845    	POP	BC
010E53 B7ED62              A  2846    	UEXT	HL
010E56 6F                  A  2847    	LD	L,A
010E57 3E08                A  2848    	LD	A,8
010E59 CD 0D 37 01         A  2849    	CALL	__ishl_b
010E5D 22 60 46 01         A  2850    	LD	(_opH),HL
Zilog eZ80 Macro Assembler Version 4.1 (10060805) RELISTED19-Sep-11     11:50:04     page:  56


PC     Object              I  Line    Source C:\DOCUME~1\_Enzo_\Desktop\Zapp\Debug\main.src
010E61 ED4B 63 46 01       A  2851    	LD	BC,(_opL)
010E66 09                  A  2852    	ADD	HL,BC
010E67 22 5D 46 01         A  2853    	LD	(_op),HL
010E6B C9                  A  2854    	RET	
                           A  2855    
                           A  2856    
                           A  2857    ;**************************** _WAbsY **********
                           A  2858    ;Name                         Addr/Register   S
                           A  2859    ;_op                                 STATIC    
                           A  2860    ;_opH                                STATIC    
                           A  2861    ;_opL                                STATIC    
                           A  2862    ;_yRegister                          STATIC    
                           A  2863    ;_programCounter                     STATIC    
                           A  2864    
                           A  2865    
                           A  2866    ; Stack Frame Size: 6 (bytes)
                           A  2867    ;       Spill Code: 0 (instruction)
                           A  2868    
                           A  2869    
010E6C                     A  2870    _WIndZeroY:
010E6C ED4B 59 46 01       A  2871    	LD	BC,(_programCounter)
010E71 C5                  A  2872    	PUSH	BC
010E72 ED4B 59 46 01       A  2873    	LD	BC,(_programCounter)
010E77 03                  A  2874    	INC	BC
010E78 ED43 59 46 01       A  2875    	LD	(_programCounter),BC
010E7D CD 07 08 01         A  2876    	CALL	_Mem_Read
010E81 C1                  A  2877    	POP	BC
010E82 B7ED62              A  2878    	UEXT	HL
010E85 6F                  A  2879    	LD	L,A
010E86 22 66 46 01         A  2880    	LD	(_ptr),HL
010E8A ED4B 66 46 01       A  2881    	LD	BC,(_ptr)
010E8F C5                  A  2882    	PUSH	BC
010E90 CD 07 08 01         A  2883    	CALL	_Mem_Read
010E94 C1                  A  2884    	POP	BC
010E95 B7ED62              A  2885    	UEXT	HL
010E98 6F                  A  2886    	LD	L,A
010E99 E5C1                A  2887    	LD	BC,HL
010E9B 3A 57 46 01         A  2888    	LD	A,(_yRegister)
010E9F B7ED62              A  2889    	UEXT	HL
010EA2 6F                  A  2890    	LD	L,A
010EA3 09                  A  2891    	ADD	HL,BC
010EA4 22 63 46 01         A  2892    	LD	(_opL),HL
010EA8 2A 66 46 01         A  2893    	LD	HL,(_ptr)
010EAC 23                  A  2894    	INC	HL
010EAD 4D                  A  2895    	LD	C,L
010EAE 0600                A  2896    	LD	B,0
010EB0 C5                  A  2897    	PUSH	BC
010EB1 CD 07 08 01         A  2898    	CALL	_Mem_Read
010EB5 C1                  A  2899    	POP	BC
010EB6 B7ED62              A  2900    	UEXT	HL
010EB9 6F                  A  2901    	LD	L,A
010EBA 3E08                A  2902    	LD	A,8
Zilog eZ80 Macro Assembler Version 4.1 (10060805) RELISTED19-Sep-11     11:50:04     page:  57


PC     Object              I  Line    Source C:\DOCUME~1\_Enzo_\Desktop\Zapp\Debug\main.src
010EBC CD 0D 37 01         A  2903    	CALL	__ishl_b
010EC0 22 60 46 01         A  2904    	LD	(_opH),HL
010EC4 ED4B 63 46 01       A  2905    	LD	BC,(_opL)
010EC9 09                  A  2906    	ADD	HL,BC
010ECA 22 5D 46 01         A  2907    	LD	(_op),HL
010ECE C9                  A  2908    	RET	
                           A  2909    
                           A  2910    
                           A  2911    ;**************************** _WIndZeroY ******
                           A  2912    ;Name                         Addr/Register   S
                           A  2913    ;_op                                 STATIC    
                           A  2914    ;_opH                                STATIC    
                           A  2915    ;_opL                                STATIC    
                           A  2916    ;_yRegister                          STATIC    
                           A  2917    ;_ptr                                STATIC    
                           A  2918    ;_programCounter                     STATIC    
                           A  2919    
                           A  2920    
                           A  2921    ; Stack Frame Size: 6 (bytes)
                           A  2922    ;       Spill Code: 0 (instruction)
                           A  2923    
                           A  2924    
010ECF                     A  2925    _setStatusRegisterNZ:
010ECF CD 11 36 01         A  2926    	CALL	__frameset0
010ED3 DD7E06              A  2927    	LD	A,(IX+6)
010ED6 E680                A  2928    	AND	A,128
010ED8 28 0C               A  2929    	JR	Z,L_171
010EDA 3A 9F 46 01         A  2930    	LD	A,(_statusRegister)
010EDE CBFF                A  2931    	SET	7,A
010EE0 32 9F 46 01         A  2932    	LD	(_statusRegister),A
010EE4 18 0A               A  2933    	JR	L_174
010EE6                     A  2934    L_171:
010EE6 3A 9F 46 01         A  2935    	LD	A,(_statusRegister)
010EEA CBBF                A  2936    	RES	7,A
010EEC 32 9F 46 01         A  2937    	LD	(_statusRegister),A
010EF0                     A  2938    L_174:
010EF0 DD7E06              A  2939    	LD	A,(IX+6)
010EF3 B7                  A  2940    	OR	A,A
010EF4 20 0C               A  2941    	JR	NZ,L_173
010EF6 3A 9F 46 01         A  2942    	LD	A,(_statusRegister)
010EFA CBCF                A  2943    	SET	1,A
010EFC 32 9F 46 01         A  2944    	LD	(_statusRegister),A
010F00 18 0A               A  2945    	JR	L_175
010F02                     A  2946    L_173:
010F02 3A 9F 46 01         A  2947    	LD	A,(_statusRegister)
010F06 CB8F                A  2948    	RES	1,A
010F08 32 9F 46 01         A  2949    	LD	(_statusRegister),A
010F0C                     A  2950    L_175:
010F0C DDF9                A  2951    	LD	SP,IX
010F0E DDE1                A  2952    	POP	IX
010F10 C9                  A  2953    	RET	
                           A  2954    
Zilog eZ80 Macro Assembler Version 4.1 (10060805) RELISTED19-Sep-11     11:50:04     page:  58


PC     Object              I  Line    Source C:\DOCUME~1\_Enzo_\Desktop\Zapp\Debug\main.src
                           A  2955    
                           A  2956    ;**************************** _setStatusRegiste
                           A  2957    ;Name                         Addr/Register   S
                           A  2958    ;_statusRegister                     STATIC    
                           A  2959    ;val                                   IX+6    
                           A  2960    
                           A  2961    
                           A  2962    ; Stack Frame Size: 9 (bytes)
                           A  2963    ;       Spill Code: 0 (instruction)
                           A  2964    
                           A  2965    
010F11                     A  2966    _LDA:
010F11 ED4B 5D 46 01       A  2967    	LD	BC,(_op)
010F16 C5                  A  2968    	PUSH	BC
010F17 CD 07 08 01         A  2969    	CALL	_Mem_Read
010F1B C1                  A  2970    	POP	BC
010F1C 4F                  A  2971    	LD	C,A
010F1D 0600                A  2972    	LD	B,0
010F1F C5                  A  2973    	PUSH	BC
010F20 32 55 46 01         A  2974    	LD	(_accumulator),A
010F24 CD CF 0E 01         A  2975    	CALL	_setStatusRegisterNZ
010F28 C1                  A  2976    	POP	BC
010F29 C9                  A  2977    	RET	
                           A  2978    
                           A  2979    
                           A  2980    ;**************************** _LDA ************
                           A  2981    ;Name                         Addr/Register   S
                           A  2982    ;_accumulator                        STATIC    
                           A  2983    ;_op                                 STATIC    
                           A  2984    
                           A  2985    
                           A  2986    ; Stack Frame Size: 6 (bytes)
                           A  2987    ;       Spill Code: 0 (instruction)
                           A  2988    
                           A  2989    
010F2A                     A  2990    _LDX:
010F2A ED4B 5D 46 01       A  2991    	LD	BC,(_op)
010F2F C5                  A  2992    	PUSH	BC
010F30 CD 07 08 01         A  2993    	CALL	_Mem_Read
010F34 C1                  A  2994    	POP	BC
010F35 4F                  A  2995    	LD	C,A
010F36 0600                A  2996    	LD	B,0
010F38 C5                  A  2997    	PUSH	BC
010F39 32 56 46 01         A  2998    	LD	(_xRegister),A
010F3D CD CF 0E 01         A  2999    	CALL	_setStatusRegisterNZ
010F41 C1                  A  3000    	POP	BC
010F42 C9                  A  3001    	RET	
                           A  3002    
                           A  3003    
                           A  3004    ;**************************** _LDX ************
                           A  3005    ;Name                         Addr/Register   S
                           A  3006    ;_xRegister                          STATIC    
Zilog eZ80 Macro Assembler Version 4.1 (10060805) RELISTED19-Sep-11     11:50:04     page:  59


PC     Object              I  Line    Source C:\DOCUME~1\_Enzo_\Desktop\Zapp\Debug\main.src
                           A  3007    ;_op                                 STATIC    
                           A  3008    
                           A  3009    
                           A  3010    ; Stack Frame Size: 6 (bytes)
                           A  3011    ;       Spill Code: 0 (instruction)
                           A  3012    
                           A  3013    
010F43                     A  3014    _LDY:
010F43 ED4B 5D 46 01       A  3015    	LD	BC,(_op)
010F48 C5                  A  3016    	PUSH	BC
010F49 CD 07 08 01         A  3017    	CALL	_Mem_Read
010F4D C1                  A  3018    	POP	BC
010F4E 4F                  A  3019    	LD	C,A
010F4F 0600                A  3020    	LD	B,0
010F51 C5                  A  3021    	PUSH	BC
010F52 32 57 46 01         A  3022    	LD	(_yRegister),A
010F56 CD CF 0E 01         A  3023    	CALL	_setStatusRegisterNZ
010F5A C1                  A  3024    	POP	BC
010F5B C9                  A  3025    	RET	
                           A  3026    
                           A  3027    
                           A  3028    ;**************************** _LDY ************
                           A  3029    ;Name                         Addr/Register   S
                           A  3030    ;_yRegister                          STATIC    
                           A  3031    ;_op                                 STATIC    
                           A  3032    
                           A  3033    
                           A  3034    ; Stack Frame Size: 6 (bytes)
                           A  3035    ;       Spill Code: 0 (instruction)
                           A  3036    
                           A  3037    
010F5C                     A  3038    _STA:
010F5C 3A 55 46 01         A  3039    	LD	A,(_accumulator)
010F60 4F                  A  3040    	LD	C,A
010F61 0600                A  3041    	LD	B,0
010F63 C5                  A  3042    	PUSH	BC
010F64 ED4B 5D 46 01       A  3043    	LD	BC,(_op)
010F69 C5                  A  3044    	PUSH	BC
010F6A CD 6A 08 01         A  3045    	CALL	_Mem_Write
010F6E C1                  A  3046    	POP	BC
010F6F C1                  A  3047    	POP	BC
010F70 C9                  A  3048    	RET	
                           A  3049    
                           A  3050    
                           A  3051    ;**************************** _STA ************
                           A  3052    ;Name                         Addr/Register   S
                           A  3053    ;_op                                 STATIC    
                           A  3054    ;_accumulator                        STATIC    
                           A  3055    
                           A  3056    
                           A  3057    ; Stack Frame Size: 6 (bytes)
                           A  3058    ;       Spill Code: 0 (instruction)
Zilog eZ80 Macro Assembler Version 4.1 (10060805) RELISTED19-Sep-11     11:50:04     page:  60


PC     Object              I  Line    Source C:\DOCUME~1\_Enzo_\Desktop\Zapp\Debug\main.src
                           A  3059    
                           A  3060    
010F71                     A  3061    _STX:
010F71 3A 56 46 01         A  3062    	LD	A,(_xRegister)
010F75 4F                  A  3063    	LD	C,A
010F76 0600                A  3064    	LD	B,0
010F78 C5                  A  3065    	PUSH	BC
010F79 ED4B 5D 46 01       A  3066    	LD	BC,(_op)
010F7E C5                  A  3067    	PUSH	BC
010F7F CD 6A 08 01         A  3068    	CALL	_Mem_Write
010F83 C1                  A  3069    	POP	BC
010F84 C1                  A  3070    	POP	BC
010F85 C9                  A  3071    	RET	
                           A  3072    
                           A  3073    
                           A  3074    ;**************************** _STX ************
                           A  3075    ;Name                         Addr/Register   S
                           A  3076    ;_op                                 STATIC    
                           A  3077    ;_xRegister                          STATIC    
                           A  3078    
                           A  3079    
                           A  3080    ; Stack Frame Size: 6 (bytes)
                           A  3081    ;       Spill Code: 0 (instruction)
                           A  3082    
                           A  3083    
010F86                     A  3084    _STY:
010F86 3A 57 46 01         A  3085    	LD	A,(_yRegister)
010F8A 4F                  A  3086    	LD	C,A
010F8B 0600                A  3087    	LD	B,0
010F8D C5                  A  3088    	PUSH	BC
010F8E ED4B 5D 46 01       A  3089    	LD	BC,(_op)
010F93 C5                  A  3090    	PUSH	BC
010F94 CD 6A 08 01         A  3091    	CALL	_Mem_Write
010F98 C1                  A  3092    	POP	BC
010F99 C1                  A  3093    	POP	BC
010F9A C9                  A  3094    	RET	
                           A  3095    
                           A  3096    
                           A  3097    ;**************************** _STY ************
                           A  3098    ;Name                         Addr/Register   S
                           A  3099    ;_op                                 STATIC    
                           A  3100    ;_yRegister                          STATIC    
                           A  3101    
                           A  3102    
                           A  3103    ; Stack Frame Size: 6 (bytes)
                           A  3104    ;       Spill Code: 0 (instruction)
                           A  3105    
                           A  3106    
010F9B                     A  3107    _setFlagCarry:
010F9B CD 11 36 01         A  3108    	CALL	__frameset0
010F9F 01000100            A  3109    	LD	BC,256
010FA3 DD2706              A  3110    	LD	HL,(IX+6)
Zilog eZ80 Macro Assembler Version 4.1 (10060805) RELISTED19-Sep-11     11:50:04     page:  61


PC     Object              I  Line    Source C:\DOCUME~1\_Enzo_\Desktop\Zapp\Debug\main.src
010FA6 CD D1 36 01         A  3111    	CALL	__iand
010FAA 01000000            A  3112    	LD	BC,0
010FAE B7                  A  3113    	OR	A,A
010FAF ED42                A  3114    	SBC	HL,BC
010FB1 28 0C               A  3115    	JR	Z,L_183
010FB3 3A 9F 46 01         A  3116    	LD	A,(_statusRegister)
010FB7 CBC7                A  3117    	SET	0,A
010FB9 32 9F 46 01         A  3118    	LD	(_statusRegister),A
010FBD 18 0A               A  3119    	JR	L_184
010FBF                     A  3120    L_183:
010FBF 3A 9F 46 01         A  3121    	LD	A,(_statusRegister)
010FC3 CB87                A  3122    	RES	0,A
010FC5 32 9F 46 01         A  3123    	LD	(_statusRegister),A
010FC9                     A  3124    L_184:
010FC9 DDF9                A  3125    	LD	SP,IX
010FCB DDE1                A  3126    	POP	IX
010FCD C9                  A  3127    	RET	
                           A  3128    
                           A  3129    
                           A  3130    ;**************************** _setFlagCarry ***
                           A  3131    ;Name                         Addr/Register   S
                           A  3132    ;_statusRegister                     STATIC    
                           A  3133    ;val                                   IX+6    
                           A  3134    
                           A  3135    
                           A  3136    ; Stack Frame Size: 9 (bytes)
                           A  3137    ;       Spill Code: 0 (instruction)
                           A  3138    
                           A  3139    
010FCE                     A  3140    _ADC:
010FCE 21F0FFFF            A  3141    	LD	HL,-16
010FD2 CD 3A 36 01         A  3142    	CALL	__frameset
010FD6 3A 55 46 01         A  3143    	LD	A,(_accumulator)
010FDA B7ED62              A  3144    	UEXT	HL
010FDD 6F                  A  3145    	LD	L,A
010FDE DD2FFD              A  3146    	LD	(IX+-3),HL
010FE1 ED4B 5D 46 01       A  3147    	LD	BC,(_op)
010FE6 C5                  A  3148    	PUSH	BC
010FE7 CD 07 08 01         A  3149    	CALL	_Mem_Read
010FEB C1                  A  3150    	POP	BC
010FEC B7ED62              A  3151    	UEXT	HL
010FEF 6F                  A  3152    	LD	L,A
010FF0 DD2FFA              A  3153    	LD	(IX+-6),HL
010FF3 3A 9F 46 01         A  3154    	LD	A,(_statusRegister)
010FF7 E601                A  3155    	AND	A,1
010FF9 28 09               A  3156    	JR	Z,L_187
010FFB 01010000            A  3157    	LD	BC,1
010FFF DD0FF6              A  3158    	LD	(IX+-10),BC
011002 18 07               A  3159    	JR	L_188
011004                     A  3160    L_187:
011004 01000000            A  3161    	LD	BC,0
011008 DD0FF6              A  3162    	LD	(IX+-10),BC
Zilog eZ80 Macro Assembler Version 4.1 (10060805) RELISTED19-Sep-11     11:50:04     page:  62


PC     Object              I  Line    Source C:\DOCUME~1\_Enzo_\Desktop\Zapp\Debug\main.src
01100B                     A  3163    L_188:
01100B DD7EF6              A  3164    	LD	A,(IX+-10)
01100E DD77F9              A  3165    	LD	(IX+-7),A
011011 3A 9F 46 01         A  3166    	LD	A,(_statusRegister)
011015 E608                A  3167    	AND	A,8
011017 CA B0 11 01         A  3168    	JR	Z,L_213
01101B DD07FA              A  3169    	LD	BC,(IX+-6)
01101E DD27FD              A  3170    	LD	HL,(IX+-3)
011021 09                  A  3171    	ADD	HL,BC
011022 E5C1                A  3172    	LD	BC,HL
011024 DD7EF9              A  3173    	LD	A,(IX+-7)
011027 17ED62              A  3174    	SEXT	HL
01102A DD6EF9              A  3175    	LD	L,(IX+-7)
01102D 09                  A  3176    	ADD	HL,BC
01102E 7D                  A  3177    	LD	A,L
01102F B7ED62              A  3178    	UEXT	HL
011032 6F                  A  3179    	LD	L,A
011033 B7                  A  3180    	OR	A,A
011034 01000000            A  3181    	LD	BC,0
011038 ED42                A  3182    	SBC	HL,BC
01103A 20 0C               A  3183    	JR	NZ,L_190
01103C 3A 9F 46 01         A  3184    	LD	A,(_statusRegister)
011040 CBCF                A  3185    	SET	1,A
011042 32 9F 46 01         A  3186    	LD	(_statusRegister),A
011046 18 0A               A  3187    	JR	L_191
011048                     A  3188    L_190:
011048 3A 9F 46 01         A  3189    	LD	A,(_statusRegister)
01104C CB8F                A  3190    	RES	1,A
01104E 32 9F 46 01         A  3191    	LD	(_statusRegister),A
011052                     A  3192    L_191:
011052 DD7EFD              A  3193    	LD	A,(IX+-3)
011055 E60F                A  3194    	AND	A,15
011057 B7ED62              A  3195    	UEXT	HL
01105A 6F                  A  3196    	LD	L,A
01105B E5C1                A  3197    	LD	BC,HL
01105D DD7EFA              A  3198    	LD	A,(IX+-6)
011060 E60F                A  3199    	AND	A,15
011062 B7ED62              A  3200    	UEXT	HL
011065 6F                  A  3201    	LD	L,A
011066 DD7EF9              A  3202    	LD	A,(IX+-7)
011069 09                  A  3203    	ADD	HL,BC
01106A E5C1                A  3204    	LD	BC,HL
01106C 17ED62              A  3205    	SEXT	HL
01106F DD6EF9              A  3206    	LD	L,(IX+-7)
011072 09                  A  3207    	ADD	HL,BC
011073 22 6F 46 01         A  3208    	LD	(_tmp),HL
011077 B7                  A  3209    	OR	A,A
011078 010A0000            A  3210    	LD	BC,10
01107C ED42                A  3211    	SBC	HL,BC
01107E F2 8C 10 01         A  3212    	JP	P,L_194
011082 ED4B 6F 46 01       A  3213    	LD	BC,(_tmp)
011087 DD0FF3              A  3214    	LD	(IX+-13),BC
Zilog eZ80 Macro Assembler Version 4.1 (10060805) RELISTED19-Sep-11     11:50:04     page:  63


PC     Object              I  Line    Source C:\DOCUME~1\_Enzo_\Desktop\Zapp\Debug\main.src
01108A 18 0B               A  3215    	JR	L_195
01108C                     A  3216    L_194:
01108C FD2A 6F 46 01       A  3217    	LD	IY,(_tmp)
011091 ED3306              A  3218    	LEA	IY,IY+6
011094 DD3EF3              A  3219    	LD	(IX+-13),IY
011097                     A  3220    L_195:
011097 DD7EF3              A  3221    	LD	A,(IX+-13)
01109A 32 55 46 01         A  3222    	LD	(_accumulator),A
01109E DD7EFD              A  3223    	LD	A,(IX+-3)
0110A1 E6F0                A  3224    	AND	A,240
0110A3 B7ED62              A  3225    	UEXT	HL
0110A6 6F                  A  3226    	LD	L,A
0110A7 DD7EFA              A  3227    	LD	A,(IX+-6)
0110AA E6F0                A  3228    	AND	A,240
0110AC E5C1                A  3229    	LD	BC,HL
0110AE B7ED62              A  3230    	UEXT	HL
0110B1 6F                  A  3231    	LD	L,A
0110B2 09                  A  3232    	ADD	HL,BC
0110B3 3A 6F 46 01         A  3233    	LD	A,(_tmp)
0110B7 E6F0                A  3234    	AND	A,240
0110B9 E5C1                A  3235    	LD	BC,HL
0110BB B7ED62              A  3236    	UEXT	HL
0110BE 6F                  A  3237    	LD	L,A
0110BF 09                  A  3238    	ADD	HL,BC
0110C0 22 6F 46 01         A  3239    	LD	(_tmp),HL
0110C4 3A 6F 46 01         A  3240    	LD	A,(_tmp)
0110C8 E680                A  3241    	AND	A,128
0110CA B7ED62              A  3242    	UEXT	HL
0110CD 6F                  A  3243    	LD	L,A
0110CE B7                  A  3244    	OR	A,A
0110CF 01000000            A  3245    	LD	BC,0
0110D3 ED42                A  3246    	SBC	HL,BC
0110D5 28 0C               A  3247    	JR	Z,L_197
0110D7 3A 9F 46 01         A  3248    	LD	A,(_statusRegister)
0110DB CBFF                A  3249    	SET	7,A
0110DD 32 9F 46 01         A  3250    	LD	(_statusRegister),A
0110E1 18 0A               A  3251    	JR	L_200
0110E3                     A  3252    L_197:
0110E3 3A 9F 46 01         A  3253    	LD	A,(_statusRegister)
0110E7 CBBF                A  3254    	RES	7,A
0110E9 32 9F 46 01         A  3255    	LD	(_statusRegister),A
0110ED                     A  3256    L_200:
0110ED 2A 6F 46 01         A  3257    	LD	HL,(_tmp)
0110F1 DD07FD              A  3258    	LD	BC,(IX+-3)
0110F4 CD 7B 36 01         A  3259    	CALL	__ixor
0110F8 E5D1                A  3260    	LD	DE,HL
0110FA DD27FD              A  3261    	LD	HL,(IX+-3)
0110FD DD07FA              A  3262    	LD	BC,(IX+-6)
011100 CD 7B 36 01         A  3263    	CALL	__ixor
011104 CD B0 35 01         A  3264    	CALL	__inot
011108 E5C1                A  3265    	LD	BC,HL
01110A D5E1                A  3266    	LD	HL,DE
Zilog eZ80 Macro Assembler Version 4.1 (10060805) RELISTED19-Sep-11     11:50:04     page:  64


PC     Object              I  Line    Source C:\DOCUME~1\_Enzo_\Desktop\Zapp\Debug\main.src
01110C CD D1 36 01         A  3267    	CALL	__iand
011110 7D                  A  3268    	LD	A,L
011111 E680                A  3269    	AND	A,128
011113 B7ED62              A  3270    	UEXT	HL
011116 6F                  A  3271    	LD	L,A
011117 B7                  A  3272    	OR	A,A
011118 01000000            A  3273    	LD	BC,0
01111C ED42                A  3274    	SBC	HL,BC
01111E 28 0C               A  3275    	JR	Z,L_199
011120 3A 9F 46 01         A  3276    	LD	A,(_statusRegister)
011124 CBF7                A  3277    	SET	6,A
011126 32 9F 46 01         A  3278    	LD	(_statusRegister),A
01112A 18 0A               A  3279    	JR	L_205
01112C                     A  3280    L_199:
01112C 3A 9F 46 01         A  3281    	LD	A,(_statusRegister)
011130 CBB7                A  3282    	RES	6,A
011132 32 9F 46 01         A  3283    	LD	(_statusRegister),A
011136                     A  3284    L_205:
011136 01A00000            A  3285    	LD	BC,160
01113A 2A 6F 46 01         A  3286    	LD	HL,(_tmp)
01113E B7                  A  3287    	OR	A,A
01113F ED42                A  3288    	SBC	HL,BC
011141 F2 4B 11 01         A  3289    	JP	P,L__132
011145 EA 59 11 01         A  3290    	JP	PE,L_203
011149 18 04               A  3291    	JR	L__133
01114B                     A  3292    L__132:
01114B E2 59 11 01         A  3293    	JP	PO,L_203
01114F                     A  3294    L__133:
01114F ED4B 6F 46 01       A  3295    	LD	BC,(_tmp)
011154 DD0FF0              A  3296    	LD	(IX+-16),BC
011157 18 0B               A  3297    	JR	L_204
011159                     A  3298    L_203:
011159 FD2A 6F 46 01       A  3299    	LD	IY,(_tmp)
01115E ED3360              A  3300    	LEA	IY,IY+96
011161 DD3EF0              A  3301    	LD	(IX+-16),IY
011164                     A  3302    L_204:
011164 3A 55 46 01         A  3303    	LD	A,(_accumulator)
011168 E60F                A  3304    	AND	A,15
01116A B7ED62              A  3305    	UEXT	HL
01116D 6F                  A  3306    	LD	L,A
01116E B7                  A  3307    	OR	A,A
01116F DD07F0              A  3308    	LD	BC,(IX+-16)
011172 CD BA 35 01         A  3309    	CALL	__ior
011176 22 6F 46 01         A  3310    	LD	(_tmp),HL
01117A 01000100            A  3311    	LD	BC,256
01117E ED42                A  3312    	SBC	HL,BC
011180 FA 8A 11 01         A  3313    	JP	M,L__134
011184 EA 9A 11 01         A  3314    	JP	PE,L_207
011188 18 04               A  3315    	JR	L__135
01118A                     A  3316    L__134:
01118A E2 9A 11 01         A  3317    	JP	PO,L_207
01118E                     A  3318    L__135:
Zilog eZ80 Macro Assembler Version 4.1 (10060805) RELISTED19-Sep-11     11:50:04     page:  65


PC     Object              I  Line    Source C:\DOCUME~1\_Enzo_\Desktop\Zapp\Debug\main.src
01118E 3A 9F 46 01         A  3319    	LD	A,(_statusRegister)
011192 CBC7                A  3320    	SET	0,A
011194 32 9F 46 01         A  3321    	LD	(_statusRegister),A
011198 18 0A               A  3322    	JR	L_208
01119A                     A  3323    L_207:
01119A 3A 9F 46 01         A  3324    	LD	A,(_statusRegister)
01119E CB87                A  3325    	RES	0,A
0111A0 32 9F 46 01         A  3326    	LD	(_statusRegister),A
0111A4                     A  3327    L_208:
0111A4 3A 6F 46 01         A  3328    	LD	A,(_tmp)
0111A8 32 55 46 01         A  3329    	LD	(_accumulator),A
0111AC C3 32 12 01         A  3330    	JR	L_214
0111B0                     A  3331    L_213:
0111B0 DD07FA              A  3332    	LD	BC,(IX+-6)
0111B3 DD27FD              A  3333    	LD	HL,(IX+-3)
0111B6 09                  A  3334    	ADD	HL,BC
0111B7 E5C1                A  3335    	LD	BC,HL
0111B9 DD7EF9              A  3336    	LD	A,(IX+-7)
0111BC 17ED62              A  3337    	SEXT	HL
0111BF DD6EF9              A  3338    	LD	L,(IX+-7)
0111C2 09                  A  3339    	ADD	HL,BC
0111C3 22 6F 46 01         A  3340    	LD	(_tmp),HL
0111C7 3A 6F 46 01         A  3341    	LD	A,(_tmp)
0111CB 32 55 46 01         A  3342    	LD	(_accumulator),A
0111CF DD27FD              A  3343    	LD	HL,(IX+-3)
0111D2 DD07FA              A  3344    	LD	BC,(IX+-6)
0111D5 CD 7B 36 01         A  3345    	CALL	__ixor
0111D9 CD B0 35 01         A  3346    	CALL	__inot
0111DD E5D1                A  3347    	LD	DE,HL
0111DF B7ED62              A  3348    	UEXT	HL
0111E2 6F                  A  3349    	LD	L,A
0111E3 E5C1                A  3350    	LD	BC,HL
0111E5 DD27FD              A  3351    	LD	HL,(IX+-3)
0111E8 CD 7B 36 01         A  3352    	CALL	__ixor
0111EC E5C1                A  3353    	LD	BC,HL
0111EE D5E1                A  3354    	LD	HL,DE
0111F0 CD D1 36 01         A  3355    	CALL	__iand
0111F4 7D                  A  3356    	LD	A,L
0111F5 E680                A  3357    	AND	A,128
0111F7 B7ED62              A  3358    	UEXT	HL
0111FA 6F                  A  3359    	LD	L,A
0111FB B7                  A  3360    	OR	A,A
0111FC 01000000            A  3361    	LD	BC,0
011200 ED42                A  3362    	SBC	HL,BC
011202 28 0C               A  3363    	JR	Z,L_210
011204 3A 9F 46 01         A  3364    	LD	A,(_statusRegister)
011208 CBF7                A  3365    	SET	6,A
01120A 32 9F 46 01         A  3366    	LD	(_statusRegister),A
01120E 18 0A               A  3367    	JR	L_211
011210                     A  3368    L_210:
011210 3A 9F 46 01         A  3369    	LD	A,(_statusRegister)
011214 CBB7                A  3370    	RES	6,A
Zilog eZ80 Macro Assembler Version 4.1 (10060805) RELISTED19-Sep-11     11:50:04     page:  66


PC     Object              I  Line    Source C:\DOCUME~1\_Enzo_\Desktop\Zapp\Debug\main.src
011216 32 9F 46 01         A  3371    	LD	(_statusRegister),A
01121A                     A  3372    L_211:
01121A ED4B 6F 46 01       A  3373    	LD	BC,(_tmp)
01121F C5                  A  3374    	PUSH	BC
011220 CD 9B 0F 01         A  3375    	CALL	_setFlagCarry
011224 C1                  A  3376    	POP	BC
011225 3A 55 46 01         A  3377    	LD	A,(_accumulator)
011229 4F                  A  3378    	LD	C,A
01122A 0600                A  3379    	LD	B,0
01122C C5                  A  3380    	PUSH	BC
01122D CD CF 0E 01         A  3381    	CALL	_setStatusRegisterNZ
011231 C1                  A  3382    	POP	BC
011232                     A  3383    L_214:
011232 DDF9                A  3384    	LD	SP,IX
011234 DDE1                A  3385    	POP	IX
011236 C9                  A  3386    	RET	
                           A  3387    
                           A  3388    
                           A  3389    ;**************************** _ADC ************
                           A  3390    ;Name                         Addr/Register   S
                           A  3391    ;_tmp                                STATIC    
                           A  3392    ;_statusRegister                     STATIC    
                           A  3393    ;_op                                 STATIC    
                           A  3394    ;_accumulator                        STATIC    
                           A  3395    ;temp201                              IX-16    
                           A  3396    ;temp192                              IX-13    
                           A  3397    ;temp185                              IX-10    
                           A  3398    ;srtmp                                 IX-7    
                           A  3399    ;Op2                                   IX-6    
                           A  3400    ;Op1                                   IX-3    
                           A  3401    
                           A  3402    
                           A  3403    ; Stack Frame Size: 22 (bytes)
                           A  3404    ;       Spill Code: 0 (instruction)
                           A  3405    
                           A  3406    
011237                     A  3407    _setFlagBorrow:
011237 CD 11 36 01         A  3408    	CALL	__frameset0
01123B 01000100            A  3409    	LD	BC,256
01123F DD2706              A  3410    	LD	HL,(IX+6)
011242 CD D1 36 01         A  3411    	CALL	__iand
011246 01000000            A  3412    	LD	BC,0
01124A B7                  A  3413    	OR	A,A
01124B ED42                A  3414    	SBC	HL,BC
01124D 20 0C               A  3415    	JR	NZ,L_216
01124F 3A 9F 46 01         A  3416    	LD	A,(_statusRegister)
011253 CBC7                A  3417    	SET	0,A
011255 32 9F 46 01         A  3418    	LD	(_statusRegister),A
011259 18 0A               A  3419    	JR	L_217
01125B                     A  3420    L_216:
01125B 3A 9F 46 01         A  3421    	LD	A,(_statusRegister)
01125F CB87                A  3422    	RES	0,A
Zilog eZ80 Macro Assembler Version 4.1 (10060805) RELISTED19-Sep-11     11:50:04     page:  67


PC     Object              I  Line    Source C:\DOCUME~1\_Enzo_\Desktop\Zapp\Debug\main.src
011261 32 9F 46 01         A  3423    	LD	(_statusRegister),A
011265                     A  3424    L_217:
011265 DDF9                A  3425    	LD	SP,IX
011267 DDE1                A  3426    	POP	IX
011269 C9                  A  3427    	RET	
                           A  3428    
                           A  3429    
                           A  3430    ;**************************** _setFlagBorrow **
                           A  3431    ;Name                         Addr/Register   S
                           A  3432    ;_statusRegister                     STATIC    
                           A  3433    ;val                                   IX+6    
                           A  3434    
                           A  3435    
                           A  3436    ; Stack Frame Size: 9 (bytes)
                           A  3437    ;       Spill Code: 0 (instruction)
                           A  3438    
                           A  3439    
01126A                     A  3440    _SBC:
01126A 21F0FFFF            A  3441    	LD	HL,-16
01126E CD 3A 36 01         A  3442    	CALL	__frameset
011272 3A 55 46 01         A  3443    	LD	A,(_accumulator)
011276 B7ED62              A  3444    	UEXT	HL
011279 6F                  A  3445    	LD	L,A
01127A DD2FFD              A  3446    	LD	(IX+-3),HL
01127D ED4B 5D 46 01       A  3447    	LD	BC,(_op)
011282 C5                  A  3448    	PUSH	BC
011283 CD 07 08 01         A  3449    	CALL	_Mem_Read
011287 C1                  A  3450    	POP	BC
011288 B7ED62              A  3451    	UEXT	HL
01128B 6F                  A  3452    	LD	L,A
01128C DD2FFA              A  3453    	LD	(IX+-6),HL
01128F 3A 9F 46 01         A  3454    	LD	A,(_statusRegister)
011293 E601                A  3455    	AND	A,1
011295 28 09               A  3456    	JR	Z,L_220
011297 01000000            A  3457    	LD	BC,0
01129B DD0FF6              A  3458    	LD	(IX+-10),BC
01129E 18 07               A  3459    	JR	L_221
0112A0                     A  3460    L_220:
0112A0 01010000            A  3461    	LD	BC,1
0112A4 DD0FF6              A  3462    	LD	(IX+-10),BC
0112A7                     A  3463    L_221:
0112A7 DD7EF6              A  3464    	LD	A,(IX+-10)
0112AA DD77F9              A  3465    	LD	(IX+-7),A
0112AD 3A 9F 46 01         A  3466    	LD	A,(_statusRegister)
0112B1 E608                A  3467    	AND	A,8
0112B3 CA A6 13 01         A  3468    	JR	Z,L_234
0112B7 DD7EFD              A  3469    	LD	A,(IX+-3)
0112BA E60F                A  3470    	AND	A,15
0112BC B7ED62              A  3471    	UEXT	HL
0112BF 6F                  A  3472    	LD	L,A
0112C0 DD7EFA              A  3473    	LD	A,(IX+-6)
0112C3 E60F                A  3474    	AND	A,15
Zilog eZ80 Macro Assembler Version 4.1 (10060805) RELISTED19-Sep-11     11:50:04     page:  68


PC     Object              I  Line    Source C:\DOCUME~1\_Enzo_\Desktop\Zapp\Debug\main.src
0112C5 E5D1                A  3475    	LD	DE,HL
0112C7 B7ED62              A  3476    	UEXT	HL
0112CA 6F                  A  3477    	LD	L,A
0112CB E5C1                A  3478    	LD	BC,HL
0112CD DD7EF9              A  3479    	LD	A,(IX+-7)
0112D0 17ED62              A  3480    	SEXT	HL
0112D3 DD6EF9              A  3481    	LD	L,(IX+-7)
0112D6 09                  A  3482    	ADD	HL,BC
0112D7 E5C1                A  3483    	LD	BC,HL
0112D9 D5E1                A  3484    	LD	HL,DE
0112DB B7                  A  3485    	OR	A,A
0112DC ED42                A  3486    	SBC	HL,BC
0112DE 22 6F 46 01         A  3487    	LD	(_tmp),HL
0112E2 01000000            A  3488    	LD	BC,0
0112E6 3A 6F 46 01         A  3489    	LD	A,(_tmp)
0112EA E610                A  3490    	AND	A,16
0112EC B7ED62              A  3491    	UEXT	HL
0112EF 6F                  A  3492    	LD	L,A
0112F0 B7                  A  3493    	OR	A,A
0112F1 ED42                A  3494    	SBC	HL,BC
0112F3 20 0A               A  3495    	JR	NZ,L_224
0112F5 ED4B 6F 46 01       A  3496    	LD	BC,(_tmp)
0112FA DD0FF3              A  3497    	LD	(IX+-13),BC
0112FD 18 0B               A  3498    	JR	L_225
0112FF                     A  3499    L_224:
0112FF FD2A 6F 46 01       A  3500    	LD	IY,(_tmp)
011304 ED33FA              A  3501    	LEA	IY,IY+-6
011307 DD3EF3              A  3502    	LD	(IX+-13),IY
01130A                     A  3503    L_225:
01130A DD7EF3              A  3504    	LD	A,(IX+-13)
01130D 32 55 46 01         A  3505    	LD	(_accumulator),A
011311 DD7EFD              A  3506    	LD	A,(IX+-3)
011314 E6F0                A  3507    	AND	A,240
011316 B7ED62              A  3508    	UEXT	HL
011319 6F                  A  3509    	LD	L,A
01131A E5D1                A  3510    	LD	DE,HL
01131C DD7EFA              A  3511    	LD	A,(IX+-6)
01131F E6F0                A  3512    	AND	A,240
011321 B7ED62              A  3513    	UEXT	HL
011324 6F                  A  3514    	LD	L,A
011325 E5C1                A  3515    	LD	BC,HL
011327 3A 55 46 01         A  3516    	LD	A,(_accumulator)
01132B E610                A  3517    	AND	A,16
01132D B7ED62              A  3518    	UEXT	HL
011330 6F                  A  3519    	LD	L,A
011331 09                  A  3520    	ADD	HL,BC
011332 E5C1                A  3521    	LD	BC,HL
011334 D5E1                A  3522    	LD	HL,DE
011336 B7                  A  3523    	OR	A,A
011337 ED42                A  3524    	SBC	HL,BC
011339 B7                  A  3525    	OR	A,A
01133A 22 6F 46 01         A  3526    	LD	(_tmp),HL
Zilog eZ80 Macro Assembler Version 4.1 (10060805) RELISTED19-Sep-11     11:50:04     page:  69


PC     Object              I  Line    Source C:\DOCUME~1\_Enzo_\Desktop\Zapp\Debug\main.src
01133E 01000100            A  3527    	LD	BC,256
011342 CD D1 36 01         A  3528    	CALL	__iand
011346 01000000            A  3529    	LD	BC,0
01134A ED42                A  3530    	SBC	HL,BC
01134C 20 0A               A  3531    	JR	NZ,L_228
01134E ED4B 6F 46 01       A  3532    	LD	BC,(_tmp)
011353 DD0FF0              A  3533    	LD	(IX+-16),BC
011356 18 0B               A  3534    	JR	L_229
011358                     A  3535    L_228:
011358 FD2A 6F 46 01       A  3536    	LD	IY,(_tmp)
01135D ED33A0              A  3537    	LEA	IY,IY+-96
011360 DD3EF0              A  3538    	LD	(IX+-16),IY
011363                     A  3539    L_229:
011363 3A 55 46 01         A  3540    	LD	A,(_accumulator)
011367 E60F                A  3541    	AND	A,15
011369 DD46F0              A  3542    	LD	B,(IX+-16)
01136C B0                  A  3543    	OR	A,B
01136D 32 55 46 01         A  3544    	LD	(_accumulator),A
011371 DD7EF9              A  3545    	LD	A,(IX+-7)
011374 17ED62              A  3546    	SEXT	HL
011377 DD6EF9              A  3547    	LD	L,(IX+-7)
01137A DD07FA              A  3548    	LD	BC,(IX+-6)
01137D 09                  A  3549    	ADD	HL,BC
01137E E5C1                A  3550    	LD	BC,HL
011380 DD27FD              A  3551    	LD	HL,(IX+-3)
011383 B7                  A  3552    	OR	A,A
011384 ED42                A  3553    	SBC	HL,BC
011386 22 6F 46 01         A  3554    	LD	(_tmp),HL
01138A ED4B 6F 46 01       A  3555    	LD	BC,(_tmp)
01138F C5                  A  3556    	PUSH	BC
011390 CD 37 12 01         A  3557    	CALL	_setFlagBorrow
011394 C1                  A  3558    	POP	BC
011395 3A 6F 46 01         A  3559    	LD	A,(_tmp)
011399 4F                  A  3560    	LD	C,A
01139A 0600                A  3561    	LD	B,0
01139C C5                  A  3562    	PUSH	BC
01139D CD CF 0E 01         A  3563    	CALL	_setStatusRegisterNZ
0113A1 C1                  A  3564    	POP	BC
0113A2 C3 26 14 01         A  3565    	JR	L_235
0113A6                     A  3566    L_234:
0113A6 DD7EF9              A  3567    	LD	A,(IX+-7)
0113A9 17ED62              A  3568    	SEXT	HL
0113AC DD6EF9              A  3569    	LD	L,(IX+-7)
0113AF DD07FA              A  3570    	LD	BC,(IX+-6)
0113B2 09                  A  3571    	ADD	HL,BC
0113B3 E5C1                A  3572    	LD	BC,HL
0113B5 DD27FD              A  3573    	LD	HL,(IX+-3)
0113B8 B7                  A  3574    	OR	A,A
0113B9 ED42                A  3575    	SBC	HL,BC
0113BB 22 6F 46 01         A  3576    	LD	(_tmp),HL
0113BF 3A 6F 46 01         A  3577    	LD	A,(_tmp)
0113C3 32 55 46 01         A  3578    	LD	(_accumulator),A
Zilog eZ80 Macro Assembler Version 4.1 (10060805) RELISTED19-Sep-11     11:50:04     page:  70


PC     Object              I  Line    Source C:\DOCUME~1\_Enzo_\Desktop\Zapp\Debug\main.src
0113C7 DD27FD              A  3579    	LD	HL,(IX+-3)
0113CA DD07FA              A  3580    	LD	BC,(IX+-6)
0113CD CD 7B 36 01         A  3581    	CALL	__ixor
0113D1 E5D1                A  3582    	LD	DE,HL
0113D3 B7ED62              A  3583    	UEXT	HL
0113D6 6F                  A  3584    	LD	L,A
0113D7 E5C1                A  3585    	LD	BC,HL
0113D9 DD27FD              A  3586    	LD	HL,(IX+-3)
0113DC CD 7B 36 01         A  3587    	CALL	__ixor
0113E0 E5C1                A  3588    	LD	BC,HL
0113E2 D5E1                A  3589    	LD	HL,DE
0113E4 CD D1 36 01         A  3590    	CALL	__iand
0113E8 7D                  A  3591    	LD	A,L
0113E9 E680                A  3592    	AND	A,128
0113EB B7ED62              A  3593    	UEXT	HL
0113EE 6F                  A  3594    	LD	L,A
0113EF B7                  A  3595    	OR	A,A
0113F0 01000000            A  3596    	LD	BC,0
0113F4 ED42                A  3597    	SBC	HL,BC
0113F6 28 0C               A  3598    	JR	Z,L_231
0113F8 3A 9F 46 01         A  3599    	LD	A,(_statusRegister)
0113FC CBF7                A  3600    	SET	6,A
0113FE 32 9F 46 01         A  3601    	LD	(_statusRegister),A
011402 18 0A               A  3602    	JR	L_232
011404                     A  3603    L_231:
011404 3A 9F 46 01         A  3604    	LD	A,(_statusRegister)
011408 CBB7                A  3605    	RES	6,A
01140A 32 9F 46 01         A  3606    	LD	(_statusRegister),A
01140E                     A  3607    L_232:
01140E ED4B 6F 46 01       A  3608    	LD	BC,(_tmp)
011413 C5                  A  3609    	PUSH	BC
011414 CD 37 12 01         A  3610    	CALL	_setFlagBorrow
011418 C1                  A  3611    	POP	BC
011419 3A 55 46 01         A  3612    	LD	A,(_accumulator)
01141D 4F                  A  3613    	LD	C,A
01141E 0600                A  3614    	LD	B,0
011420 C5                  A  3615    	PUSH	BC
011421 CD CF 0E 01         A  3616    	CALL	_setStatusRegisterNZ
011425 C1                  A  3617    	POP	BC
011426                     A  3618    L_235:
011426 DDF9                A  3619    	LD	SP,IX
011428 DDE1                A  3620    	POP	IX
01142A C9                  A  3621    	RET	
                           A  3622    
                           A  3623    
                           A  3624    ;**************************** _SBC ************
                           A  3625    ;Name                         Addr/Register   S
                           A  3626    ;_tmp                                STATIC    
                           A  3627    ;_statusRegister                     STATIC    
                           A  3628    ;_op                                 STATIC    
                           A  3629    ;_accumulator                        STATIC    
                           A  3630    ;temp226                              IX-16    
Zilog eZ80 Macro Assembler Version 4.1 (10060805) RELISTED19-Sep-11     11:50:04     page:  71


PC     Object              I  Line    Source C:\DOCUME~1\_Enzo_\Desktop\Zapp\Debug\main.src
                           A  3631    ;temp222                              IX-13    
                           A  3632    ;temp218                              IX-10    
                           A  3633    ;srtmp                                 IX-7    
                           A  3634    ;Op2                                   IX-6    
                           A  3635    ;Op1                                   IX-3    
                           A  3636    
                           A  3637    
                           A  3638    ; Stack Frame Size: 22 (bytes)
                           A  3639    ;       Spill Code: 0 (instruction)
                           A  3640    
                           A  3641    
01142B                     A  3642    _CMP:
01142B 21FDFFFF            A  3643    	LD	HL,-3
01142F CD 3A 36 01         A  3644    	CALL	__frameset
011433 ED4B 5D 46 01       A  3645    	LD	BC,(_op)
011438 C5                  A  3646    	PUSH	BC
011439 3A 55 46 01         A  3647    	LD	A,(_accumulator)
01143D B7ED62              A  3648    	UEXT	HL
011440 6F                  A  3649    	LD	L,A
011441 E5C1                A  3650    	LD	BC,HL
011443 DD0FFD              A  3651    	LD	(IX+-3),BC
011446 CD 07 08 01         A  3652    	CALL	_Mem_Read
01144A DD07FD              A  3653    	LD	BC,(IX+-3)
01144D D1                  A  3654    	POP	DE
01144E B7ED62              A  3655    	UEXT	HL
011451 6F                  A  3656    	LD	L,A
011452 E5D1                A  3657    	LD	DE,HL
011454 C5E1                A  3658    	LD	HL,BC
011456 B7                  A  3659    	OR	A,A
011457 ED52                A  3660    	SBC	HL,DE
011459 22 6F 46 01         A  3661    	LD	(_tmp),HL
01145D ED4B 6F 46 01       A  3662    	LD	BC,(_tmp)
011462 C5                  A  3663    	PUSH	BC
011463 CD 37 12 01         A  3664    	CALL	_setFlagBorrow
011467 C1                  A  3665    	POP	BC
011468 3A 6F 46 01         A  3666    	LD	A,(_tmp)
01146C 4F                  A  3667    	LD	C,A
01146D 0600                A  3668    	LD	B,0
01146F C5                  A  3669    	PUSH	BC
011470 CD CF 0E 01         A  3670    	CALL	_setStatusRegisterNZ
011474 C1                  A  3671    	POP	BC
011475 DDF9                A  3672    	LD	SP,IX
011477 DDE1                A  3673    	POP	IX
011479 C9                  A  3674    	RET	
                           A  3675    
                           A  3676    
                           A  3677    ;**************************** _CMP ************
                           A  3678    ;Name                         Addr/Register   S
                           A  3679    ;_tmp                                STATIC    
                           A  3680    ;_op                                 STATIC    
                           A  3681    ;_accumulator                        STATIC    
                           A  3682    
Zilog eZ80 Macro Assembler Version 4.1 (10060805) RELISTED19-Sep-11     11:50:04     page:  72


PC     Object              I  Line    Source C:\DOCUME~1\_Enzo_\Desktop\Zapp\Debug\main.src
                           A  3683    
                           A  3684    ; Stack Frame Size: 9 (bytes)
                           A  3685    ;       Spill Code: 0 (instruction)
                           A  3686    
                           A  3687    
01147A                     A  3688    _CPX:
01147A 21FDFFFF            A  3689    	LD	HL,-3
01147E CD 3A 36 01         A  3690    	CALL	__frameset
011482 ED4B 5D 46 01       A  3691    	LD	BC,(_op)
011487 C5                  A  3692    	PUSH	BC
011488 3A 56 46 01         A  3693    	LD	A,(_xRegister)
01148C B7ED62              A  3694    	UEXT	HL
01148F 6F                  A  3695    	LD	L,A
011490 E5C1                A  3696    	LD	BC,HL
011492 DD0FFD              A  3697    	LD	(IX+-3),BC
011495 CD 07 08 01         A  3698    	CALL	_Mem_Read
011499 DD07FD              A  3699    	LD	BC,(IX+-3)
01149C D1                  A  3700    	POP	DE
01149D B7ED62              A  3701    	UEXT	HL
0114A0 6F                  A  3702    	LD	L,A
0114A1 E5D1                A  3703    	LD	DE,HL
0114A3 C5E1                A  3704    	LD	HL,BC
0114A5 B7                  A  3705    	OR	A,A
0114A6 ED52                A  3706    	SBC	HL,DE
0114A8 22 6F 46 01         A  3707    	LD	(_tmp),HL
0114AC ED4B 6F 46 01       A  3708    	LD	BC,(_tmp)
0114B1 C5                  A  3709    	PUSH	BC
0114B2 CD 37 12 01         A  3710    	CALL	_setFlagBorrow
0114B6 C1                  A  3711    	POP	BC
0114B7 3A 6F 46 01         A  3712    	LD	A,(_tmp)
0114BB 4F                  A  3713    	LD	C,A
0114BC 0600                A  3714    	LD	B,0
0114BE C5                  A  3715    	PUSH	BC
0114BF CD CF 0E 01         A  3716    	CALL	_setStatusRegisterNZ
0114C3 C1                  A  3717    	POP	BC
0114C4 DDF9                A  3718    	LD	SP,IX
0114C6 DDE1                A  3719    	POP	IX
0114C8 C9                  A  3720    	RET	
                           A  3721    
                           A  3722    
                           A  3723    ;**************************** _CPX ************
                           A  3724    ;Name                         Addr/Register   S
                           A  3725    ;_tmp                                STATIC    
                           A  3726    ;_op                                 STATIC    
                           A  3727    ;_xRegister                          STATIC    
                           A  3728    
                           A  3729    
                           A  3730    ; Stack Frame Size: 9 (bytes)
                           A  3731    ;       Spill Code: 0 (instruction)
                           A  3732    
                           A  3733    
0114C9                     A  3734    _CPY:
Zilog eZ80 Macro Assembler Version 4.1 (10060805) RELISTED19-Sep-11     11:50:04     page:  73


PC     Object              I  Line    Source C:\DOCUME~1\_Enzo_\Desktop\Zapp\Debug\main.src
0114C9 21FDFFFF            A  3735    	LD	HL,-3
0114CD CD 3A 36 01         A  3736    	CALL	__frameset
0114D1 ED4B 5D 46 01       A  3737    	LD	BC,(_op)
0114D6 C5                  A  3738    	PUSH	BC
0114D7 3A 57 46 01         A  3739    	LD	A,(_yRegister)
0114DB B7ED62              A  3740    	UEXT	HL
0114DE 6F                  A  3741    	LD	L,A
0114DF E5C1                A  3742    	LD	BC,HL
0114E1 DD0FFD              A  3743    	LD	(IX+-3),BC
0114E4 CD 07 08 01         A  3744    	CALL	_Mem_Read
0114E8 DD07FD              A  3745    	LD	BC,(IX+-3)
0114EB D1                  A  3746    	POP	DE
0114EC B7ED62              A  3747    	UEXT	HL
0114EF 6F                  A  3748    	LD	L,A
0114F0 E5D1                A  3749    	LD	DE,HL
0114F2 C5E1                A  3750    	LD	HL,BC
0114F4 B7                  A  3751    	OR	A,A
0114F5 ED52                A  3752    	SBC	HL,DE
0114F7 22 6F 46 01         A  3753    	LD	(_tmp),HL
0114FB ED4B 6F 46 01       A  3754    	LD	BC,(_tmp)
011500 C5                  A  3755    	PUSH	BC
011501 CD 37 12 01         A  3756    	CALL	_setFlagBorrow
011505 C1                  A  3757    	POP	BC
011506 3A 6F 46 01         A  3758    	LD	A,(_tmp)
01150A 4F                  A  3759    	LD	C,A
01150B 0600                A  3760    	LD	B,0
01150D C5                  A  3761    	PUSH	BC
01150E CD CF 0E 01         A  3762    	CALL	_setStatusRegisterNZ
011512 C1                  A  3763    	POP	BC
011513 DDF9                A  3764    	LD	SP,IX
011515 DDE1                A  3765    	POP	IX
011517 C9                  A  3766    	RET	
                           A  3767    
                           A  3768    
                           A  3769    ;**************************** _CPY ************
                           A  3770    ;Name                         Addr/Register   S
                           A  3771    ;_tmp                                STATIC    
                           A  3772    ;_op                                 STATIC    
                           A  3773    ;_yRegister                          STATIC    
                           A  3774    
                           A  3775    
                           A  3776    ; Stack Frame Size: 9 (bytes)
                           A  3777    ;       Spill Code: 0 (instruction)
                           A  3778    
                           A  3779    
011518                     A  3780    _AND:
011518 ED4B 5D 46 01       A  3781    	LD	BC,(_op)
01151D C5                  A  3782    	PUSH	BC
01151E CD 07 08 01         A  3783    	CALL	_Mem_Read
011522 C1                  A  3784    	POP	BC
011523 ED4B 55 46 01       A  3785    	LD	BC,(_accumulator)
011528 A1                  A  3786    	AND	A,C
Zilog eZ80 Macro Assembler Version 4.1 (10060805) RELISTED19-Sep-11     11:50:04     page:  74


PC     Object              I  Line    Source C:\DOCUME~1\_Enzo_\Desktop\Zapp\Debug\main.src
011529 4F                  A  3787    	LD	C,A
01152A 0600                A  3788    	LD	B,0
01152C C5                  A  3789    	PUSH	BC
01152D 32 55 46 01         A  3790    	LD	(_accumulator),A
011531 CD CF 0E 01         A  3791    	CALL	_setStatusRegisterNZ
011535 C1                  A  3792    	POP	BC
011536 C9                  A  3793    	RET	
                           A  3794    
                           A  3795    
                           A  3796    ;**************************** _AND ************
                           A  3797    ;Name                         Addr/Register   S
                           A  3798    ;_accumulator                        STATIC    
                           A  3799    ;_op                                 STATIC    
                           A  3800    
                           A  3801    
                           A  3802    ; Stack Frame Size: 6 (bytes)
                           A  3803    ;       Spill Code: 0 (instruction)
                           A  3804    
                           A  3805    
011537                     A  3806    _ORA:
011537 ED4B 5D 46 01       A  3807    	LD	BC,(_op)
01153C C5                  A  3808    	PUSH	BC
01153D CD 07 08 01         A  3809    	CALL	_Mem_Read
011541 C1                  A  3810    	POP	BC
011542 ED4B 55 46 01       A  3811    	LD	BC,(_accumulator)
011547 B1                  A  3812    	OR	A,C
011548 4F                  A  3813    	LD	C,A
011549 0600                A  3814    	LD	B,0
01154B C5                  A  3815    	PUSH	BC
01154C 32 55 46 01         A  3816    	LD	(_accumulator),A
011550 CD CF 0E 01         A  3817    	CALL	_setStatusRegisterNZ
011554 C1                  A  3818    	POP	BC
011555 C9                  A  3819    	RET	
                           A  3820    
                           A  3821    
                           A  3822    ;**************************** _ORA ************
                           A  3823    ;Name                         Addr/Register   S
                           A  3824    ;_accumulator                        STATIC    
                           A  3825    ;_op                                 STATIC    
                           A  3826    
                           A  3827    
                           A  3828    ; Stack Frame Size: 6 (bytes)
                           A  3829    ;       Spill Code: 0 (instruction)
                           A  3830    
                           A  3831    
011556                     A  3832    _EOR:
011556 ED4B 5D 46 01       A  3833    	LD	BC,(_op)
01155B C5                  A  3834    	PUSH	BC
01155C CD 07 08 01         A  3835    	CALL	_Mem_Read
011560 C1                  A  3836    	POP	BC
011561 ED4B 55 46 01       A  3837    	LD	BC,(_accumulator)
011566 A9                  A  3838    	XOR	A,C
Zilog eZ80 Macro Assembler Version 4.1 (10060805) RELISTED19-Sep-11     11:50:04     page:  75


PC     Object              I  Line    Source C:\DOCUME~1\_Enzo_\Desktop\Zapp\Debug\main.src
011567 4F                  A  3839    	LD	C,A
011568 0600                A  3840    	LD	B,0
01156A C5                  A  3841    	PUSH	BC
01156B 32 55 46 01         A  3842    	LD	(_accumulator),A
01156F CD CF 0E 01         A  3843    	CALL	_setStatusRegisterNZ
011573 C1                  A  3844    	POP	BC
011574 C9                  A  3845    	RET	
                           A  3846    
                           A  3847    
                           A  3848    ;**************************** _EOR ************
                           A  3849    ;Name                         Addr/Register   S
                           A  3850    ;_accumulator                        STATIC    
                           A  3851    ;_op                                 STATIC    
                           A  3852    
                           A  3853    
                           A  3854    ; Stack Frame Size: 6 (bytes)
                           A  3855    ;       Spill Code: 0 (instruction)
                           A  3856    
                           A  3857    
011575                     A  3858    _ASL:
011575 ED4B 5D 46 01       A  3859    	LD	BC,(_op)
01157A C5                  A  3860    	PUSH	BC
01157B CD 07 08 01         A  3861    	CALL	_Mem_Read
01157F C1                  A  3862    	POP	BC
011580 32 5C 46 01         A  3863    	LD	(_btmp),A
011584 E680                A  3864    	AND	A,128
011586 28 0C               A  3865    	JR	Z,L_243
011588 3A 9F 46 01         A  3866    	LD	A,(_statusRegister)
01158C CBC7                A  3867    	SET	0,A
01158E 32 9F 46 01         A  3868    	LD	(_statusRegister),A
011592 18 0A               A  3869    	JR	L_244
011594                     A  3870    L_243:
011594 3A 9F 46 01         A  3871    	LD	A,(_statusRegister)
011598 CB87                A  3872    	RES	0,A
01159A 32 9F 46 01         A  3873    	LD	(_statusRegister),A
01159E                     A  3874    L_244:
01159E 3A 5C 46 01         A  3875    	LD	A,(_btmp)
0115A2 87                  A  3876    	ADD	A,A
0115A3 4F                  A  3877    	LD	C,A
0115A4 0600                A  3878    	LD	B,0
0115A6 C5                  A  3879    	PUSH	BC
0115A7 32 5C 46 01         A  3880    	LD	(_btmp),A
0115AB CD CF 0E 01         A  3881    	CALL	_setStatusRegisterNZ
0115AF C1                  A  3882    	POP	BC
0115B0 3A 5C 46 01         A  3883    	LD	A,(_btmp)
0115B4 4F                  A  3884    	LD	C,A
0115B5 0600                A  3885    	LD	B,0
0115B7 C5                  A  3886    	PUSH	BC
0115B8 ED4B 5D 46 01       A  3887    	LD	BC,(_op)
0115BD C5                  A  3888    	PUSH	BC
0115BE CD 6A 08 01         A  3889    	CALL	_Mem_Write
0115C2 C1                  A  3890    	POP	BC
Zilog eZ80 Macro Assembler Version 4.1 (10060805) RELISTED19-Sep-11     11:50:04     page:  76


PC     Object              I  Line    Source C:\DOCUME~1\_Enzo_\Desktop\Zapp\Debug\main.src
0115C3 C1                  A  3891    	POP	BC
0115C4 C9                  A  3892    	RET	
                           A  3893    
                           A  3894    
                           A  3895    ;**************************** _ASL ************
                           A  3896    ;Name                         Addr/Register   S
                           A  3897    ;_statusRegister                     STATIC    
                           A  3898    ;_btmp                               STATIC    
                           A  3899    ;_op                                 STATIC    
                           A  3900    
                           A  3901    
                           A  3902    ; Stack Frame Size: 6 (bytes)
                           A  3903    ;       Spill Code: 0 (instruction)
                           A  3904    
                           A  3905    
0115C5                     A  3906    _ASL_A:
0115C5 3A 55 46 01         A  3907    	LD	A,(_accumulator)
0115C9 B7ED62              A  3908    	UEXT	HL
0115CC 6F                  A  3909    	LD	L,A
0115CD 29                  A  3910    	ADD	HL,HL
0115CE 22 6F 46 01         A  3911    	LD	(_tmp),HL
0115D2 3A 6F 46 01         A  3912    	LD	A,(_tmp)
0115D6 32 55 46 01         A  3913    	LD	(_accumulator),A
0115DA ED4B 6F 46 01       A  3914    	LD	BC,(_tmp)
0115DF C5                  A  3915    	PUSH	BC
0115E0 CD 9B 0F 01         A  3916    	CALL	_setFlagCarry
0115E4 C1                  A  3917    	POP	BC
0115E5 3A 55 46 01         A  3918    	LD	A,(_accumulator)
0115E9 4F                  A  3919    	LD	C,A
0115EA 0600                A  3920    	LD	B,0
0115EC C5                  A  3921    	PUSH	BC
0115ED CD CF 0E 01         A  3922    	CALL	_setStatusRegisterNZ
0115F1 C1                  A  3923    	POP	BC
0115F2 C9                  A  3924    	RET	
                           A  3925    
                           A  3926    
                           A  3927    ;**************************** _ASL_A **********
                           A  3928    ;Name                         Addr/Register   S
                           A  3929    ;_tmp                                STATIC    
                           A  3930    ;_accumulator                        STATIC    
                           A  3931    
                           A  3932    
                           A  3933    ; Stack Frame Size: 6 (bytes)
                           A  3934    ;       Spill Code: 0 (instruction)
                           A  3935    
                           A  3936    
0115F3                     A  3937    _LSR:
0115F3 ED4B 5D 46 01       A  3938    	LD	BC,(_op)
0115F8 C5                  A  3939    	PUSH	BC
0115F9 CD 07 08 01         A  3940    	CALL	_Mem_Read
0115FD C1                  A  3941    	POP	BC
0115FE 32 5C 46 01         A  3942    	LD	(_btmp),A
Zilog eZ80 Macro Assembler Version 4.1 (10060805) RELISTED19-Sep-11     11:50:04     page:  77


PC     Object              I  Line    Source C:\DOCUME~1\_Enzo_\Desktop\Zapp\Debug\main.src
011602 E601                A  3943    	AND	A,1
011604 28 0C               A  3944    	JR	Z,L_248
011606 3A 9F 46 01         A  3945    	LD	A,(_statusRegister)
01160A CBC7                A  3946    	SET	0,A
01160C 32 9F 46 01         A  3947    	LD	(_statusRegister),A
011610 18 0A               A  3948    	JR	L_249
011612                     A  3949    L_248:
011612 3A 9F 46 01         A  3950    	LD	A,(_statusRegister)
011616 CB87                A  3951    	RES	0,A
011618 32 9F 46 01         A  3952    	LD	(_statusRegister),A
01161C                     A  3953    L_249:
01161C 3A 5C 46 01         A  3954    	LD	A,(_btmp)
011620 B7ED62              A  3955    	UEXT	HL
011623 6F                  A  3956    	LD	L,A
011624 3E01                A  3957    	LD	A,1
011626 CD 82 35 01         A  3958    	CALL	__ishrs_b
01162A 7D                  A  3959    	LD	A,L
01162B 4F                  A  3960    	LD	C,A
01162C 0600                A  3961    	LD	B,0
01162E C5                  A  3962    	PUSH	BC
01162F 32 5C 46 01         A  3963    	LD	(_btmp),A
011633 CD CF 0E 01         A  3964    	CALL	_setStatusRegisterNZ
011637 C1                  A  3965    	POP	BC
011638 3A 5C 46 01         A  3966    	LD	A,(_btmp)
01163C 4F                  A  3967    	LD	C,A
01163D 0600                A  3968    	LD	B,0
01163F C5                  A  3969    	PUSH	BC
011640 ED4B 5D 46 01       A  3970    	LD	BC,(_op)
011645 C5                  A  3971    	PUSH	BC
011646 CD 6A 08 01         A  3972    	CALL	_Mem_Write
01164A C1                  A  3973    	POP	BC
01164B C1                  A  3974    	POP	BC
01164C C9                  A  3975    	RET	
                           A  3976    
                           A  3977    
                           A  3978    ;**************************** _LSR ************
                           A  3979    ;Name                         Addr/Register   S
                           A  3980    ;_statusRegister                     STATIC    
                           A  3981    ;_btmp                               STATIC    
                           A  3982    ;_op                                 STATIC    
                           A  3983    
                           A  3984    
                           A  3985    ; Stack Frame Size: 6 (bytes)
                           A  3986    ;       Spill Code: 0 (instruction)
                           A  3987    
                           A  3988    
01164D                     A  3989    _LSR_A:
01164D 3A 55 46 01         A  3990    	LD	A,(_accumulator)
011651 E601                A  3991    	AND	A,1
011653 28 0C               A  3992    	JR	Z,L_252
011655 3A 9F 46 01         A  3993    	LD	A,(_statusRegister)
011659 CBC7                A  3994    	SET	0,A
Zilog eZ80 Macro Assembler Version 4.1 (10060805) RELISTED19-Sep-11     11:50:04     page:  78


PC     Object              I  Line    Source C:\DOCUME~1\_Enzo_\Desktop\Zapp\Debug\main.src
01165B 32 9F 46 01         A  3995    	LD	(_statusRegister),A
01165F 18 0A               A  3996    	JR	L_253
011661                     A  3997    L_252:
011661 3A 9F 46 01         A  3998    	LD	A,(_statusRegister)
011665 CB87                A  3999    	RES	0,A
011667 32 9F 46 01         A  4000    	LD	(_statusRegister),A
01166B                     A  4001    L_253:
01166B 3A 55 46 01         A  4002    	LD	A,(_accumulator)
01166F B7ED62              A  4003    	UEXT	HL
011672 6F                  A  4004    	LD	L,A
011673 3E01                A  4005    	LD	A,1
011675 CD 82 35 01         A  4006    	CALL	__ishrs_b
011679 7D                  A  4007    	LD	A,L
01167A 4F                  A  4008    	LD	C,A
01167B 0600                A  4009    	LD	B,0
01167D C5                  A  4010    	PUSH	BC
01167E 32 55 46 01         A  4011    	LD	(_accumulator),A
011682 CD CF 0E 01         A  4012    	CALL	_setStatusRegisterNZ
011686 C1                  A  4013    	POP	BC
011687 C9                  A  4014    	RET	
                           A  4015    
                           A  4016    
                           A  4017    ;**************************** _LSR_A **********
                           A  4018    ;Name                         Addr/Register   S
                           A  4019    ;_statusRegister                     STATIC    
                           A  4020    ;_accumulator                        STATIC    
                           A  4021    
                           A  4022    
                           A  4023    ; Stack Frame Size: 6 (bytes)
                           A  4024    ;       Spill Code: 0 (instruction)
                           A  4025    
                           A  4026    
011688                     A  4027    _ROL:
011688 21FAFFFF            A  4028    	LD	HL,-6
01168C CD 3A 36 01         A  4029    	CALL	__frameset
011690 ED4B 5D 46 01       A  4030    	LD	BC,(_op)
011695 C5                  A  4031    	PUSH	BC
011696 CD 07 08 01         A  4032    	CALL	_Mem_Read
01169A C1                  A  4033    	POP	BC
01169B 32 5C 46 01         A  4034    	LD	(_btmp),A
01169F E680                A  4035    	AND	A,128
0116A1 B7ED62              A  4036    	UEXT	HL
0116A4 6F                  A  4037    	LD	L,A
0116A5 DD2FFA              A  4038    	LD	(IX+-6),HL
0116A8 3A 9F 46 01         A  4039    	LD	A,(_statusRegister)
0116AC E601                A  4040    	AND	A,1
0116AE 28 09               A  4041    	JR	Z,L_257
0116B0 01010000            A  4042    	LD	BC,1
0116B4 DD0FFD              A  4043    	LD	(IX+-3),BC
0116B7 18 07               A  4044    	JR	L_258
0116B9                     A  4045    L_257:
0116B9 01000000            A  4046    	LD	BC,0
Zilog eZ80 Macro Assembler Version 4.1 (10060805) RELISTED19-Sep-11     11:50:04     page:  79


PC     Object              I  Line    Source C:\DOCUME~1\_Enzo_\Desktop\Zapp\Debug\main.src
0116BD DD0FFD              A  4047    	LD	(IX+-3),BC
0116C0                     A  4048    L_258:
0116C0 3A 5C 46 01         A  4049    	LD	A,(_btmp)
0116C4 87                  A  4050    	ADD	A,A
0116C5 DD46FD              A  4051    	LD	B,(IX+-3)
0116C8 B0                  A  4052    	OR	A,B
0116C9 32 5C 46 01         A  4053    	LD	(_btmp),A
0116CD DD27FA              A  4054    	LD	HL,(IX+-6)
0116D0 B7                  A  4055    	OR	A,A
0116D1 01000000            A  4056    	LD	BC,0
0116D5 ED42                A  4057    	SBC	HL,BC
0116D7 28 0C               A  4058    	JR	Z,L_260
0116D9 3A 9F 46 01         A  4059    	LD	A,(_statusRegister)
0116DD CBC7                A  4060    	SET	0,A
0116DF 32 9F 46 01         A  4061    	LD	(_statusRegister),A
0116E3 18 0A               A  4062    	JR	L_261
0116E5                     A  4063    L_260:
0116E5 3A 9F 46 01         A  4064    	LD	A,(_statusRegister)
0116E9 CB87                A  4065    	RES	0,A
0116EB 32 9F 46 01         A  4066    	LD	(_statusRegister),A
0116EF                     A  4067    L_261:
0116EF 3A 5C 46 01         A  4068    	LD	A,(_btmp)
0116F3 4F                  A  4069    	LD	C,A
0116F4 0600                A  4070    	LD	B,0
0116F6 C5                  A  4071    	PUSH	BC
0116F7 CD CF 0E 01         A  4072    	CALL	_setStatusRegisterNZ
0116FB C1                  A  4073    	POP	BC
0116FC 3A 5C 46 01         A  4074    	LD	A,(_btmp)
011700 4F                  A  4075    	LD	C,A
011701 0600                A  4076    	LD	B,0
011703 C5                  A  4077    	PUSH	BC
011704 ED4B 5D 46 01       A  4078    	LD	BC,(_op)
011709 C5                  A  4079    	PUSH	BC
01170A CD 6A 08 01         A  4080    	CALL	_Mem_Write
01170E C1                  A  4081    	POP	BC
01170F C1                  A  4082    	POP	BC
011710 DDF9                A  4083    	LD	SP,IX
011712 DDE1                A  4084    	POP	IX
011714 C9                  A  4085    	RET	
                           A  4086    
                           A  4087    
                           A  4088    ;**************************** _ROL ************
                           A  4089    ;Name                         Addr/Register   S
                           A  4090    ;_statusRegister                     STATIC    
                           A  4091    ;_btmp                               STATIC    
                           A  4092    ;_op                                 STATIC    
                           A  4093    ;newCarry                              IX-6    
                           A  4094    ;temp255                               IX-3    
                           A  4095    
                           A  4096    
                           A  4097    ; Stack Frame Size: 12 (bytes)
                           A  4098    ;       Spill Code: 0 (instruction)
Zilog eZ80 Macro Assembler Version 4.1 (10060805) RELISTED19-Sep-11     11:50:04     page:  80


PC     Object              I  Line    Source C:\DOCUME~1\_Enzo_\Desktop\Zapp\Debug\main.src
                           A  4099    
                           A  4100    
011715                     A  4101    _ROL_A:
011715 21FDFFFF            A  4102    	LD	HL,-3
011719 CD 3A 36 01         A  4103    	CALL	__frameset
01171D 3A 9F 46 01         A  4104    	LD	A,(_statusRegister)
011721 E601                A  4105    	AND	A,1
011723 28 09               A  4106    	JR	Z,L_265
011725 01010000            A  4107    	LD	BC,1
011729 DD0FFD              A  4108    	LD	(IX+-3),BC
01172C 18 07               A  4109    	JR	L_266
01172E                     A  4110    L_265:
01172E 01000000            A  4111    	LD	BC,0
011732 DD0FFD              A  4112    	LD	(IX+-3),BC
011735                     A  4113    L_266:
011735 3A 55 46 01         A  4114    	LD	A,(_accumulator)
011739 B7ED62              A  4115    	UEXT	HL
01173C 6F                  A  4116    	LD	L,A
01173D 29                  A  4117    	ADD	HL,HL
01173E DD07FD              A  4118    	LD	BC,(IX+-3)
011741 CD BA 35 01         A  4119    	CALL	__ior
011745 22 6F 46 01         A  4120    	LD	(_tmp),HL
011749 3A 6F 46 01         A  4121    	LD	A,(_tmp)
01174D 32 55 46 01         A  4122    	LD	(_accumulator),A
011751 ED4B 6F 46 01       A  4123    	LD	BC,(_tmp)
011756 C5                  A  4124    	PUSH	BC
011757 CD 9B 0F 01         A  4125    	CALL	_setFlagCarry
01175B C1                  A  4126    	POP	BC
01175C 3A 55 46 01         A  4127    	LD	A,(_accumulator)
011760 4F                  A  4128    	LD	C,A
011761 0600                A  4129    	LD	B,0
011763 C5                  A  4130    	PUSH	BC
011764 CD CF 0E 01         A  4131    	CALL	_setStatusRegisterNZ
011768 C1                  A  4132    	POP	BC
011769 DDF9                A  4133    	LD	SP,IX
01176B DDE1                A  4134    	POP	IX
01176D C9                  A  4135    	RET	
                           A  4136    
                           A  4137    
                           A  4138    ;**************************** _ROL_A **********
                           A  4139    ;Name                         Addr/Register   S
                           A  4140    ;_tmp                                STATIC    
                           A  4141    ;_accumulator                        STATIC    
                           A  4142    ;_statusRegister                     STATIC    
                           A  4143    ;temp263                               IX-3    
                           A  4144    
                           A  4145    
                           A  4146    ; Stack Frame Size: 9 (bytes)
                           A  4147    ;       Spill Code: 0 (instruction)
                           A  4148    
                           A  4149    
01176E                     A  4150    _ROR:
Zilog eZ80 Macro Assembler Version 4.1 (10060805) RELISTED19-Sep-11     11:50:04     page:  81


PC     Object              I  Line    Source C:\DOCUME~1\_Enzo_\Desktop\Zapp\Debug\main.src
01176E 21FAFFFF            A  4151    	LD	HL,-6
011772 CD 3A 36 01         A  4152    	CALL	__frameset
011776 ED4B 5D 46 01       A  4153    	LD	BC,(_op)
01177B C5                  A  4154    	PUSH	BC
01177C CD 07 08 01         A  4155    	CALL	_Mem_Read
011780 C1                  A  4156    	POP	BC
011781 32 5C 46 01         A  4157    	LD	(_btmp),A
011785 E601                A  4158    	AND	A,1
011787 B7ED62              A  4159    	UEXT	HL
01178A 6F                  A  4160    	LD	L,A
01178B DD2FFA              A  4161    	LD	(IX+-6),HL
01178E 3A 9F 46 01         A  4162    	LD	A,(_statusRegister)
011792 E601                A  4163    	AND	A,1
011794 28 09               A  4164    	JR	Z,L_270
011796 01800000            A  4165    	LD	BC,128
01179A DD0FFD              A  4166    	LD	(IX+-3),BC
01179D 18 07               A  4167    	JR	L_271
01179F                     A  4168    L_270:
01179F 01000000            A  4169    	LD	BC,0
0117A3 DD0FFD              A  4170    	LD	(IX+-3),BC
0117A6                     A  4171    L_271:
0117A6 3A 5C 46 01         A  4172    	LD	A,(_btmp)
0117AA B7ED62              A  4173    	UEXT	HL
0117AD 6F                  A  4174    	LD	L,A
0117AE 3E01                A  4175    	LD	A,1
0117B0 CD 82 35 01         A  4176    	CALL	__ishrs_b
0117B4 7D                  A  4177    	LD	A,L
0117B5 DD46FD              A  4178    	LD	B,(IX+-3)
0117B8 B0                  A  4179    	OR	A,B
0117B9 32 5C 46 01         A  4180    	LD	(_btmp),A
0117BD DD27FA              A  4181    	LD	HL,(IX+-6)
0117C0 B7                  A  4182    	OR	A,A
0117C1 01000000            A  4183    	LD	BC,0
0117C5 ED42                A  4184    	SBC	HL,BC
0117C7 28 0C               A  4185    	JR	Z,L_273
0117C9 3A 9F 46 01         A  4186    	LD	A,(_statusRegister)
0117CD CBC7                A  4187    	SET	0,A
0117CF 32 9F 46 01         A  4188    	LD	(_statusRegister),A
0117D3 18 0A               A  4189    	JR	L_274
0117D5                     A  4190    L_273:
0117D5 3A 9F 46 01         A  4191    	LD	A,(_statusRegister)
0117D9 CB87                A  4192    	RES	0,A
0117DB 32 9F 46 01         A  4193    	LD	(_statusRegister),A
0117DF                     A  4194    L_274:
0117DF 3A 5C 46 01         A  4195    	LD	A,(_btmp)
0117E3 4F                  A  4196    	LD	C,A
0117E4 0600                A  4197    	LD	B,0
0117E6 C5                  A  4198    	PUSH	BC
0117E7 CD CF 0E 01         A  4199    	CALL	_setStatusRegisterNZ
0117EB C1                  A  4200    	POP	BC
0117EC 3A 5C 46 01         A  4201    	LD	A,(_btmp)
0117F0 4F                  A  4202    	LD	C,A
Zilog eZ80 Macro Assembler Version 4.1 (10060805) RELISTED19-Sep-11     11:50:04     page:  82


PC     Object              I  Line    Source C:\DOCUME~1\_Enzo_\Desktop\Zapp\Debug\main.src
0117F1 0600                A  4203    	LD	B,0
0117F3 C5                  A  4204    	PUSH	BC
0117F4 ED4B 5D 46 01       A  4205    	LD	BC,(_op)
0117F9 C5                  A  4206    	PUSH	BC
0117FA CD 6A 08 01         A  4207    	CALL	_Mem_Write
0117FE C1                  A  4208    	POP	BC
0117FF C1                  A  4209    	POP	BC
011800 DDF9                A  4210    	LD	SP,IX
011802 DDE1                A  4211    	POP	IX
011804 C9                  A  4212    	RET	
                           A  4213    
                           A  4214    
                           A  4215    ;**************************** _ROR ************
                           A  4216    ;Name                         Addr/Register   S
                           A  4217    ;_statusRegister                     STATIC    
                           A  4218    ;_btmp                               STATIC    
                           A  4219    ;_op                                 STATIC    
                           A  4220    ;newCarry                              IX-6    
                           A  4221    ;temp268                               IX-3    
                           A  4222    
                           A  4223    
                           A  4224    ; Stack Frame Size: 12 (bytes)
                           A  4225    ;       Spill Code: 0 (instruction)
                           A  4226    
                           A  4227    
011805                     A  4228    _ROR_A:
011805 21FDFFFF            A  4229    	LD	HL,-3
011809 CD 3A 36 01         A  4230    	CALL	__frameset
01180D 3A 9F 46 01         A  4231    	LD	A,(_statusRegister)
011811 E601                A  4232    	AND	A,1
011813 28 09               A  4233    	JR	Z,L_278
011815 01000100            A  4234    	LD	BC,256
011819 DD0FFD              A  4235    	LD	(IX+-3),BC
01181C 18 07               A  4236    	JR	L_279
01181E                     A  4237    L_278:
01181E 01000000            A  4238    	LD	BC,0
011822 DD0FFD              A  4239    	LD	(IX+-3),BC
011825                     A  4240    L_279:
011825 3A 55 46 01         A  4241    	LD	A,(_accumulator)
011829 B7ED62              A  4242    	UEXT	HL
01182C 6F                  A  4243    	LD	L,A
01182D DD07FD              A  4244    	LD	BC,(IX+-3)
011830 CD BA 35 01         A  4245    	CALL	__ior
011834 22 6F 46 01         A  4246    	LD	(_tmp),HL
011838 3A 55 46 01         A  4247    	LD	A,(_accumulator)
01183C E601                A  4248    	AND	A,1
01183E 28 0C               A  4249    	JR	Z,L_281
011840 3A 9F 46 01         A  4250    	LD	A,(_statusRegister)
011844 CBC7                A  4251    	SET	0,A
011846 32 9F 46 01         A  4252    	LD	(_statusRegister),A
01184A 18 0A               A  4253    	JR	L_282
01184C                     A  4254    L_281:
Zilog eZ80 Macro Assembler Version 4.1 (10060805) RELISTED19-Sep-11     11:50:04     page:  83


PC     Object              I  Line    Source C:\DOCUME~1\_Enzo_\Desktop\Zapp\Debug\main.src
01184C 3A 9F 46 01         A  4255    	LD	A,(_statusRegister)
011850 CB87                A  4256    	RES	0,A
011852 32 9F 46 01         A  4257    	LD	(_statusRegister),A
011856                     A  4258    L_282:
011856 2A 6F 46 01         A  4259    	LD	HL,(_tmp)
01185A 3E01                A  4260    	LD	A,1
01185C CD 82 35 01         A  4261    	CALL	__ishrs_b
011860 7D                  A  4262    	LD	A,L
011861 4F                  A  4263    	LD	C,A
011862 0600                A  4264    	LD	B,0
011864 C5                  A  4265    	PUSH	BC
011865 32 55 46 01         A  4266    	LD	(_accumulator),A
011869 CD CF 0E 01         A  4267    	CALL	_setStatusRegisterNZ
01186D C1                  A  4268    	POP	BC
01186E DDF9                A  4269    	LD	SP,IX
011870 DDE1                A  4270    	POP	IX
011872 C9                  A  4271    	RET	
                           A  4272    
                           A  4273    
                           A  4274    ;**************************** _ROR_A **********
                           A  4275    ;Name                         Addr/Register   S
                           A  4276    ;_tmp                                STATIC    
                           A  4277    ;_accumulator                        STATIC    
                           A  4278    ;_statusRegister                     STATIC    
                           A  4279    ;temp276                               IX-3    
                           A  4280    
                           A  4281    
                           A  4282    ; Stack Frame Size: 9 (bytes)
                           A  4283    ;       Spill Code: 0 (instruction)
                           A  4284    
                           A  4285    
011873                     A  4286    _INC:
011873 ED4B 5D 46 01       A  4287    	LD	BC,(_op)
011878 C5                  A  4288    	PUSH	BC
011879 CD 07 08 01         A  4289    	CALL	_Mem_Read
01187D C1                  A  4290    	POP	BC
01187E 32 5C 46 01         A  4291    	LD	(_btmp),A
011882 3C                  A  4292    	INC	A
011883 4F                  A  4293    	LD	C,A
011884 0600                A  4294    	LD	B,0
011886 C5                  A  4295    	PUSH	BC
011887 32 5C 46 01         A  4296    	LD	(_btmp),A
01188B CD CF 0E 01         A  4297    	CALL	_setStatusRegisterNZ
01188F C1                  A  4298    	POP	BC
011890 3A 5C 46 01         A  4299    	LD	A,(_btmp)
011894 4F                  A  4300    	LD	C,A
011895 0600                A  4301    	LD	B,0
011897 C5                  A  4302    	PUSH	BC
011898 ED4B 5D 46 01       A  4303    	LD	BC,(_op)
01189D C5                  A  4304    	PUSH	BC
01189E CD 6A 08 01         A  4305    	CALL	_Mem_Write
0118A2 C1                  A  4306    	POP	BC
Zilog eZ80 Macro Assembler Version 4.1 (10060805) RELISTED19-Sep-11     11:50:04     page:  84


PC     Object              I  Line    Source C:\DOCUME~1\_Enzo_\Desktop\Zapp\Debug\main.src
0118A3 C1                  A  4307    	POP	BC
0118A4 C9                  A  4308    	RET	
                           A  4309    
                           A  4310    
                           A  4311    ;**************************** _INC ************
                           A  4312    ;Name                         Addr/Register   S
                           A  4313    ;_btmp                               STATIC    
                           A  4314    ;_op                                 STATIC    
                           A  4315    
                           A  4316    
                           A  4317    ; Stack Frame Size: 6 (bytes)
                           A  4318    ;       Spill Code: 0 (instruction)
                           A  4319    
                           A  4320    
0118A5                     A  4321    _DEC:
0118A5 ED4B 5D 46 01       A  4322    	LD	BC,(_op)
0118AA C5                  A  4323    	PUSH	BC
0118AB CD 07 08 01         A  4324    	CALL	_Mem_Read
0118AF C1                  A  4325    	POP	BC
0118B0 32 5C 46 01         A  4326    	LD	(_btmp),A
0118B4 3D                  A  4327    	DEC	A
0118B5 4F                  A  4328    	LD	C,A
0118B6 0600                A  4329    	LD	B,0
0118B8 C5                  A  4330    	PUSH	BC
0118B9 32 5C 46 01         A  4331    	LD	(_btmp),A
0118BD CD CF 0E 01         A  4332    	CALL	_setStatusRegisterNZ
0118C1 C1                  A  4333    	POP	BC
0118C2 3A 5C 46 01         A  4334    	LD	A,(_btmp)
0118C6 4F                  A  4335    	LD	C,A
0118C7 0600                A  4336    	LD	B,0
0118C9 C5                  A  4337    	PUSH	BC
0118CA ED4B 5D 46 01       A  4338    	LD	BC,(_op)
0118CF C5                  A  4339    	PUSH	BC
0118D0 CD 6A 08 01         A  4340    	CALL	_Mem_Write
0118D4 C1                  A  4341    	POP	BC
0118D5 C1                  A  4342    	POP	BC
0118D6 C9                  A  4343    	RET	
                           A  4344    
                           A  4345    
                           A  4346    ;**************************** _DEC ************
                           A  4347    ;Name                         Addr/Register   S
                           A  4348    ;_btmp                               STATIC    
                           A  4349    ;_op                                 STATIC    
                           A  4350    
                           A  4351    
                           A  4352    ; Stack Frame Size: 6 (bytes)
                           A  4353    ;       Spill Code: 0 (instruction)
                           A  4354    
                           A  4355    
0118D7                     A  4356    _INX:
0118D7 3A 56 46 01         A  4357    	LD	A,(_xRegister)
0118DB 3C                  A  4358    	INC	A
Zilog eZ80 Macro Assembler Version 4.1 (10060805) RELISTED19-Sep-11     11:50:04     page:  85


PC     Object              I  Line    Source C:\DOCUME~1\_Enzo_\Desktop\Zapp\Debug\main.src
0118DC 4F                  A  4359    	LD	C,A
0118DD 0600                A  4360    	LD	B,0
0118DF C5                  A  4361    	PUSH	BC
0118E0 32 56 46 01         A  4362    	LD	(_xRegister),A
0118E4 CD CF 0E 01         A  4363    	CALL	_setStatusRegisterNZ
0118E8 C1                  A  4364    	POP	BC
0118E9 C9                  A  4365    	RET	
                           A  4366    
                           A  4367    
                           A  4368    ;**************************** _INX ************
                           A  4369    ;Name                         Addr/Register   S
                           A  4370    ;_xRegister                          STATIC    
                           A  4371    
                           A  4372    
                           A  4373    ; Stack Frame Size: 6 (bytes)
                           A  4374    ;       Spill Code: 0 (instruction)
                           A  4375    
                           A  4376    
0118EA                     A  4377    _INY:
0118EA 3A 57 46 01         A  4378    	LD	A,(_yRegister)
0118EE 3C                  A  4379    	INC	A
0118EF 4F                  A  4380    	LD	C,A
0118F0 0600                A  4381    	LD	B,0
0118F2 C5                  A  4382    	PUSH	BC
0118F3 32 57 46 01         A  4383    	LD	(_yRegister),A
0118F7 CD CF 0E 01         A  4384    	CALL	_setStatusRegisterNZ
0118FB C1                  A  4385    	POP	BC
0118FC C9                  A  4386    	RET	
                           A  4387    
                           A  4388    
                           A  4389    ;**************************** _INY ************
                           A  4390    ;Name                         Addr/Register   S
                           A  4391    ;_yRegister                          STATIC    
                           A  4392    
                           A  4393    
                           A  4394    ; Stack Frame Size: 6 (bytes)
                           A  4395    ;       Spill Code: 0 (instruction)
                           A  4396    
                           A  4397    
0118FD                     A  4398    _DEX:
0118FD 3A 56 46 01         A  4399    	LD	A,(_xRegister)
011901 3D                  A  4400    	DEC	A
011902 4F                  A  4401    	LD	C,A
011903 0600                A  4402    	LD	B,0
011905 C5                  A  4403    	PUSH	BC
011906 32 56 46 01         A  4404    	LD	(_xRegister),A
01190A CD CF 0E 01         A  4405    	CALL	_setStatusRegisterNZ
01190E C1                  A  4406    	POP	BC
01190F C9                  A  4407    	RET	
                           A  4408    
                           A  4409    
                           A  4410    ;**************************** _DEX ************
Zilog eZ80 Macro Assembler Version 4.1 (10060805) RELISTED19-Sep-11     11:50:04     page:  86


PC     Object              I  Line    Source C:\DOCUME~1\_Enzo_\Desktop\Zapp\Debug\main.src
                           A  4411    ;Name                         Addr/Register   S
                           A  4412    ;_xRegister                          STATIC    
                           A  4413    
                           A  4414    
                           A  4415    ; Stack Frame Size: 6 (bytes)
                           A  4416    ;       Spill Code: 0 (instruction)
                           A  4417    
                           A  4418    
011910                     A  4419    _DEY:
011910 3A 57 46 01         A  4420    	LD	A,(_yRegister)
011914 3D                  A  4421    	DEC	A
011915 4F                  A  4422    	LD	C,A
011916 0600                A  4423    	LD	B,0
011918 C5                  A  4424    	PUSH	BC
011919 32 57 46 01         A  4425    	LD	(_yRegister),A
01191D CD CF 0E 01         A  4426    	CALL	_setStatusRegisterNZ
011921 C1                  A  4427    	POP	BC
011922 C9                  A  4428    	RET	
                           A  4429    
                           A  4430    
                           A  4431    ;**************************** _DEY ************
                           A  4432    ;Name                         Addr/Register   S
                           A  4433    ;_yRegister                          STATIC    
                           A  4434    
                           A  4435    
                           A  4436    ; Stack Frame Size: 6 (bytes)
                           A  4437    ;       Spill Code: 0 (instruction)
                           A  4438    
                           A  4439    
011923                     A  4440    _BIT:
011923 ED4B 5D 46 01       A  4441    	LD	BC,(_op)
011928 C5                  A  4442    	PUSH	BC
011929 CD 07 08 01         A  4443    	CALL	_Mem_Read
01192D C1                  A  4444    	POP	BC
01192E 32 5C 46 01         A  4445    	LD	(_btmp),A
011932 E640                A  4446    	AND	A,64
011934 28 0C               A  4447    	JR	Z,L_297
011936 3A 9F 46 01         A  4448    	LD	A,(_statusRegister)
01193A CBF7                A  4449    	SET	6,A
01193C 32 9F 46 01         A  4450    	LD	(_statusRegister),A
011940 18 0A               A  4451    	JR	L_300
011942                     A  4452    L_297:
011942 3A 9F 46 01         A  4453    	LD	A,(_statusRegister)
011946 CBB7                A  4454    	RES	6,A
011948 32 9F 46 01         A  4455    	LD	(_statusRegister),A
01194C                     A  4456    L_300:
01194C 3A 5C 46 01         A  4457    	LD	A,(_btmp)
011950 E680                A  4458    	AND	A,128
011952 28 0C               A  4459    	JR	Z,L_299
011954 3A 9F 46 01         A  4460    	LD	A,(_statusRegister)
011958 CBFF                A  4461    	SET	7,A
01195A 32 9F 46 01         A  4462    	LD	(_statusRegister),A
Zilog eZ80 Macro Assembler Version 4.1 (10060805) RELISTED19-Sep-11     11:50:04     page:  87


PC     Object              I  Line    Source C:\DOCUME~1\_Enzo_\Desktop\Zapp\Debug\main.src
01195E 18 0A               A  4463    	JR	L_303
011960                     A  4464    L_299:
011960 3A 9F 46 01         A  4465    	LD	A,(_statusRegister)
011964 CBBF                A  4466    	RES	7,A
011966 32 9F 46 01         A  4467    	LD	(_statusRegister),A
01196A                     A  4468    L_303:
01196A ED4B 55 46 01       A  4469    	LD	BC,(_accumulator)
01196F 3A 5C 46 01         A  4470    	LD	A,(_btmp)
011973 A1                  A  4471    	AND	A,C
011974 20 0C               A  4472    	JR	NZ,L_302
011976 3A 9F 46 01         A  4473    	LD	A,(_statusRegister)
01197A CBCF                A  4474    	SET	1,A
01197C 32 9F 46 01         A  4475    	LD	(_statusRegister),A
011980 18 0A               A  4476    	JR	L_304
011982                     A  4477    L_302:
011982 3A 9F 46 01         A  4478    	LD	A,(_statusRegister)
011986 CB8F                A  4479    	RES	1,A
011988 32 9F 46 01         A  4480    	LD	(_statusRegister),A
01198C                     A  4481    L_304:
01198C C9                  A  4482    	RET	
                           A  4483    
                           A  4484    
                           A  4485    ;**************************** _BIT ************
                           A  4486    ;Name                         Addr/Register   S
                           A  4487    ;_accumulator                        STATIC    
                           A  4488    ;_statusRegister                     STATIC    
                           A  4489    ;_btmp                               STATIC    
                           A  4490    ;_op                                 STATIC    
                           A  4491    
                           A  4492    
                           A  4493    ; Stack Frame Size: 6 (bytes)
                           A  4494    ;       Spill Code: 0 (instruction)
                           A  4495    
                           A  4496    
01198D                     A  4497    _PHA:
01198D 3A 55 46 01         A  4498    	LD	A,(_accumulator)
011991 4F                  A  4499    	LD	C,A
011992 3A 58 46 01         A  4500    	LD	A,(_stackPointer)
011996 0600                A  4501    	LD	B,0
011998 C5                  A  4502    	PUSH	BC
011999 4F                  A  4503    	LD	C,A
01199A C5E1                A  4504    	LD	HL,BC
01199C 49110001            A  4505    	LD.LIS	DE,256
0119A0 4019                A  4506    	ADD.SIS	HL,DE
0119A2 E5                  A  4507    	PUSH	HL
0119A3 CD 6A 08 01         A  4508    	CALL	_Mem_Write
0119A7 C1                  A  4509    	POP	BC
0119A8 C1                  A  4510    	POP	BC
0119A9 3A 58 46 01         A  4511    	LD	A,(_stackPointer)
0119AD 3D                  A  4512    	DEC	A
0119AE 32 58 46 01         A  4513    	LD	(_stackPointer),A
0119B2 C9                  A  4514    	RET	
Zilog eZ80 Macro Assembler Version 4.1 (10060805) RELISTED19-Sep-11     11:50:04     page:  88


PC     Object              I  Line    Source C:\DOCUME~1\_Enzo_\Desktop\Zapp\Debug\main.src
                           A  4515    
                           A  4516    
                           A  4517    ;**************************** _PHA ************
                           A  4518    ;Name                         Addr/Register   S
                           A  4519    ;_stackPointer                       STATIC    
                           A  4520    ;_accumulator                        STATIC    
                           A  4521    
                           A  4522    
                           A  4523    ; Stack Frame Size: 6 (bytes)
                           A  4524    ;       Spill Code: 0 (instruction)
                           A  4525    
                           A  4526    
0119B3                     A  4527    _PHP:
0119B3 3A 9F 46 01         A  4528    	LD	A,(_statusRegister)
0119B7 4F                  A  4529    	LD	C,A
0119B8 3A 58 46 01         A  4530    	LD	A,(_stackPointer)
0119BC 0600                A  4531    	LD	B,0
0119BE C5                  A  4532    	PUSH	BC
0119BF 4F                  A  4533    	LD	C,A
0119C0 C5E1                A  4534    	LD	HL,BC
0119C2 49110001            A  4535    	LD.LIS	DE,256
0119C6 4019                A  4536    	ADD.SIS	HL,DE
0119C8 E5                  A  4537    	PUSH	HL
0119C9 CD 6A 08 01         A  4538    	CALL	_Mem_Write
0119CD C1                  A  4539    	POP	BC
0119CE C1                  A  4540    	POP	BC
0119CF 3A 58 46 01         A  4541    	LD	A,(_stackPointer)
0119D3 3D                  A  4542    	DEC	A
0119D4 32 58 46 01         A  4543    	LD	(_stackPointer),A
0119D8 C9                  A  4544    	RET	
                           A  4545    
                           A  4546    
                           A  4547    ;**************************** _PHP ************
                           A  4548    ;Name                         Addr/Register   S
                           A  4549    ;_stackPointer                       STATIC    
                           A  4550    ;_statusRegister                     STATIC    
                           A  4551    
                           A  4552    
                           A  4553    ; Stack Frame Size: 6 (bytes)
                           A  4554    ;       Spill Code: 0 (instruction)
                           A  4555    
                           A  4556    
0119D9                     A  4557    _PLA:
0119D9 3A 58 46 01         A  4558    	LD	A,(_stackPointer)
0119DD 3C                  A  4559    	INC	A
0119DE 4F                  A  4560    	LD	C,A
0119DF 0600                A  4561    	LD	B,0
0119E1 C5E1                A  4562    	LD	HL,BC
0119E3 49110001            A  4563    	LD.LIS	DE,256
0119E7 4019                A  4564    	ADD.SIS	HL,DE
0119E9 E5                  A  4565    	PUSH	HL
0119EA 32 58 46 01         A  4566    	LD	(_stackPointer),A
Zilog eZ80 Macro Assembler Version 4.1 (10060805) RELISTED19-Sep-11     11:50:04     page:  89


PC     Object              I  Line    Source C:\DOCUME~1\_Enzo_\Desktop\Zapp\Debug\main.src
0119EE CD 07 08 01         A  4567    	CALL	_Mem_Read
0119F2 C1                  A  4568    	POP	BC
0119F3 4F                  A  4569    	LD	C,A
0119F4 0600                A  4570    	LD	B,0
0119F6 C5                  A  4571    	PUSH	BC
0119F7 32 55 46 01         A  4572    	LD	(_accumulator),A
0119FB CD CF 0E 01         A  4573    	CALL	_setStatusRegisterNZ
0119FF C1                  A  4574    	POP	BC
011A00 C9                  A  4575    	RET	
                           A  4576    
                           A  4577    
                           A  4578    ;**************************** _PLA ************
                           A  4579    ;Name                         Addr/Register   S
                           A  4580    ;_accumulator                        STATIC    
                           A  4581    ;_stackPointer                       STATIC    
                           A  4582    
                           A  4583    
                           A  4584    ; Stack Frame Size: 6 (bytes)
                           A  4585    ;       Spill Code: 0 (instruction)
                           A  4586    
                           A  4587    
011A01                     A  4588    _PLP:
011A01 3A 58 46 01         A  4589    	LD	A,(_stackPointer)
011A05 3C                  A  4590    	INC	A
011A06 4F                  A  4591    	LD	C,A
011A07 0600                A  4592    	LD	B,0
011A09 C5E1                A  4593    	LD	HL,BC
011A0B 49110001            A  4594    	LD.LIS	DE,256
011A0F 4019                A  4595    	ADD.SIS	HL,DE
011A11 E5                  A  4596    	PUSH	HL
011A12 32 58 46 01         A  4597    	LD	(_stackPointer),A
011A16 CD 07 08 01         A  4598    	CALL	_Mem_Read
011A1A C1                  A  4599    	POP	BC
011A1B 32 9F 46 01         A  4600    	LD	(_statusRegister),A
011A1F C9                  A  4601    	RET	
                           A  4602    
                           A  4603    
                           A  4604    ;**************************** _PLP ************
                           A  4605    ;Name                         Addr/Register   S
                           A  4606    ;_statusRegister                     STATIC    
                           A  4607    ;_stackPointer                       STATIC    
                           A  4608    
                           A  4609    
                           A  4610    ; Stack Frame Size: 6 (bytes)
                           A  4611    ;       Spill Code: 0 (instruction)
                           A  4612    
                           A  4613    
011A20                     A  4614    _BRK:
011A20 CD 70 09 01         A  4615    	CALL	_pushProgramCounter
011A24 CD B3 19 01         A  4616    	CALL	_PHP
011A28 01FEFF00            A  4617    	LD	BC,65534
011A2C C5                  A  4618    	PUSH	BC
Zilog eZ80 Macro Assembler Version 4.1 (10060805) RELISTED19-Sep-11     11:50:04     page:  90


PC     Object              I  Line    Source C:\DOCUME~1\_Enzo_\Desktop\Zapp\Debug\main.src
011A2D 3A 9F 46 01         A  4619    	LD	A,(_statusRegister)
011A31 CBE7                A  4620    	SET	4,A
011A33 32 9F 46 01         A  4621    	LD	(_statusRegister),A
011A37 CD 31 09 01         A  4622    	CALL	_Mem_Read_Absolute
011A3B C1                  A  4623    	POP	BC
011A3C E5C1                A  4624    	LD	BC,HL
011A3E CD D5 35 01         A  4625    	CALL	__stoiu
011A42 22 59 46 01         A  4626    	LD	(_programCounter),HL
011A46 C9                  A  4627    	RET	
                           A  4628    
                           A  4629    
                           A  4630    ;**************************** _BRK ************
                           A  4631    ;Name                         Addr/Register   S
                           A  4632    ;_programCounter                     STATIC    
                           A  4633    ;_statusRegister                     STATIC    
                           A  4634    
                           A  4635    
                           A  4636    ; Stack Frame Size: 6 (bytes)
                           A  4637    ;       Spill Code: 0 (instruction)
                           A  4638    
                           A  4639    
011A47                     A  4640    _RTI:
011A47 CD 01 1A 01         A  4641    	CALL	_PLP
011A4B CD B9 09 01         A  4642    	CALL	_popProgramCounter
011A4F C9                  A  4643    	RET	
                           A  4644    
                           A  4645    
                           A  4646    ;**************************** _RTI ************
                           A  4647    ;Name                         Addr/Register   S
                           A  4648    
                           A  4649    
                           A  4650    ; Stack Frame Size: 6 (bytes)
                           A  4651    ;       Spill Code: 0 (instruction)
                           A  4652    
                           A  4653    
011A50                     A  4654    _JMP:
011A50 ED4B 5D 46 01       A  4655    	LD	BC,(_op)
011A55 ED43 59 46 01       A  4656    	LD	(_programCounter),BC
011A5A C9                  A  4657    	RET	
                           A  4658    
                           A  4659    
                           A  4660    ;**************************** _JMP ************
                           A  4661    ;Name                         Addr/Register   S
                           A  4662    ;_programCounter                     STATIC    
                           A  4663    ;_op                                 STATIC    
                           A  4664    
                           A  4665    
                           A  4666    ; Stack Frame Size: 6 (bytes)
                           A  4667    ;       Spill Code: 0 (instruction)
                           A  4668    
                           A  4669    
011A5B                     A  4670    _RTS:
Zilog eZ80 Macro Assembler Version 4.1 (10060805) RELISTED19-Sep-11     11:50:04     page:  91


PC     Object              I  Line    Source C:\DOCUME~1\_Enzo_\Desktop\Zapp\Debug\main.src
011A5B CD B9 09 01         A  4671    	CALL	_popProgramCounter
011A5F ED4B 59 46 01       A  4672    	LD	BC,(_programCounter)
011A64 03                  A  4673    	INC	BC
011A65 ED43 59 46 01       A  4674    	LD	(_programCounter),BC
011A6A C9                  A  4675    	RET	
                           A  4676    
                           A  4677    
                           A  4678    ;**************************** _RTS ************
                           A  4679    ;Name                         Addr/Register   S
                           A  4680    ;_programCounter                     STATIC    
                           A  4681    
                           A  4682    
                           A  4683    ; Stack Frame Size: 6 (bytes)
                           A  4684    ;       Spill Code: 0 (instruction)
                           A  4685    
                           A  4686    
011A6B                     A  4687    _JSR:
011A6B ED4B 59 46 01       A  4688    	LD	BC,(_programCounter)
011A70 C5                  A  4689    	PUSH	BC
011A71 ED4B 59 46 01       A  4690    	LD	BC,(_programCounter)
011A76 03                  A  4691    	INC	BC
011A77 ED43 59 46 01       A  4692    	LD	(_programCounter),BC
011A7C CD 07 08 01         A  4693    	CALL	_Mem_Read
011A80 C1                  A  4694    	POP	BC
011A81 B7ED62              A  4695    	UEXT	HL
011A84 6F                  A  4696    	LD	L,A
011A85 22 63 46 01         A  4697    	LD	(_opL),HL
011A89 CD 70 09 01         A  4698    	CALL	_pushProgramCounter
011A8D ED4B 59 46 01       A  4699    	LD	BC,(_programCounter)
011A92 C5                  A  4700    	PUSH	BC
011A93 CD 07 08 01         A  4701    	CALL	_Mem_Read
011A97 C1                  A  4702    	POP	BC
011A98 ED4B 63 46 01       A  4703    	LD	BC,(_opL)
011A9D B7ED62              A  4704    	UEXT	HL
011AA0 6F                  A  4705    	LD	L,A
011AA1 3E08                A  4706    	LD	A,8
011AA3 CD 0D 37 01         A  4707    	CALL	__ishl_b
011AA7 09                  A  4708    	ADD	HL,BC
011AA8 22 59 46 01         A  4709    	LD	(_programCounter),HL
011AAC C9                  A  4710    	RET	
                           A  4711    
                           A  4712    
                           A  4713    ;**************************** _JSR ************
                           A  4714    ;Name                         Addr/Register   S
                           A  4715    ;_opL                                STATIC    
                           A  4716    ;_programCounter                     STATIC    
                           A  4717    
                           A  4718    
                           A  4719    ; Stack Frame Size: 6 (bytes)
                           A  4720    ;       Spill Code: 0 (instruction)
                           A  4721    
                           A  4722    
Zilog eZ80 Macro Assembler Version 4.1 (10060805) RELISTED19-Sep-11     11:50:04     page:  92


PC     Object              I  Line    Source C:\DOCUME~1\_Enzo_\Desktop\Zapp\Debug\main.src
011AAD                     A  4723    _branch:
011AAD ED4B 5D 46 01       A  4724    	LD	BC,(_op)
011AB2 ED43 59 46 01       A  4725    	LD	(_programCounter),BC
011AB7 C9                  A  4726    	RET	
                           A  4727    
                           A  4728    
                           A  4729    ;**************************** _branch *********
                           A  4730    ;Name                         Addr/Register   S
                           A  4731    ;_programCounter                     STATIC    
                           A  4732    ;_op                                 STATIC    
                           A  4733    
                           A  4734    
                           A  4735    ; Stack Frame Size: 6 (bytes)
                           A  4736    ;       Spill Code: 0 (instruction)
                           A  4737    
                           A  4738    
011AB8                     A  4739    _BNE:
011AB8 3A 9F 46 01         A  4740    	LD	A,(_statusRegister)
011ABC E602                A  4741    	AND	A,2
011ABE 20 04               A  4742    	JR	NZ,L_322
011AC0 CD AD 1A 01         A  4743    	CALL	_branch
011AC4                     A  4744    L_322:
011AC4 C9                  A  4745    	RET	
                           A  4746    
                           A  4747    
                           A  4748    ;**************************** _BNE ************
                           A  4749    ;Name                         Addr/Register   S
                           A  4750    ;_statusRegister                     STATIC    
                           A  4751    
                           A  4752    
                           A  4753    ; Stack Frame Size: 6 (bytes)
                           A  4754    ;       Spill Code: 0 (instruction)
                           A  4755    
                           A  4756    
011AC5                     A  4757    _BEQ:
011AC5 3A 9F 46 01         A  4758    	LD	A,(_statusRegister)
011AC9 E602                A  4759    	AND	A,2
011ACB 28 04               A  4760    	JR	Z,L_324
011ACD CD AD 1A 01         A  4761    	CALL	_branch
011AD1                     A  4762    L_324:
011AD1 C9                  A  4763    	RET	
                           A  4764    
                           A  4765    
                           A  4766    ;**************************** _BEQ ************
                           A  4767    ;Name                         Addr/Register   S
                           A  4768    ;_statusRegister                     STATIC    
                           A  4769    
                           A  4770    
                           A  4771    ; Stack Frame Size: 6 (bytes)
                           A  4772    ;       Spill Code: 0 (instruction)
                           A  4773    
                           A  4774    
Zilog eZ80 Macro Assembler Version 4.1 (10060805) RELISTED19-Sep-11     11:50:04     page:  93


PC     Object              I  Line    Source C:\DOCUME~1\_Enzo_\Desktop\Zapp\Debug\main.src
011AD2                     A  4775    _BVC:
011AD2 3A 9F 46 01         A  4776    	LD	A,(_statusRegister)
011AD6 E640                A  4777    	AND	A,64
011AD8 20 04               A  4778    	JR	NZ,L_326
011ADA CD AD 1A 01         A  4779    	CALL	_branch
011ADE                     A  4780    L_326:
011ADE C9                  A  4781    	RET	
                           A  4782    
                           A  4783    
                           A  4784    ;**************************** _BVC ************
                           A  4785    ;Name                         Addr/Register   S
                           A  4786    ;_statusRegister                     STATIC    
                           A  4787    
                           A  4788    
                           A  4789    ; Stack Frame Size: 6 (bytes)
                           A  4790    ;       Spill Code: 0 (instruction)
                           A  4791    
                           A  4792    
011ADF                     A  4793    _BVS:
011ADF 3A 9F 46 01         A  4794    	LD	A,(_statusRegister)
011AE3 E640                A  4795    	AND	A,64
011AE5 28 04               A  4796    	JR	Z,L_328
011AE7 CD AD 1A 01         A  4797    	CALL	_branch
011AEB                     A  4798    L_328:
011AEB C9                  A  4799    	RET	
                           A  4800    
                           A  4801    
                           A  4802    ;**************************** _BVS ************
                           A  4803    ;Name                         Addr/Register   S
                           A  4804    ;_statusRegister                     STATIC    
                           A  4805    
                           A  4806    
                           A  4807    ; Stack Frame Size: 6 (bytes)
                           A  4808    ;       Spill Code: 0 (instruction)
                           A  4809    
                           A  4810    
011AEC                     A  4811    _BCC:
011AEC 3A 9F 46 01         A  4812    	LD	A,(_statusRegister)
011AF0 E601                A  4813    	AND	A,1
011AF2 20 04               A  4814    	JR	NZ,L_330
011AF4 CD AD 1A 01         A  4815    	CALL	_branch
011AF8                     A  4816    L_330:
011AF8 C9                  A  4817    	RET	
                           A  4818    
                           A  4819    
                           A  4820    ;**************************** _BCC ************
                           A  4821    ;Name                         Addr/Register   S
                           A  4822    ;_statusRegister                     STATIC    
                           A  4823    
                           A  4824    
                           A  4825    ; Stack Frame Size: 6 (bytes)
                           A  4826    ;       Spill Code: 0 (instruction)
Zilog eZ80 Macro Assembler Version 4.1 (10060805) RELISTED19-Sep-11     11:50:04     page:  94


PC     Object              I  Line    Source C:\DOCUME~1\_Enzo_\Desktop\Zapp\Debug\main.src
                           A  4827    
                           A  4828    
011AF9                     A  4829    _BCS:
011AF9 3A 9F 46 01         A  4830    	LD	A,(_statusRegister)
011AFD E601                A  4831    	AND	A,1
011AFF 28 04               A  4832    	JR	Z,L_332
011B01 CD AD 1A 01         A  4833    	CALL	_branch
011B05                     A  4834    L_332:
011B05 C9                  A  4835    	RET	
                           A  4836    
                           A  4837    
                           A  4838    ;**************************** _BCS ************
                           A  4839    ;Name                         Addr/Register   S
                           A  4840    ;_statusRegister                     STATIC    
                           A  4841    
                           A  4842    
                           A  4843    ; Stack Frame Size: 6 (bytes)
                           A  4844    ;       Spill Code: 0 (instruction)
                           A  4845    
                           A  4846    
011B06                     A  4847    _BPL:
011B06 3A 9F 46 01         A  4848    	LD	A,(_statusRegister)
011B0A E680                A  4849    	AND	A,128
011B0C 20 04               A  4850    	JR	NZ,L_334
011B0E CD AD 1A 01         A  4851    	CALL	_branch
011B12                     A  4852    L_334:
011B12 C9                  A  4853    	RET	
                           A  4854    
                           A  4855    
                           A  4856    ;**************************** _BPL ************
                           A  4857    ;Name                         Addr/Register   S
                           A  4858    ;_statusRegister                     STATIC    
                           A  4859    
                           A  4860    
                           A  4861    ; Stack Frame Size: 6 (bytes)
                           A  4862    ;       Spill Code: 0 (instruction)
                           A  4863    
                           A  4864    
011B13                     A  4865    _BMI:
011B13 3A 9F 46 01         A  4866    	LD	A,(_statusRegister)
011B17 E680                A  4867    	AND	A,128
011B19 28 04               A  4868    	JR	Z,L_336
011B1B CD AD 1A 01         A  4869    	CALL	_branch
011B1F                     A  4870    L_336:
011B1F C9                  A  4871    	RET	
                           A  4872    
                           A  4873    
                           A  4874    ;**************************** _BMI ************
                           A  4875    ;Name                         Addr/Register   S
                           A  4876    ;_statusRegister                     STATIC    
                           A  4877    
                           A  4878    
Zilog eZ80 Macro Assembler Version 4.1 (10060805) RELISTED19-Sep-11     11:50:04     page:  95


PC     Object              I  Line    Source C:\DOCUME~1\_Enzo_\Desktop\Zapp\Debug\main.src
                           A  4879    ; Stack Frame Size: 6 (bytes)
                           A  4880    ;       Spill Code: 0 (instruction)
                           A  4881    
                           A  4882    
011B20                     A  4883    _TAX:
011B20 3A 55 46 01         A  4884    	LD	A,(_accumulator)
011B24 32 56 46 01         A  4885    	LD	(_xRegister),A
011B28 3A 55 46 01         A  4886    	LD	A,(_accumulator)
011B2C 4F                  A  4887    	LD	C,A
011B2D 0600                A  4888    	LD	B,0
011B2F C5                  A  4889    	PUSH	BC
011B30 CD CF 0E 01         A  4890    	CALL	_setStatusRegisterNZ
011B34 C1                  A  4891    	POP	BC
011B35 C9                  A  4892    	RET	
                           A  4893    
                           A  4894    
                           A  4895    ;**************************** _TAX ************
                           A  4896    ;Name                         Addr/Register   S
                           A  4897    ;_xRegister                          STATIC    
                           A  4898    ;_accumulator                        STATIC    
                           A  4899    
                           A  4900    
                           A  4901    ; Stack Frame Size: 6 (bytes)
                           A  4902    ;       Spill Code: 0 (instruction)
                           A  4903    
                           A  4904    
011B36                     A  4905    _TXA:
011B36 3A 56 46 01         A  4906    	LD	A,(_xRegister)
011B3A 32 55 46 01         A  4907    	LD	(_accumulator),A
011B3E 3A 56 46 01         A  4908    	LD	A,(_xRegister)
011B42 4F                  A  4909    	LD	C,A
011B43 0600                A  4910    	LD	B,0
011B45 C5                  A  4911    	PUSH	BC
011B46 CD CF 0E 01         A  4912    	CALL	_setStatusRegisterNZ
011B4A C1                  A  4913    	POP	BC
011B4B C9                  A  4914    	RET	
                           A  4915    
                           A  4916    
                           A  4917    ;**************************** _TXA ************
                           A  4918    ;Name                         Addr/Register   S
                           A  4919    ;_accumulator                        STATIC    
                           A  4920    ;_xRegister                          STATIC    
                           A  4921    
                           A  4922    
                           A  4923    ; Stack Frame Size: 6 (bytes)
                           A  4924    ;       Spill Code: 0 (instruction)
                           A  4925    
                           A  4926    
011B4C                     A  4927    _TAY:
011B4C 3A 55 46 01         A  4928    	LD	A,(_accumulator)
011B50 32 57 46 01         A  4929    	LD	(_yRegister),A
011B54 3A 55 46 01         A  4930    	LD	A,(_accumulator)
Zilog eZ80 Macro Assembler Version 4.1 (10060805) RELISTED19-Sep-11     11:50:04     page:  96


PC     Object              I  Line    Source C:\DOCUME~1\_Enzo_\Desktop\Zapp\Debug\main.src
011B58 4F                  A  4931    	LD	C,A
011B59 0600                A  4932    	LD	B,0
011B5B C5                  A  4933    	PUSH	BC
011B5C CD CF 0E 01         A  4934    	CALL	_setStatusRegisterNZ
011B60 C1                  A  4935    	POP	BC
011B61 C9                  A  4936    	RET	
                           A  4937    
                           A  4938    
                           A  4939    ;**************************** _TAY ************
                           A  4940    ;Name                         Addr/Register   S
                           A  4941    ;_yRegister                          STATIC    
                           A  4942    ;_accumulator                        STATIC    
                           A  4943    
                           A  4944    
                           A  4945    ; Stack Frame Size: 6 (bytes)
                           A  4946    ;       Spill Code: 0 (instruction)
                           A  4947    
                           A  4948    
011B62                     A  4949    _TYA:
011B62 3A 57 46 01         A  4950    	LD	A,(_yRegister)
011B66 32 55 46 01         A  4951    	LD	(_accumulator),A
011B6A 3A 57 46 01         A  4952    	LD	A,(_yRegister)
011B6E 4F                  A  4953    	LD	C,A
011B6F 0600                A  4954    	LD	B,0
011B71 C5                  A  4955    	PUSH	BC
011B72 CD CF 0E 01         A  4956    	CALL	_setStatusRegisterNZ
011B76 C1                  A  4957    	POP	BC
011B77 C9                  A  4958    	RET	
                           A  4959    
                           A  4960    
                           A  4961    ;**************************** _TYA ************
                           A  4962    ;Name                         Addr/Register   S
                           A  4963    ;_accumulator                        STATIC    
                           A  4964    ;_yRegister                          STATIC    
                           A  4965    
                           A  4966    
                           A  4967    ; Stack Frame Size: 6 (bytes)
                           A  4968    ;       Spill Code: 0 (instruction)
                           A  4969    
                           A  4970    
011B78                     A  4971    _TXS:
011B78 3A 56 46 01         A  4972    	LD	A,(_xRegister)
011B7C 32 58 46 01         A  4973    	LD	(_stackPointer),A
011B80 C9                  A  4974    	RET	
                           A  4975    
                           A  4976    
                           A  4977    ;**************************** _TXS ************
                           A  4978    ;Name                         Addr/Register   S
                           A  4979    ;_stackPointer                       STATIC    
                           A  4980    ;_xRegister                          STATIC    
                           A  4981    
                           A  4982    
Zilog eZ80 Macro Assembler Version 4.1 (10060805) RELISTED19-Sep-11     11:50:04     page:  97


PC     Object              I  Line    Source C:\DOCUME~1\_Enzo_\Desktop\Zapp\Debug\main.src
                           A  4983    ; Stack Frame Size: 6 (bytes)
                           A  4984    ;       Spill Code: 0 (instruction)
                           A  4985    
                           A  4986    
011B81                     A  4987    _TSX:
011B81 3A 58 46 01         A  4988    	LD	A,(_stackPointer)
011B85 32 56 46 01         A  4989    	LD	(_xRegister),A
011B89 3A 58 46 01         A  4990    	LD	A,(_stackPointer)
011B8D 4F                  A  4991    	LD	C,A
011B8E 0600                A  4992    	LD	B,0
011B90 C5                  A  4993    	PUSH	BC
011B91 CD CF 0E 01         A  4994    	CALL	_setStatusRegisterNZ
011B95 C1                  A  4995    	POP	BC
011B96 C9                  A  4996    	RET	
                           A  4997    
                           A  4998    
                           A  4999    ;**************************** _TSX ************
                           A  5000    ;Name                         Addr/Register   S
                           A  5001    ;_xRegister                          STATIC    
                           A  5002    ;_stackPointer                       STATIC    
                           A  5003    
                           A  5004    
                           A  5005    ; Stack Frame Size: 6 (bytes)
                           A  5006    ;       Spill Code: 0 (instruction)
                           A  5007    
                           A  5008    
011B97                     A  5009    _CLC:
011B97 3A 9F 46 01         A  5010    	LD	A,(_statusRegister)
011B9B CB87                A  5011    	RES	0,A
011B9D 32 9F 46 01         A  5012    	LD	(_statusRegister),A
011BA1 C9                  A  5013    	RET	
                           A  5014    
                           A  5015    
                           A  5016    ;**************************** _CLC ************
                           A  5017    ;Name                         Addr/Register   S
                           A  5018    ;_statusRegister                     STATIC    
                           A  5019    
                           A  5020    
                           A  5021    ; Stack Frame Size: 6 (bytes)
                           A  5022    ;       Spill Code: 0 (instruction)
                           A  5023    
                           A  5024    
011BA2                     A  5025    _SEC:
011BA2 3A 9F 46 01         A  5026    	LD	A,(_statusRegister)
011BA6 CBC7                A  5027    	SET	0,A
011BA8 32 9F 46 01         A  5028    	LD	(_statusRegister),A
011BAC C9                  A  5029    	RET	
                           A  5030    
                           A  5031    
                           A  5032    ;**************************** _SEC ************
                           A  5033    ;Name                         Addr/Register   S
                           A  5034    ;_statusRegister                     STATIC    
Zilog eZ80 Macro Assembler Version 4.1 (10060805) RELISTED19-Sep-11     11:50:04     page:  98


PC     Object              I  Line    Source C:\DOCUME~1\_Enzo_\Desktop\Zapp\Debug\main.src
                           A  5035    
                           A  5036    
                           A  5037    ; Stack Frame Size: 6 (bytes)
                           A  5038    ;       Spill Code: 0 (instruction)
                           A  5039    
                           A  5040    
011BAD                     A  5041    _CLI:
011BAD 3A 9F 46 01         A  5042    	LD	A,(_statusRegister)
011BB1 CB97                A  5043    	RES	2,A
011BB3 32 9F 46 01         A  5044    	LD	(_statusRegister),A
011BB7 C9                  A  5045    	RET	
                           A  5046    
                           A  5047    
                           A  5048    ;**************************** _CLI ************
                           A  5049    ;Name                         Addr/Register   S
                           A  5050    ;_statusRegister                     STATIC    
                           A  5051    
                           A  5052    
                           A  5053    ; Stack Frame Size: 6 (bytes)
                           A  5054    ;       Spill Code: 0 (instruction)
                           A  5055    
                           A  5056    
011BB8                     A  5057    _SEI:
011BB8 3A 9F 46 01         A  5058    	LD	A,(_statusRegister)
011BBC CBD7                A  5059    	SET	2,A
011BBE 32 9F 46 01         A  5060    	LD	(_statusRegister),A
011BC2 C9                  A  5061    	RET	
                           A  5062    
                           A  5063    
                           A  5064    ;**************************** _SEI ************
                           A  5065    ;Name                         Addr/Register   S
                           A  5066    ;_statusRegister                     STATIC    
                           A  5067    
                           A  5068    
                           A  5069    ; Stack Frame Size: 6 (bytes)
                           A  5070    ;       Spill Code: 0 (instruction)
                           A  5071    
                           A  5072    
011BC3                     A  5073    _CLV:
011BC3 3A 9F 46 01         A  5074    	LD	A,(_statusRegister)
011BC7 CBB7                A  5075    	RES	6,A
011BC9 32 9F 46 01         A  5076    	LD	(_statusRegister),A
011BCD C9                  A  5077    	RET	
                           A  5078    
                           A  5079    
                           A  5080    ;**************************** _CLV ************
                           A  5081    ;Name                         Addr/Register   S
                           A  5082    ;_statusRegister                     STATIC    
                           A  5083    
                           A  5084    
                           A  5085    ; Stack Frame Size: 6 (bytes)
                           A  5086    ;       Spill Code: 0 (instruction)
Zilog eZ80 Macro Assembler Version 4.1 (10060805) RELISTED19-Sep-11     11:50:04     page:  99


PC     Object              I  Line    Source C:\DOCUME~1\_Enzo_\Desktop\Zapp\Debug\main.src
                           A  5087    
                           A  5088    
011BCE                     A  5089    _CLD:
011BCE 3A 9F 46 01         A  5090    	LD	A,(_statusRegister)
011BD2 CB9F                A  5091    	RES	3,A
011BD4 32 9F 46 01         A  5092    	LD	(_statusRegister),A
011BD8 C9                  A  5093    	RET	
                           A  5094    
                           A  5095    
                           A  5096    ;**************************** _CLD ************
                           A  5097    ;Name                         Addr/Register   S
                           A  5098    ;_statusRegister                     STATIC    
                           A  5099    
                           A  5100    
                           A  5101    ; Stack Frame Size: 6 (bytes)
                           A  5102    ;       Spill Code: 0 (instruction)
                           A  5103    
                           A  5104    
011BD9                     A  5105    _SED:
011BD9 3A 9F 46 01         A  5106    	LD	A,(_statusRegister)
011BDD CBDF                A  5107    	SET	3,A
011BDF 32 9F 46 01         A  5108    	LD	(_statusRegister),A
011BE3 C9                  A  5109    	RET	
                           A  5110    
                           A  5111    
                           A  5112    ;**************************** _SED ************
                           A  5113    ;Name                         Addr/Register   S
                           A  5114    ;_statusRegister                     STATIC    
                           A  5115    
                           A  5116    
                           A  5117    ; Stack Frame Size: 6 (bytes)
                           A  5118    ;       Spill Code: 0 (instruction)
                           A  5119    
                           A  5120    
011BE4                     A  5121    _Opcode_0x00:
011BE4 CD A7 0A 01         A  5122    	CALL	_Imm
011BE8 CD 20 1A 01         A  5123    	CALL	_BRK
011BEC C9                  A  5124    	RET	
                           A  5125    
                           A  5126    
                           A  5127    ;**************************** _Opcode_0x00 ****
                           A  5128    ;Name                         Addr/Register   S
                           A  5129    
                           A  5130    
                           A  5131    ; Stack Frame Size: 6 (bytes)
                           A  5132    ;       Spill Code: 0 (instruction)
                           A  5133    
                           A  5134    
011BED                     A  5135    _Opcode_0x01:
011BED CD 98 0C 01         A  5136    	CALL	_IndZeroX
011BF1 CD 37 15 01         A  5137    	CALL	_ORA
011BF5 C9                  A  5138    	RET	
Zilog eZ80 Macro Assembler Version 4.1 (10060805) RELISTED19-Sep-11     11:50:04     page: 100


PC     Object              I  Line    Source C:\DOCUME~1\_Enzo_\Desktop\Zapp\Debug\main.src
                           A  5139    
                           A  5140    
                           A  5141    ;**************************** _Opcode_0x01 ****
                           A  5142    ;Name                         Addr/Register   S
                           A  5143    
                           A  5144    
                           A  5145    ; Stack Frame Size: 6 (bytes)
                           A  5146    ;       Spill Code: 0 (instruction)
                           A  5147    
                           A  5148    
011BF6                     A  5149    _Multi_UnDoc1:
011BF6 ED4B 59 46 01       A  5150    	LD	BC,(_programCounter)
011BFB 0B                  A  5151    	DEC	BC
011BFC ED43 59 46 01       A  5152    	LD	(_programCounter),BC
011C01 C9                  A  5153    	RET	
                           A  5154    
                           A  5155    
                           A  5156    ;**************************** _Multi_UnDoc1 ***
                           A  5157    ;Name                         Addr/Register   S
                           A  5158    ;_programCounter                     STATIC    
                           A  5159    
                           A  5160    
                           A  5161    ; Stack Frame Size: 6 (bytes)
                           A  5162    ;       Spill Code: 0 (instruction)
                           A  5163    
                           A  5164    
011C02                     A  5165    _Multi_UnDoc2:
011C02 ED4B 59 46 01       A  5166    	LD	BC,(_programCounter)
011C07 03                  A  5167    	INC	BC
011C08 ED43 59 46 01       A  5168    	LD	(_programCounter),BC
011C0D C9                  A  5169    	RET	
                           A  5170    
                           A  5171    
                           A  5172    ;**************************** _Multi_UnDoc2 ***
                           A  5173    ;Name                         Addr/Register   S
                           A  5174    ;_programCounter                     STATIC    
                           A  5175    
                           A  5176    
                           A  5177    ; Stack Frame Size: 6 (bytes)
                           A  5178    ;       Spill Code: 0 (instruction)
                           A  5179    
                           A  5180    
011C0E                     A  5181    _Multi_UnDoc3:
011C0E FD2A 59 46 01       A  5182    	LD	IY,(_programCounter)
011C13 ED0302              A  5183    	LEA	BC,IY+2
011C16 ED43 59 46 01       A  5184    	LD	(_programCounter),BC
011C1B C9                  A  5185    	RET	
                           A  5186    
                           A  5187    
                           A  5188    ;**************************** _Multi_UnDoc3 ***
                           A  5189    ;Name                         Addr/Register   S
                           A  5190    ;_programCounter                     STATIC    
Zilog eZ80 Macro Assembler Version 4.1 (10060805) RELISTED19-Sep-11     11:50:04     page: 101


PC     Object              I  Line    Source C:\DOCUME~1\_Enzo_\Desktop\Zapp\Debug\main.src
                           A  5191    
                           A  5192    
                           A  5193    ; Stack Frame Size: 6 (bytes)
                           A  5194    ;       Spill Code: 0 (instruction)
                           A  5195    
                           A  5196    
011C1C                     A  5197    _Opcode_0x05:
011C1C CD BD 0A 01         A  5198    	CALL	_Zero
011C20 CD 37 15 01         A  5199    	CALL	_ORA
011C24 C9                  A  5200    	RET	
                           A  5201    
                           A  5202    
                           A  5203    ;**************************** _Opcode_0x05 ****
                           A  5204    ;Name                         Addr/Register   S
                           A  5205    
                           A  5206    
                           A  5207    ; Stack Frame Size: 6 (bytes)
                           A  5208    ;       Spill Code: 0 (instruction)
                           A  5209    
                           A  5210    
011C25                     A  5211    _Opcode_0x06:
011C25 CD BD 0A 01         A  5212    	CALL	_Zero
011C29 CD 75 15 01         A  5213    	CALL	_ASL
011C2D C9                  A  5214    	RET	
                           A  5215    
                           A  5216    
                           A  5217    ;**************************** _Opcode_0x06 ****
                           A  5218    ;Name                         Addr/Register   S
                           A  5219    
                           A  5220    
                           A  5221    ; Stack Frame Size: 6 (bytes)
                           A  5222    ;       Spill Code: 0 (instruction)
                           A  5223    
                           A  5224    
011C2E                     A  5225    _Opcode_0x09:
011C2E CD A7 0A 01         A  5226    	CALL	_Imm
011C32 CD 37 15 01         A  5227    	CALL	_ORA
011C36 C9                  A  5228    	RET	
                           A  5229    
                           A  5230    
                           A  5231    ;**************************** _Opcode_0x09 ****
                           A  5232    ;Name                         Addr/Register   S
                           A  5233    
                           A  5234    
                           A  5235    ; Stack Frame Size: 6 (bytes)
                           A  5236    ;       Spill Code: 0 (instruction)
                           A  5237    
                           A  5238    
011C37                     A  5239    _Opcode_0x0B:
011C37 CD A7 0A 01         A  5240    	CALL	_Imm
011C3B CD 18 15 01         A  5241    	CALL	_AND
011C3F C9                  A  5242    	RET	
Zilog eZ80 Macro Assembler Version 4.1 (10060805) RELISTED19-Sep-11     11:50:04     page: 102


PC     Object              I  Line    Source C:\DOCUME~1\_Enzo_\Desktop\Zapp\Debug\main.src
                           A  5243    
                           A  5244    
                           A  5245    ;**************************** _Opcode_0x0B ****
                           A  5246    ;Name                         Addr/Register   S
                           A  5247    
                           A  5248    
                           A  5249    ; Stack Frame Size: 6 (bytes)
                           A  5250    ;       Spill Code: 0 (instruction)
                           A  5251    
                           A  5252    
011C40                     A  5253    _Opcode_0x0D:
011C40 CD 3A 0B 01         A  5254    	CALL	_Abs
011C44 CD 37 15 01         A  5255    	CALL	_ORA
011C48 C9                  A  5256    	RET	
                           A  5257    
                           A  5258    
                           A  5259    ;**************************** _Opcode_0x0D ****
                           A  5260    ;Name                         Addr/Register   S
                           A  5261    
                           A  5262    
                           A  5263    ; Stack Frame Size: 6 (bytes)
                           A  5264    ;       Spill Code: 0 (instruction)
                           A  5265    
                           A  5266    
011C49                     A  5267    _Opcode_0x0E:
011C49 CD 3A 0B 01         A  5268    	CALL	_Abs
011C4D CD 75 15 01         A  5269    	CALL	_ASL
011C51 C9                  A  5270    	RET	
                           A  5271    
                           A  5272    
                           A  5273    ;**************************** _Opcode_0x0E ****
                           A  5274    ;Name                         Addr/Register   S
                           A  5275    
                           A  5276    
                           A  5277    ; Stack Frame Size: 6 (bytes)
                           A  5278    ;       Spill Code: 0 (instruction)
                           A  5279    
                           A  5280    
011C52                     A  5281    _Opcode_0x10:
011C52 CD 6A 0D 01         A  5282    	CALL	_Rel
011C56 CD 06 1B 01         A  5283    	CALL	_BPL
011C5A C9                  A  5284    	RET	
                           A  5285    
                           A  5286    
                           A  5287    ;**************************** _Opcode_0x10 ****
                           A  5288    ;Name                         Addr/Register   S
                           A  5289    
                           A  5290    
                           A  5291    ; Stack Frame Size: 6 (bytes)
                           A  5292    ;       Spill Code: 0 (instruction)
                           A  5293    
                           A  5294    
Zilog eZ80 Macro Assembler Version 4.1 (10060805) RELISTED19-Sep-11     11:50:04     page: 103


PC     Object              I  Line    Source C:\DOCUME~1\_Enzo_\Desktop\Zapp\Debug\main.src
011C5B                     A  5295    _Opcode_0x11:
011C5B CD 09 0D 01         A  5296    	CALL	_IndZeroY
011C5F CD 37 15 01         A  5297    	CALL	_ORA
011C63 C9                  A  5298    	RET	
                           A  5299    
                           A  5300    
                           A  5301    ;**************************** _Opcode_0x11 ****
                           A  5302    ;Name                         Addr/Register   S
                           A  5303    
                           A  5304    
                           A  5305    ; Stack Frame Size: 6 (bytes)
                           A  5306    ;       Spill Code: 0 (instruction)
                           A  5307    
                           A  5308    
011C64                     A  5309    _Opcode_0x15:
011C64 CD DC 0A 01         A  5310    	CALL	_ZeroX
011C68 CD 37 15 01         A  5311    	CALL	_ORA
011C6C C9                  A  5312    	RET	
                           A  5313    
                           A  5314    
                           A  5315    ;**************************** _Opcode_0x15 ****
                           A  5316    ;Name                         Addr/Register   S
                           A  5317    
                           A  5318    
                           A  5319    ; Stack Frame Size: 6 (bytes)
                           A  5320    ;       Spill Code: 0 (instruction)
                           A  5321    
                           A  5322    
011C6D                     A  5323    _Opcode_0x16:
011C6D CD DC 0A 01         A  5324    	CALL	_ZeroX
011C71 CD 75 15 01         A  5325    	CALL	_ASL
011C75 C9                  A  5326    	RET	
                           A  5327    
                           A  5328    
                           A  5329    ;**************************** _Opcode_0x16 ****
                           A  5330    ;Name                         Addr/Register   S
                           A  5331    
                           A  5332    
                           A  5333    ; Stack Frame Size: 6 (bytes)
                           A  5334    ;       Spill Code: 0 (instruction)
                           A  5335    
                           A  5336    
011C76                     A  5337    _Opcode_0x19:
011C76 CD B5 0B 01         A  5338    	CALL	_AbsY
011C7A CD 37 15 01         A  5339    	CALL	_ORA
011C7E C9                  A  5340    	RET	
                           A  5341    
                           A  5342    
                           A  5343    ;**************************** _Opcode_0x19 ****
                           A  5344    ;Name                         Addr/Register   S
                           A  5345    
                           A  5346    
Zilog eZ80 Macro Assembler Version 4.1 (10060805) RELISTED19-Sep-11     11:50:04     page: 104


PC     Object              I  Line    Source C:\DOCUME~1\_Enzo_\Desktop\Zapp\Debug\main.src
                           A  5347    ; Stack Frame Size: 6 (bytes)
                           A  5348    ;       Spill Code: 0 (instruction)
                           A  5349    
                           A  5350    
011C7F                     A  5351    _Opcode_0x1D:
011C7F CD 5D 0B 01         A  5352    	CALL	_AbsX
011C83 CD 37 15 01         A  5353    	CALL	_ORA
011C87 C9                  A  5354    	RET	
                           A  5355    
                           A  5356    
                           A  5357    ;**************************** _Opcode_0x1D ****
                           A  5358    ;Name                         Addr/Register   S
                           A  5359    
                           A  5360    
                           A  5361    ; Stack Frame Size: 6 (bytes)
                           A  5362    ;       Spill Code: 0 (instruction)
                           A  5363    
                           A  5364    
011C88                     A  5365    _Opcode_0x1E:
011C88 CD BC 0D 01         A  5366    	CALL	_WAbsX
011C8C CD 75 15 01         A  5367    	CALL	_ASL
011C90 C9                  A  5368    	RET	
                           A  5369    
                           A  5370    
                           A  5371    ;**************************** _Opcode_0x1E ****
                           A  5372    ;Name                         Addr/Register   S
                           A  5373    
                           A  5374    
                           A  5375    ; Stack Frame Size: 6 (bytes)
                           A  5376    ;       Spill Code: 0 (instruction)
                           A  5377    
                           A  5378    
011C91                     A  5379    _Opcode_0x21:
011C91 CD 98 0C 01         A  5380    	CALL	_IndZeroX
011C95 CD 18 15 01         A  5381    	CALL	_AND
011C99 C9                  A  5382    	RET	
                           A  5383    
                           A  5384    
                           A  5385    ;**************************** _Opcode_0x21 ****
                           A  5386    ;Name                         Addr/Register   S
                           A  5387    
                           A  5388    
                           A  5389    ; Stack Frame Size: 6 (bytes)
                           A  5390    ;       Spill Code: 0 (instruction)
                           A  5391    
                           A  5392    
011C9A                     A  5393    _Opcode_0x24:
011C9A CD BD 0A 01         A  5394    	CALL	_Zero
011C9E CD 23 19 01         A  5395    	CALL	_BIT
011CA2 C9                  A  5396    	RET	
                           A  5397    
                           A  5398    
Zilog eZ80 Macro Assembler Version 4.1 (10060805) RELISTED19-Sep-11     11:50:04     page: 105


PC     Object              I  Line    Source C:\DOCUME~1\_Enzo_\Desktop\Zapp\Debug\main.src
                           A  5399    ;**************************** _Opcode_0x24 ****
                           A  5400    ;Name                         Addr/Register   S
                           A  5401    
                           A  5402    
                           A  5403    ; Stack Frame Size: 6 (bytes)
                           A  5404    ;       Spill Code: 0 (instruction)
                           A  5405    
                           A  5406    
011CA3                     A  5407    _Opcode_0x25:
011CA3 CD BD 0A 01         A  5408    	CALL	_Zero
011CA7 CD 18 15 01         A  5409    	CALL	_AND
011CAB C9                  A  5410    	RET	
                           A  5411    
                           A  5412    
                           A  5413    ;**************************** _Opcode_0x25 ****
                           A  5414    ;Name                         Addr/Register   S
                           A  5415    
                           A  5416    
                           A  5417    ; Stack Frame Size: 6 (bytes)
                           A  5418    ;       Spill Code: 0 (instruction)
                           A  5419    
                           A  5420    
011CAC                     A  5421    _Opcode_0x26:
011CAC CD BD 0A 01         A  5422    	CALL	_Zero
011CB0 CD 88 16 01         A  5423    	CALL	_ROL
011CB4 C9                  A  5424    	RET	
                           A  5425    
                           A  5426    
                           A  5427    ;**************************** _Opcode_0x26 ****
                           A  5428    ;Name                         Addr/Register   S
                           A  5429    
                           A  5430    
                           A  5431    ; Stack Frame Size: 6 (bytes)
                           A  5432    ;       Spill Code: 0 (instruction)
                           A  5433    
                           A  5434    
011CB5                     A  5435    _Opcode_0x29:
011CB5 CD A7 0A 01         A  5436    	CALL	_Imm
011CB9 CD 18 15 01         A  5437    	CALL	_AND
011CBD C9                  A  5438    	RET	
                           A  5439    
                           A  5440    
                           A  5441    ;**************************** _Opcode_0x29 ****
                           A  5442    ;Name                         Addr/Register   S
                           A  5443    
                           A  5444    
                           A  5445    ; Stack Frame Size: 6 (bytes)
                           A  5446    ;       Spill Code: 0 (instruction)
                           A  5447    
                           A  5448    
011CBE                     A  5449    _Opcode_0x2C:
011CBE CD 3A 0B 01         A  5450    	CALL	_Abs
Zilog eZ80 Macro Assembler Version 4.1 (10060805) RELISTED19-Sep-11     11:50:04     page: 106


PC     Object              I  Line    Source C:\DOCUME~1\_Enzo_\Desktop\Zapp\Debug\main.src
011CC2 CD 23 19 01         A  5451    	CALL	_BIT
011CC6 C9                  A  5452    	RET	
                           A  5453    
                           A  5454    
                           A  5455    ;**************************** _Opcode_0x2C ****
                           A  5456    ;Name                         Addr/Register   S
                           A  5457    
                           A  5458    
                           A  5459    ; Stack Frame Size: 6 (bytes)
                           A  5460    ;       Spill Code: 0 (instruction)
                           A  5461    
                           A  5462    
011CC7                     A  5463    _Opcode_0x2D:
011CC7 CD 3A 0B 01         A  5464    	CALL	_Abs
011CCB CD 18 15 01         A  5465    	CALL	_AND
011CCF C9                  A  5466    	RET	
                           A  5467    
                           A  5468    
                           A  5469    ;**************************** _Opcode_0x2D ****
                           A  5470    ;Name                         Addr/Register   S
                           A  5471    
                           A  5472    
                           A  5473    ; Stack Frame Size: 6 (bytes)
                           A  5474    ;       Spill Code: 0 (instruction)
                           A  5475    
                           A  5476    
011CD0                     A  5477    _Opcode_0x2E:
011CD0 CD 3A 0B 01         A  5478    	CALL	_Abs
011CD4 CD 88 16 01         A  5479    	CALL	_ROL
011CD8 C9                  A  5480    	RET	
                           A  5481    
                           A  5482    
                           A  5483    ;**************************** _Opcode_0x2E ****
                           A  5484    ;Name                         Addr/Register   S
                           A  5485    
                           A  5486    
                           A  5487    ; Stack Frame Size: 6 (bytes)
                           A  5488    ;       Spill Code: 0 (instruction)
                           A  5489    
                           A  5490    
011CD9                     A  5491    _Opcode_0x30:
011CD9 CD 6A 0D 01         A  5492    	CALL	_Rel
011CDD CD 13 1B 01         A  5493    	CALL	_BMI
011CE1 C9                  A  5494    	RET	
                           A  5495    
                           A  5496    
                           A  5497    ;**************************** _Opcode_0x30 ****
                           A  5498    ;Name                         Addr/Register   S
                           A  5499    
                           A  5500    
                           A  5501    ; Stack Frame Size: 6 (bytes)
                           A  5502    ;       Spill Code: 0 (instruction)
Zilog eZ80 Macro Assembler Version 4.1 (10060805) RELISTED19-Sep-11     11:50:04     page: 107


PC     Object              I  Line    Source C:\DOCUME~1\_Enzo_\Desktop\Zapp\Debug\main.src
                           A  5503    
                           A  5504    
011CE2                     A  5505    _Opcode_0x31:
011CE2 CD 09 0D 01         A  5506    	CALL	_IndZeroY
011CE6 CD 18 15 01         A  5507    	CALL	_AND
011CEA C9                  A  5508    	RET	
                           A  5509    
                           A  5510    
                           A  5511    ;**************************** _Opcode_0x31 ****
                           A  5512    ;Name                         Addr/Register   S
                           A  5513    
                           A  5514    
                           A  5515    ; Stack Frame Size: 6 (bytes)
                           A  5516    ;       Spill Code: 0 (instruction)
                           A  5517    
                           A  5518    
011CEB                     A  5519    _Opcode_0x35:
011CEB CD DC 0A 01         A  5520    	CALL	_ZeroX
011CEF CD 18 15 01         A  5521    	CALL	_AND
011CF3 C9                  A  5522    	RET	
                           A  5523    
                           A  5524    
                           A  5525    ;**************************** _Opcode_0x35 ****
                           A  5526    ;Name                         Addr/Register   S
                           A  5527    
                           A  5528    
                           A  5529    ; Stack Frame Size: 6 (bytes)
                           A  5530    ;       Spill Code: 0 (instruction)
                           A  5531    
                           A  5532    
011CF4                     A  5533    _Opcode_0x36:
011CF4 CD DC 0A 01         A  5534    	CALL	_ZeroX
011CF8 CD 88 16 01         A  5535    	CALL	_ROL
011CFC C9                  A  5536    	RET	
                           A  5537    
                           A  5538    
                           A  5539    ;**************************** _Opcode_0x36 ****
                           A  5540    ;Name                         Addr/Register   S
                           A  5541    
                           A  5542    
                           A  5543    ; Stack Frame Size: 6 (bytes)
                           A  5544    ;       Spill Code: 0 (instruction)
                           A  5545    
                           A  5546    
011CFD                     A  5547    _Opcode_0x39:
011CFD CD B5 0B 01         A  5548    	CALL	_AbsY
011D01 CD 18 15 01         A  5549    	CALL	_AND
011D05 C9                  A  5550    	RET	
                           A  5551    
                           A  5552    
                           A  5553    ;**************************** _Opcode_0x39 ****
                           A  5554    ;Name                         Addr/Register   S
Zilog eZ80 Macro Assembler Version 4.1 (10060805) RELISTED19-Sep-11     11:50:04     page: 108


PC     Object              I  Line    Source C:\DOCUME~1\_Enzo_\Desktop\Zapp\Debug\main.src
                           A  5555    
                           A  5556    
                           A  5557    ; Stack Frame Size: 6 (bytes)
                           A  5558    ;       Spill Code: 0 (instruction)
                           A  5559    
                           A  5560    
011D06                     A  5561    _Opcode_0x3D:
011D06 CD 5D 0B 01         A  5562    	CALL	_AbsX
011D0A CD 18 15 01         A  5563    	CALL	_AND
011D0E C9                  A  5564    	RET	
                           A  5565    
                           A  5566    
                           A  5567    ;**************************** _Opcode_0x3D ****
                           A  5568    ;Name                         Addr/Register   S
                           A  5569    
                           A  5570    
                           A  5571    ; Stack Frame Size: 6 (bytes)
                           A  5572    ;       Spill Code: 0 (instruction)
                           A  5573    
                           A  5574    
011D0F                     A  5575    _Opcode_0x3E:
011D0F CD BC 0D 01         A  5576    	CALL	_WAbsX
011D13 CD 88 16 01         A  5577    	CALL	_ROL
011D17 C9                  A  5578    	RET	
                           A  5579    
                           A  5580    
                           A  5581    ;**************************** _Opcode_0x3E ****
                           A  5582    ;Name                         Addr/Register   S
                           A  5583    
                           A  5584    
                           A  5585    ; Stack Frame Size: 6 (bytes)
                           A  5586    ;       Spill Code: 0 (instruction)
                           A  5587    
                           A  5588    
011D18                     A  5589    _Opcode_0x3F:
011D18 C9                  A  5590    	RET	
                           A  5591    
                           A  5592    
                           A  5593    ;**************************** _Opcode_0x3F ****
                           A  5594    ;Name                         Addr/Register   S
                           A  5595    
                           A  5596    
                           A  5597    ; Stack Frame Size: 6 (bytes)
                           A  5598    ;       Spill Code: 0 (instruction)
                           A  5599    
                           A  5600    
011D19                     A  5601    _Opcode_0x41:
011D19 CD 98 0C 01         A  5602    	CALL	_IndZeroX
011D1D CD 56 15 01         A  5603    	CALL	_EOR
011D21 C9                  A  5604    	RET	
                           A  5605    
                           A  5606    
Zilog eZ80 Macro Assembler Version 4.1 (10060805) RELISTED19-Sep-11     11:50:04     page: 109


PC     Object              I  Line    Source C:\DOCUME~1\_Enzo_\Desktop\Zapp\Debug\main.src
                           A  5607    ;**************************** _Opcode_0x41 ****
                           A  5608    ;Name                         Addr/Register   S
                           A  5609    
                           A  5610    
                           A  5611    ; Stack Frame Size: 6 (bytes)
                           A  5612    ;       Spill Code: 0 (instruction)
                           A  5613    
                           A  5614    
011D22                     A  5615    _Opcode_0x45:
011D22 CD BD 0A 01         A  5616    	CALL	_Zero
011D26 CD 56 15 01         A  5617    	CALL	_EOR
011D2A C9                  A  5618    	RET	
                           A  5619    
                           A  5620    
                           A  5621    ;**************************** _Opcode_0x45 ****
                           A  5622    ;Name                         Addr/Register   S
                           A  5623    
                           A  5624    
                           A  5625    ; Stack Frame Size: 6 (bytes)
                           A  5626    ;       Spill Code: 0 (instruction)
                           A  5627    
                           A  5628    
011D2B                     A  5629    _Opcode_0x46:
011D2B CD BD 0A 01         A  5630    	CALL	_Zero
011D2F CD F3 15 01         A  5631    	CALL	_LSR
011D33 C9                  A  5632    	RET	
                           A  5633    
                           A  5634    
                           A  5635    ;**************************** _Opcode_0x46 ****
                           A  5636    ;Name                         Addr/Register   S
                           A  5637    
                           A  5638    
                           A  5639    ; Stack Frame Size: 6 (bytes)
                           A  5640    ;       Spill Code: 0 (instruction)
                           A  5641    
                           A  5642    
011D34                     A  5643    _Opcode_0x49:
011D34 CD A7 0A 01         A  5644    	CALL	_Imm
011D38 CD 56 15 01         A  5645    	CALL	_EOR
011D3C C9                  A  5646    	RET	
                           A  5647    
                           A  5648    
                           A  5649    ;**************************** _Opcode_0x49 ****
                           A  5650    ;Name                         Addr/Register   S
                           A  5651    
                           A  5652    
                           A  5653    ; Stack Frame Size: 6 (bytes)
                           A  5654    ;       Spill Code: 0 (instruction)
                           A  5655    
                           A  5656    
011D3D                     A  5657    _Opcode_0x4C:
011D3D CD 3A 0B 01         A  5658    	CALL	_Abs
Zilog eZ80 Macro Assembler Version 4.1 (10060805) RELISTED19-Sep-11     11:50:04     page: 110


PC     Object              I  Line    Source C:\DOCUME~1\_Enzo_\Desktop\Zapp\Debug\main.src
011D41 CD 50 1A 01         A  5659    	CALL	_JMP
011D45 C9                  A  5660    	RET	
                           A  5661    
                           A  5662    
                           A  5663    ;**************************** _Opcode_0x4C ****
                           A  5664    ;Name                         Addr/Register   S
                           A  5665    
                           A  5666    
                           A  5667    ; Stack Frame Size: 6 (bytes)
                           A  5668    ;       Spill Code: 0 (instruction)
                           A  5669    
                           A  5670    
011D46                     A  5671    _Opcode_0x4D:
011D46 CD 3A 0B 01         A  5672    	CALL	_Abs
011D4A CD 56 15 01         A  5673    	CALL	_EOR
011D4E C9                  A  5674    	RET	
                           A  5675    
                           A  5676    
                           A  5677    ;**************************** _Opcode_0x4D ****
                           A  5678    ;Name                         Addr/Register   S
                           A  5679    
                           A  5680    
                           A  5681    ; Stack Frame Size: 6 (bytes)
                           A  5682    ;       Spill Code: 0 (instruction)
                           A  5683    
                           A  5684    
011D4F                     A  5685    _Opcode_0x4E:
011D4F CD 3A 0B 01         A  5686    	CALL	_Abs
011D53 CD F3 15 01         A  5687    	CALL	_LSR
011D57 C9                  A  5688    	RET	
                           A  5689    
                           A  5690    
                           A  5691    ;**************************** _Opcode_0x4E ****
                           A  5692    ;Name                         Addr/Register   S
                           A  5693    
                           A  5694    
                           A  5695    ; Stack Frame Size: 6 (bytes)
                           A  5696    ;       Spill Code: 0 (instruction)
                           A  5697    
                           A  5698    
011D58                     A  5699    _Opcode_0x50:
011D58 CD 6A 0D 01         A  5700    	CALL	_Rel
011D5C CD D2 1A 01         A  5701    	CALL	_BVC
011D60 C9                  A  5702    	RET	
                           A  5703    
                           A  5704    
                           A  5705    ;**************************** _Opcode_0x50 ****
                           A  5706    ;Name                         Addr/Register   S
                           A  5707    
                           A  5708    
                           A  5709    ; Stack Frame Size: 6 (bytes)
                           A  5710    ;       Spill Code: 0 (instruction)
Zilog eZ80 Macro Assembler Version 4.1 (10060805) RELISTED19-Sep-11     11:50:04     page: 111


PC     Object              I  Line    Source C:\DOCUME~1\_Enzo_\Desktop\Zapp\Debug\main.src
                           A  5711    
                           A  5712    
011D61                     A  5713    _Opcode_0x51:
011D61 CD 09 0D 01         A  5714    	CALL	_IndZeroY
011D65 CD 56 15 01         A  5715    	CALL	_EOR
011D69 C9                  A  5716    	RET	
                           A  5717    
                           A  5718    
                           A  5719    ;**************************** _Opcode_0x51 ****
                           A  5720    ;Name                         Addr/Register   S
                           A  5721    
                           A  5722    
                           A  5723    ; Stack Frame Size: 6 (bytes)
                           A  5724    ;       Spill Code: 0 (instruction)
                           A  5725    
                           A  5726    
011D6A                     A  5727    _Opcode_0x55:
011D6A CD DC 0A 01         A  5728    	CALL	_ZeroX
011D6E CD 56 15 01         A  5729    	CALL	_EOR
011D72 C9                  A  5730    	RET	
                           A  5731    
                           A  5732    
                           A  5733    ;**************************** _Opcode_0x55 ****
                           A  5734    ;Name                         Addr/Register   S
                           A  5735    
                           A  5736    
                           A  5737    ; Stack Frame Size: 6 (bytes)
                           A  5738    ;       Spill Code: 0 (instruction)
                           A  5739    
                           A  5740    
011D73                     A  5741    _Opcode_0x56:
011D73 CD DC 0A 01         A  5742    	CALL	_ZeroX
011D77 CD F3 15 01         A  5743    	CALL	_LSR
011D7B C9                  A  5744    	RET	
                           A  5745    
                           A  5746    
                           A  5747    ;**************************** _Opcode_0x56 ****
                           A  5748    ;Name                         Addr/Register   S
                           A  5749    
                           A  5750    
                           A  5751    ; Stack Frame Size: 6 (bytes)
                           A  5752    ;       Spill Code: 0 (instruction)
                           A  5753    
                           A  5754    
011D7C                     A  5755    _Opcode_0x59:
011D7C CD B5 0B 01         A  5756    	CALL	_AbsY
011D80 CD 56 15 01         A  5757    	CALL	_EOR
011D84 C9                  A  5758    	RET	
                           A  5759    
                           A  5760    
                           A  5761    ;**************************** _Opcode_0x59 ****
                           A  5762    ;Name                         Addr/Register   S
Zilog eZ80 Macro Assembler Version 4.1 (10060805) RELISTED19-Sep-11     11:50:04     page: 112


PC     Object              I  Line    Source C:\DOCUME~1\_Enzo_\Desktop\Zapp\Debug\main.src
                           A  5763    
                           A  5764    
                           A  5765    ; Stack Frame Size: 6 (bytes)
                           A  5766    ;       Spill Code: 0 (instruction)
                           A  5767    
                           A  5768    
011D85                     A  5769    _Opcode_0x5D:
011D85 CD 5D 0B 01         A  5770    	CALL	_AbsX
011D89 CD 56 15 01         A  5771    	CALL	_EOR
011D8D C9                  A  5772    	RET	
                           A  5773    
                           A  5774    
                           A  5775    ;**************************** _Opcode_0x5D ****
                           A  5776    ;Name                         Addr/Register   S
                           A  5777    
                           A  5778    
                           A  5779    ; Stack Frame Size: 6 (bytes)
                           A  5780    ;       Spill Code: 0 (instruction)
                           A  5781    
                           A  5782    
011D8E                     A  5783    _Opcode_0x5E:
011D8E CD BC 0D 01         A  5784    	CALL	_WAbsX
011D92 CD F3 15 01         A  5785    	CALL	_LSR
011D96 C9                  A  5786    	RET	
                           A  5787    
                           A  5788    
                           A  5789    ;**************************** _Opcode_0x5E ****
                           A  5790    ;Name                         Addr/Register   S
                           A  5791    
                           A  5792    
                           A  5793    ; Stack Frame Size: 6 (bytes)
                           A  5794    ;       Spill Code: 0 (instruction)
                           A  5795    
                           A  5796    
011D97                     A  5797    _Opcode_0x61:
011D97 CD 98 0C 01         A  5798    	CALL	_IndZeroX
011D9B CD CE 0F 01         A  5799    	CALL	_ADC
011D9F C9                  A  5800    	RET	
                           A  5801    
                           A  5802    
                           A  5803    ;**************************** _Opcode_0x61 ****
                           A  5804    ;Name                         Addr/Register   S
                           A  5805    
                           A  5806    
                           A  5807    ; Stack Frame Size: 6 (bytes)
                           A  5808    ;       Spill Code: 0 (instruction)
                           A  5809    
                           A  5810    
011DA0                     A  5811    _Opcode_0x65:
011DA0 CD BD 0A 01         A  5812    	CALL	_Zero
011DA4 CD CE 0F 01         A  5813    	CALL	_ADC
011DA8 C9                  A  5814    	RET	
Zilog eZ80 Macro Assembler Version 4.1 (10060805) RELISTED19-Sep-11     11:50:04     page: 113


PC     Object              I  Line    Source C:\DOCUME~1\_Enzo_\Desktop\Zapp\Debug\main.src
                           A  5815    
                           A  5816    
                           A  5817    ;**************************** _Opcode_0x65 ****
                           A  5818    ;Name                         Addr/Register   S
                           A  5819    
                           A  5820    
                           A  5821    ; Stack Frame Size: 6 (bytes)
                           A  5822    ;       Spill Code: 0 (instruction)
                           A  5823    
                           A  5824    
011DA9                     A  5825    _Opcode_0x66:
011DA9 CD BD 0A 01         A  5826    	CALL	_Zero
011DAD CD 6E 17 01         A  5827    	CALL	_ROR
011DB1 C9                  A  5828    	RET	
                           A  5829    
                           A  5830    
                           A  5831    ;**************************** _Opcode_0x66 ****
                           A  5832    ;Name                         Addr/Register   S
                           A  5833    
                           A  5834    
                           A  5835    ; Stack Frame Size: 6 (bytes)
                           A  5836    ;       Spill Code: 0 (instruction)
                           A  5837    
                           A  5838    
011DB2                     A  5839    _Opcode_0x69:
011DB2 CD A7 0A 01         A  5840    	CALL	_Imm
011DB6 CD CE 0F 01         A  5841    	CALL	_ADC
011DBA C9                  A  5842    	RET	
                           A  5843    
                           A  5844    
                           A  5845    ;**************************** _Opcode_0x69 ****
                           A  5846    ;Name                         Addr/Register   S
                           A  5847    
                           A  5848    
                           A  5849    ; Stack Frame Size: 6 (bytes)
                           A  5850    ;       Spill Code: 0 (instruction)
                           A  5851    
                           A  5852    
011DBB                     A  5853    _Opcode_0x6C:
011DBB CD 0D 0C 01         A  5854    	CALL	_Ind
011DBF CD 50 1A 01         A  5855    	CALL	_JMP
011DC3 C9                  A  5856    	RET	
                           A  5857    
                           A  5858    
                           A  5859    ;**************************** _Opcode_0x6C ****
                           A  5860    ;Name                         Addr/Register   S
                           A  5861    
                           A  5862    
                           A  5863    ; Stack Frame Size: 6 (bytes)
                           A  5864    ;       Spill Code: 0 (instruction)
                           A  5865    
                           A  5866    
Zilog eZ80 Macro Assembler Version 4.1 (10060805) RELISTED19-Sep-11     11:50:04     page: 114


PC     Object              I  Line    Source C:\DOCUME~1\_Enzo_\Desktop\Zapp\Debug\main.src
011DC4                     A  5867    _Opcode_0x6D:
011DC4 CD 3A 0B 01         A  5868    	CALL	_Abs
011DC8 CD CE 0F 01         A  5869    	CALL	_ADC
011DCC C9                  A  5870    	RET	
                           A  5871    
                           A  5872    
                           A  5873    ;**************************** _Opcode_0x6D ****
                           A  5874    ;Name                         Addr/Register   S
                           A  5875    
                           A  5876    
                           A  5877    ; Stack Frame Size: 6 (bytes)
                           A  5878    ;       Spill Code: 0 (instruction)
                           A  5879    
                           A  5880    
011DCD                     A  5881    _Opcode_0x6E:
011DCD CD 3A 0B 01         A  5882    	CALL	_Abs
011DD1 CD 6E 17 01         A  5883    	CALL	_ROR
011DD5 C9                  A  5884    	RET	
                           A  5885    
                           A  5886    
                           A  5887    ;**************************** _Opcode_0x6E ****
                           A  5888    ;Name                         Addr/Register   S
                           A  5889    
                           A  5890    
                           A  5891    ; Stack Frame Size: 6 (bytes)
                           A  5892    ;       Spill Code: 0 (instruction)
                           A  5893    
                           A  5894    
011DD6                     A  5895    _Opcode_0x70:
011DD6 CD 6A 0D 01         A  5896    	CALL	_Rel
011DDA CD DF 1A 01         A  5897    	CALL	_BVS
011DDE C9                  A  5898    	RET	
                           A  5899    
                           A  5900    
                           A  5901    ;**************************** _Opcode_0x70 ****
                           A  5902    ;Name                         Addr/Register   S
                           A  5903    
                           A  5904    
                           A  5905    ; Stack Frame Size: 6 (bytes)
                           A  5906    ;       Spill Code: 0 (instruction)
                           A  5907    
                           A  5908    
011DDF                     A  5909    _Opcode_0x71:
011DDF CD 09 0D 01         A  5910    	CALL	_IndZeroY
011DE3 CD CE 0F 01         A  5911    	CALL	_ADC
011DE7 C9                  A  5912    	RET	
                           A  5913    
                           A  5914    
                           A  5915    ;**************************** _Opcode_0x71 ****
                           A  5916    ;Name                         Addr/Register   S
                           A  5917    
                           A  5918    
Zilog eZ80 Macro Assembler Version 4.1 (10060805) RELISTED19-Sep-11     11:50:04     page: 115


PC     Object              I  Line    Source C:\DOCUME~1\_Enzo_\Desktop\Zapp\Debug\main.src
                           A  5919    ; Stack Frame Size: 6 (bytes)
                           A  5920    ;       Spill Code: 0 (instruction)
                           A  5921    
                           A  5922    
011DE8                     A  5923    _Opcode_0x75:
011DE8 CD DC 0A 01         A  5924    	CALL	_ZeroX
011DEC CD CE 0F 01         A  5925    	CALL	_ADC
011DF0 C9                  A  5926    	RET	
                           A  5927    
                           A  5928    
                           A  5929    ;**************************** _Opcode_0x75 ****
                           A  5930    ;Name                         Addr/Register   S
                           A  5931    
                           A  5932    
                           A  5933    ; Stack Frame Size: 6 (bytes)
                           A  5934    ;       Spill Code: 0 (instruction)
                           A  5935    
                           A  5936    
011DF1                     A  5937    _Opcode_0x76:
011DF1 CD DC 0A 01         A  5938    	CALL	_ZeroX
011DF5 CD 6E 17 01         A  5939    	CALL	_ROR
011DF9 C9                  A  5940    	RET	
                           A  5941    
                           A  5942    
                           A  5943    ;**************************** _Opcode_0x76 ****
                           A  5944    ;Name                         Addr/Register   S
                           A  5945    
                           A  5946    
                           A  5947    ; Stack Frame Size: 6 (bytes)
                           A  5948    ;       Spill Code: 0 (instruction)
                           A  5949    
                           A  5950    
011DFA                     A  5951    _Opcode_0x79:
011DFA CD B5 0B 01         A  5952    	CALL	_AbsY
011DFE CD CE 0F 01         A  5953    	CALL	_ADC
011E02 C9                  A  5954    	RET	
                           A  5955    
                           A  5956    
                           A  5957    ;**************************** _Opcode_0x79 ****
                           A  5958    ;Name                         Addr/Register   S
                           A  5959    
                           A  5960    
                           A  5961    ; Stack Frame Size: 6 (bytes)
                           A  5962    ;       Spill Code: 0 (instruction)
                           A  5963    
                           A  5964    
011E03                     A  5965    _Opcode_0x7D:
011E03 CD 5D 0B 01         A  5966    	CALL	_AbsX
011E07 CD CE 0F 01         A  5967    	CALL	_ADC
011E0B C9                  A  5968    	RET	
                           A  5969    
                           A  5970    
Zilog eZ80 Macro Assembler Version 4.1 (10060805) RELISTED19-Sep-11     11:50:04     page: 116


PC     Object              I  Line    Source C:\DOCUME~1\_Enzo_\Desktop\Zapp\Debug\main.src
                           A  5971    ;**************************** _Opcode_0x7D ****
                           A  5972    ;Name                         Addr/Register   S
                           A  5973    
                           A  5974    
                           A  5975    ; Stack Frame Size: 6 (bytes)
                           A  5976    ;       Spill Code: 0 (instruction)
                           A  5977    
                           A  5978    
011E0C                     A  5979    _Opcode_0x7E:
011E0C CD BC 0D 01         A  5980    	CALL	_WAbsX
011E10 CD 6E 17 01         A  5981    	CALL	_ROR
011E14 C9                  A  5982    	RET	
                           A  5983    
                           A  5984    
                           A  5985    ;**************************** _Opcode_0x7E ****
                           A  5986    ;Name                         Addr/Register   S
                           A  5987    
                           A  5988    
                           A  5989    ; Stack Frame Size: 6 (bytes)
                           A  5990    ;       Spill Code: 0 (instruction)
                           A  5991    
                           A  5992    
011E15                     A  5993    _Opcode_0x81:
011E15 CD 98 0C 01         A  5994    	CALL	_IndZeroX
011E19 CD 5C 0F 01         A  5995    	CALL	_STA
011E1D C9                  A  5996    	RET	
                           A  5997    
                           A  5998    
                           A  5999    ;**************************** _Opcode_0x81 ****
                           A  6000    ;Name                         Addr/Register   S
                           A  6001    
                           A  6002    
                           A  6003    ; Stack Frame Size: 6 (bytes)
                           A  6004    ;       Spill Code: 0 (instruction)
                           A  6005    
                           A  6006    
011E1E                     A  6007    _Opcode_0x84:
011E1E CD BD 0A 01         A  6008    	CALL	_Zero
011E22 CD 86 0F 01         A  6009    	CALL	_STY
011E26 C9                  A  6010    	RET	
                           A  6011    
                           A  6012    
                           A  6013    ;**************************** _Opcode_0x84 ****
                           A  6014    ;Name                         Addr/Register   S
                           A  6015    
                           A  6016    
                           A  6017    ; Stack Frame Size: 6 (bytes)
                           A  6018    ;       Spill Code: 0 (instruction)
                           A  6019    
                           A  6020    
011E27                     A  6021    _Opcode_0x85:
011E27 CD BD 0A 01         A  6022    	CALL	_Zero
Zilog eZ80 Macro Assembler Version 4.1 (10060805) RELISTED19-Sep-11     11:50:04     page: 117


PC     Object              I  Line    Source C:\DOCUME~1\_Enzo_\Desktop\Zapp\Debug\main.src
011E2B CD 5C 0F 01         A  6023    	CALL	_STA
011E2F C9                  A  6024    	RET	
                           A  6025    
                           A  6026    
                           A  6027    ;**************************** _Opcode_0x85 ****
                           A  6028    ;Name                         Addr/Register   S
                           A  6029    
                           A  6030    
                           A  6031    ; Stack Frame Size: 6 (bytes)
                           A  6032    ;       Spill Code: 0 (instruction)
                           A  6033    
                           A  6034    
011E30                     A  6035    _Opcode_0x86:
011E30 CD BD 0A 01         A  6036    	CALL	_Zero
011E34 CD 71 0F 01         A  6037    	CALL	_STX
011E38 C9                  A  6038    	RET	
                           A  6039    
                           A  6040    
                           A  6041    ;**************************** _Opcode_0x86 ****
                           A  6042    ;Name                         Addr/Register   S
                           A  6043    
                           A  6044    
                           A  6045    ; Stack Frame Size: 6 (bytes)
                           A  6046    ;       Spill Code: 0 (instruction)
                           A  6047    
                           A  6048    
011E39                     A  6049    _Opcode_0x8C:
011E39 CD 3A 0B 01         A  6050    	CALL	_Abs
011E3D CD 86 0F 01         A  6051    	CALL	_STY
011E41 C9                  A  6052    	RET	
                           A  6053    
                           A  6054    
                           A  6055    ;**************************** _Opcode_0x8C ****
                           A  6056    ;Name                         Addr/Register   S
                           A  6057    
                           A  6058    
                           A  6059    ; Stack Frame Size: 6 (bytes)
                           A  6060    ;       Spill Code: 0 (instruction)
                           A  6061    
                           A  6062    
011E42                     A  6063    _Opcode_0x8D:
011E42 CD 3A 0B 01         A  6064    	CALL	_Abs
011E46 CD 5C 0F 01         A  6065    	CALL	_STA
011E4A C9                  A  6066    	RET	
                           A  6067    
                           A  6068    
                           A  6069    ;**************************** _Opcode_0x8D ****
                           A  6070    ;Name                         Addr/Register   S
                           A  6071    
                           A  6072    
                           A  6073    ; Stack Frame Size: 6 (bytes)
                           A  6074    ;       Spill Code: 0 (instruction)
Zilog eZ80 Macro Assembler Version 4.1 (10060805) RELISTED19-Sep-11     11:50:04     page: 118


PC     Object              I  Line    Source C:\DOCUME~1\_Enzo_\Desktop\Zapp\Debug\main.src
                           A  6075    
                           A  6076    
011E4B                     A  6077    _Opcode_0x8E:
011E4B CD 3A 0B 01         A  6078    	CALL	_Abs
011E4F CD 71 0F 01         A  6079    	CALL	_STX
011E53 C9                  A  6080    	RET	
                           A  6081    
                           A  6082    
                           A  6083    ;**************************** _Opcode_0x8E ****
                           A  6084    ;Name                         Addr/Register   S
                           A  6085    
                           A  6086    
                           A  6087    ; Stack Frame Size: 6 (bytes)
                           A  6088    ;       Spill Code: 0 (instruction)
                           A  6089    
                           A  6090    
011E54                     A  6091    _Opcode_0x90:
011E54 CD 6A 0D 01         A  6092    	CALL	_Rel
011E58 CD EC 1A 01         A  6093    	CALL	_BCC
011E5C C9                  A  6094    	RET	
                           A  6095    
                           A  6096    
                           A  6097    ;**************************** _Opcode_0x90 ****
                           A  6098    ;Name                         Addr/Register   S
                           A  6099    
                           A  6100    
                           A  6101    ; Stack Frame Size: 6 (bytes)
                           A  6102    ;       Spill Code: 0 (instruction)
                           A  6103    
                           A  6104    
011E5D                     A  6105    _Opcode_0x91:
011E5D CD 6C 0E 01         A  6106    	CALL	_WIndZeroY
011E61 CD 5C 0F 01         A  6107    	CALL	_STA
011E65 C9                  A  6108    	RET	
                           A  6109    
                           A  6110    
                           A  6111    ;**************************** _Opcode_0x91 ****
                           A  6112    ;Name                         Addr/Register   S
                           A  6113    
                           A  6114    
                           A  6115    ; Stack Frame Size: 6 (bytes)
                           A  6116    ;       Spill Code: 0 (instruction)
                           A  6117    
                           A  6118    
011E66                     A  6119    _Opcode_0x94:
011E66 CD DC 0A 01         A  6120    	CALL	_ZeroX
011E6A CD 86 0F 01         A  6121    	CALL	_STY
011E6E C9                  A  6122    	RET	
                           A  6123    
                           A  6124    
                           A  6125    ;**************************** _Opcode_0x94 ****
                           A  6126    ;Name                         Addr/Register   S
Zilog eZ80 Macro Assembler Version 4.1 (10060805) RELISTED19-Sep-11     11:50:04     page: 119


PC     Object              I  Line    Source C:\DOCUME~1\_Enzo_\Desktop\Zapp\Debug\main.src
                           A  6127    
                           A  6128    
                           A  6129    ; Stack Frame Size: 6 (bytes)
                           A  6130    ;       Spill Code: 0 (instruction)
                           A  6131    
                           A  6132    
011E6F                     A  6133    _Opcode_0x95:
011E6F CD DC 0A 01         A  6134    	CALL	_ZeroX
011E73 CD 5C 0F 01         A  6135    	CALL	_STA
011E77 C9                  A  6136    	RET	
                           A  6137    
                           A  6138    
                           A  6139    ;**************************** _Opcode_0x95 ****
                           A  6140    ;Name                         Addr/Register   S
                           A  6141    
                           A  6142    
                           A  6143    ; Stack Frame Size: 6 (bytes)
                           A  6144    ;       Spill Code: 0 (instruction)
                           A  6145    
                           A  6146    
011E78                     A  6147    _Opcode_0x96:
011E78 CD 0B 0B 01         A  6148    	CALL	_ZeroY
011E7C CD 71 0F 01         A  6149    	CALL	_STX
011E80 C9                  A  6150    	RET	
                           A  6151    
                           A  6152    
                           A  6153    ;**************************** _Opcode_0x96 ****
                           A  6154    ;Name                         Addr/Register   S
                           A  6155    
                           A  6156    
                           A  6157    ; Stack Frame Size: 6 (bytes)
                           A  6158    ;       Spill Code: 0 (instruction)
                           A  6159    
                           A  6160    
011E81                     A  6161    _Opcode_0x99:
011E81 CD 14 0E 01         A  6162    	CALL	_WAbsY
011E85 CD 5C 0F 01         A  6163    	CALL	_STA
011E89 C9                  A  6164    	RET	
                           A  6165    
                           A  6166    
                           A  6167    ;**************************** _Opcode_0x99 ****
                           A  6168    ;Name                         Addr/Register   S
                           A  6169    
                           A  6170    
                           A  6171    ; Stack Frame Size: 6 (bytes)
                           A  6172    ;       Spill Code: 0 (instruction)
                           A  6173    
                           A  6174    
011E8A                     A  6175    _Opcode_0x9D:
011E8A CD BC 0D 01         A  6176    	CALL	_WAbsX
011E8E CD 5C 0F 01         A  6177    	CALL	_STA
011E92 C9                  A  6178    	RET	
Zilog eZ80 Macro Assembler Version 4.1 (10060805) RELISTED19-Sep-11     11:50:04     page: 120


PC     Object              I  Line    Source C:\DOCUME~1\_Enzo_\Desktop\Zapp\Debug\main.src
                           A  6179    
                           A  6180    
                           A  6181    ;**************************** _Opcode_0x9D ****
                           A  6182    ;Name                         Addr/Register   S
                           A  6183    
                           A  6184    
                           A  6185    ; Stack Frame Size: 6 (bytes)
                           A  6186    ;       Spill Code: 0 (instruction)
                           A  6187    
                           A  6188    
011E93                     A  6189    _Opcode_0xA0:
011E93 CD A7 0A 01         A  6190    	CALL	_Imm
011E97 CD 43 0F 01         A  6191    	CALL	_LDY
011E9B C9                  A  6192    	RET	
                           A  6193    
                           A  6194    
                           A  6195    ;**************************** _Opcode_0xA0 ****
                           A  6196    ;Name                         Addr/Register   S
                           A  6197    
                           A  6198    
                           A  6199    ; Stack Frame Size: 6 (bytes)
                           A  6200    ;       Spill Code: 0 (instruction)
                           A  6201    
                           A  6202    
011E9C                     A  6203    _Opcode_0xA1:
011E9C CD 98 0C 01         A  6204    	CALL	_IndZeroX
011EA0 CD 11 0F 01         A  6205    	CALL	_LDA
011EA4 C9                  A  6206    	RET	
                           A  6207    
                           A  6208    
                           A  6209    ;**************************** _Opcode_0xA1 ****
                           A  6210    ;Name                         Addr/Register   S
                           A  6211    
                           A  6212    
                           A  6213    ; Stack Frame Size: 6 (bytes)
                           A  6214    ;       Spill Code: 0 (instruction)
                           A  6215    
                           A  6216    
011EA5                     A  6217    _Opcode_0xA2:
011EA5 CD A7 0A 01         A  6218    	CALL	_Imm
011EA9 CD 2A 0F 01         A  6219    	CALL	_LDX
011EAD C9                  A  6220    	RET	
                           A  6221    
                           A  6222    
                           A  6223    ;**************************** _Opcode_0xA2 ****
                           A  6224    ;Name                         Addr/Register   S
                           A  6225    
                           A  6226    
                           A  6227    ; Stack Frame Size: 6 (bytes)
                           A  6228    ;       Spill Code: 0 (instruction)
                           A  6229    
                           A  6230    
Zilog eZ80 Macro Assembler Version 4.1 (10060805) RELISTED19-Sep-11     11:50:04     page: 121


PC     Object              I  Line    Source C:\DOCUME~1\_Enzo_\Desktop\Zapp\Debug\main.src
011EAE                     A  6231    _Opcode_0xA4:
011EAE CD BD 0A 01         A  6232    	CALL	_Zero
011EB2 CD 43 0F 01         A  6233    	CALL	_LDY
011EB6 C9                  A  6234    	RET	
                           A  6235    
                           A  6236    
                           A  6237    ;**************************** _Opcode_0xA4 ****
                           A  6238    ;Name                         Addr/Register   S
                           A  6239    
                           A  6240    
                           A  6241    ; Stack Frame Size: 6 (bytes)
                           A  6242    ;       Spill Code: 0 (instruction)
                           A  6243    
                           A  6244    
011EB7                     A  6245    _Opcode_0xA5:
011EB7 CD BD 0A 01         A  6246    	CALL	_Zero
011EBB CD 11 0F 01         A  6247    	CALL	_LDA
011EBF C9                  A  6248    	RET	
                           A  6249    
                           A  6250    
                           A  6251    ;**************************** _Opcode_0xA5 ****
                           A  6252    ;Name                         Addr/Register   S
                           A  6253    
                           A  6254    
                           A  6255    ; Stack Frame Size: 6 (bytes)
                           A  6256    ;       Spill Code: 0 (instruction)
                           A  6257    
                           A  6258    
011EC0                     A  6259    _Opcode_0xA6:
011EC0 CD BD 0A 01         A  6260    	CALL	_Zero
011EC4 CD 2A 0F 01         A  6261    	CALL	_LDX
011EC8 C9                  A  6262    	RET	
                           A  6263    
                           A  6264    
                           A  6265    ;**************************** _Opcode_0xA6 ****
                           A  6266    ;Name                         Addr/Register   S
                           A  6267    
                           A  6268    
                           A  6269    ; Stack Frame Size: 6 (bytes)
                           A  6270    ;       Spill Code: 0 (instruction)
                           A  6271    
                           A  6272    
011EC9                     A  6273    _Opcode_0xA9:
011EC9 CD A7 0A 01         A  6274    	CALL	_Imm
011ECD CD 11 0F 01         A  6275    	CALL	_LDA
011ED1 C9                  A  6276    	RET	
                           A  6277    
                           A  6278    
                           A  6279    ;**************************** _Opcode_0xA9 ****
                           A  6280    ;Name                         Addr/Register   S
                           A  6281    
                           A  6282    
Zilog eZ80 Macro Assembler Version 4.1 (10060805) RELISTED19-Sep-11     11:50:04     page: 122


PC     Object              I  Line    Source C:\DOCUME~1\_Enzo_\Desktop\Zapp\Debug\main.src
                           A  6283    ; Stack Frame Size: 6 (bytes)
                           A  6284    ;       Spill Code: 0 (instruction)
                           A  6285    
                           A  6286    
011ED2                     A  6287    _Opcode_0xAC:
011ED2 CD 3A 0B 01         A  6288    	CALL	_Abs
011ED6 CD 43 0F 01         A  6289    	CALL	_LDY
011EDA C9                  A  6290    	RET	
                           A  6291    
                           A  6292    
                           A  6293    ;**************************** _Opcode_0xAC ****
                           A  6294    ;Name                         Addr/Register   S
                           A  6295    
                           A  6296    
                           A  6297    ; Stack Frame Size: 6 (bytes)
                           A  6298    ;       Spill Code: 0 (instruction)
                           A  6299    
                           A  6300    
011EDB                     A  6301    _Opcode_0xAD:
011EDB CD 3A 0B 01         A  6302    	CALL	_Abs
011EDF CD 11 0F 01         A  6303    	CALL	_LDA
011EE3 C9                  A  6304    	RET	
                           A  6305    
                           A  6306    
                           A  6307    ;**************************** _Opcode_0xAD ****
                           A  6308    ;Name                         Addr/Register   S
                           A  6309    
                           A  6310    
                           A  6311    ; Stack Frame Size: 6 (bytes)
                           A  6312    ;       Spill Code: 0 (instruction)
                           A  6313    
                           A  6314    
011EE4                     A  6315    _Opcode_0xAE:
011EE4 CD 3A 0B 01         A  6316    	CALL	_Abs
011EE8 CD 2A 0F 01         A  6317    	CALL	_LDX
011EEC C9                  A  6318    	RET	
                           A  6319    
                           A  6320    
                           A  6321    ;**************************** _Opcode_0xAE ****
                           A  6322    ;Name                         Addr/Register   S
                           A  6323    
                           A  6324    
                           A  6325    ; Stack Frame Size: 6 (bytes)
                           A  6326    ;       Spill Code: 0 (instruction)
                           A  6327    
                           A  6328    
011EED                     A  6329    _Opcode_0xB0:
011EED CD 6A 0D 01         A  6330    	CALL	_Rel
011EF1 CD F9 1A 01         A  6331    	CALL	_BCS
011EF5 C9                  A  6332    	RET	
                           A  6333    
                           A  6334    
Zilog eZ80 Macro Assembler Version 4.1 (10060805) RELISTED19-Sep-11     11:50:04     page: 123


PC     Object              I  Line    Source C:\DOCUME~1\_Enzo_\Desktop\Zapp\Debug\main.src
                           A  6335    ;**************************** _Opcode_0xB0 ****
                           A  6336    ;Name                         Addr/Register   S
                           A  6337    
                           A  6338    
                           A  6339    ; Stack Frame Size: 6 (bytes)
                           A  6340    ;       Spill Code: 0 (instruction)
                           A  6341    
                           A  6342    
011EF6                     A  6343    _Opcode_0xB1:
011EF6 CD 09 0D 01         A  6344    	CALL	_IndZeroY
011EFA CD 11 0F 01         A  6345    	CALL	_LDA
011EFE C9                  A  6346    	RET	
                           A  6347    
                           A  6348    
                           A  6349    ;**************************** _Opcode_0xB1 ****
                           A  6350    ;Name                         Addr/Register   S
                           A  6351    
                           A  6352    
                           A  6353    ; Stack Frame Size: 6 (bytes)
                           A  6354    ;       Spill Code: 0 (instruction)
                           A  6355    
                           A  6356    
011EFF                     A  6357    _Opcode_0xB4:
011EFF CD DC 0A 01         A  6358    	CALL	_ZeroX
011F03 CD 43 0F 01         A  6359    	CALL	_LDY
011F07 C9                  A  6360    	RET	
                           A  6361    
                           A  6362    
                           A  6363    ;**************************** _Opcode_0xB4 ****
                           A  6364    ;Name                         Addr/Register   S
                           A  6365    
                           A  6366    
                           A  6367    ; Stack Frame Size: 6 (bytes)
                           A  6368    ;       Spill Code: 0 (instruction)
                           A  6369    
                           A  6370    
011F08                     A  6371    _Opcode_0xB5:
011F08 CD DC 0A 01         A  6372    	CALL	_ZeroX
011F0C CD 11 0F 01         A  6373    	CALL	_LDA
011F10 C9                  A  6374    	RET	
                           A  6375    
                           A  6376    
                           A  6377    ;**************************** _Opcode_0xB5 ****
                           A  6378    ;Name                         Addr/Register   S
                           A  6379    
                           A  6380    
                           A  6381    ; Stack Frame Size: 6 (bytes)
                           A  6382    ;       Spill Code: 0 (instruction)
                           A  6383    
                           A  6384    
011F11                     A  6385    _Opcode_0xB6:
011F11 CD 0B 0B 01         A  6386    	CALL	_ZeroY
Zilog eZ80 Macro Assembler Version 4.1 (10060805) RELISTED19-Sep-11     11:50:04     page: 124


PC     Object              I  Line    Source C:\DOCUME~1\_Enzo_\Desktop\Zapp\Debug\main.src
011F15 CD 2A 0F 01         A  6387    	CALL	_LDX
011F19 C9                  A  6388    	RET	
                           A  6389    
                           A  6390    
                           A  6391    ;**************************** _Opcode_0xB6 ****
                           A  6392    ;Name                         Addr/Register   S
                           A  6393    
                           A  6394    
                           A  6395    ; Stack Frame Size: 6 (bytes)
                           A  6396    ;       Spill Code: 0 (instruction)
                           A  6397    
                           A  6398    
011F1A                     A  6399    _Opcode_0xB9:
011F1A CD B5 0B 01         A  6400    	CALL	_AbsY
011F1E CD 11 0F 01         A  6401    	CALL	_LDA
011F22 C9                  A  6402    	RET	
                           A  6403    
                           A  6404    
                           A  6405    ;**************************** _Opcode_0xB9 ****
                           A  6406    ;Name                         Addr/Register   S
                           A  6407    
                           A  6408    
                           A  6409    ; Stack Frame Size: 6 (bytes)
                           A  6410    ;       Spill Code: 0 (instruction)
                           A  6411    
                           A  6412    
011F23                     A  6413    _Opcode_0xBC:
011F23 CD 5D 0B 01         A  6414    	CALL	_AbsX
011F27 CD 43 0F 01         A  6415    	CALL	_LDY
011F2B C9                  A  6416    	RET	
                           A  6417    
                           A  6418    
                           A  6419    ;**************************** _Opcode_0xBC ****
                           A  6420    ;Name                         Addr/Register   S
                           A  6421    
                           A  6422    
                           A  6423    ; Stack Frame Size: 6 (bytes)
                           A  6424    ;       Spill Code: 0 (instruction)
                           A  6425    
                           A  6426    
011F2C                     A  6427    _Opcode_0xBD:
011F2C CD 5D 0B 01         A  6428    	CALL	_AbsX
011F30 CD 11 0F 01         A  6429    	CALL	_LDA
011F34 C9                  A  6430    	RET	
                           A  6431    
                           A  6432    
                           A  6433    ;**************************** _Opcode_0xBD ****
                           A  6434    ;Name                         Addr/Register   S
                           A  6435    
                           A  6436    
                           A  6437    ; Stack Frame Size: 6 (bytes)
                           A  6438    ;       Spill Code: 0 (instruction)
Zilog eZ80 Macro Assembler Version 4.1 (10060805) RELISTED19-Sep-11     11:50:04     page: 125


PC     Object              I  Line    Source C:\DOCUME~1\_Enzo_\Desktop\Zapp\Debug\main.src
                           A  6439    
                           A  6440    
011F35                     A  6441    _Opcode_0xBE:
011F35 CD B5 0B 01         A  6442    	CALL	_AbsY
011F39 CD 2A 0F 01         A  6443    	CALL	_LDX
011F3D C9                  A  6444    	RET	
                           A  6445    
                           A  6446    
                           A  6447    ;**************************** _Opcode_0xBE ****
                           A  6448    ;Name                         Addr/Register   S
                           A  6449    
                           A  6450    
                           A  6451    ; Stack Frame Size: 6 (bytes)
                           A  6452    ;       Spill Code: 0 (instruction)
                           A  6453    
                           A  6454    
011F3E                     A  6455    _Opcode_0xC0:
011F3E CD A7 0A 01         A  6456    	CALL	_Imm
011F42 CD C9 14 01         A  6457    	CALL	_CPY
011F46 C9                  A  6458    	RET	
                           A  6459    
                           A  6460    
                           A  6461    ;**************************** _Opcode_0xC0 ****
                           A  6462    ;Name                         Addr/Register   S
                           A  6463    
                           A  6464    
                           A  6465    ; Stack Frame Size: 6 (bytes)
                           A  6466    ;       Spill Code: 0 (instruction)
                           A  6467    
                           A  6468    
011F47                     A  6469    _Opcode_0xC1:
011F47 CD 98 0C 01         A  6470    	CALL	_IndZeroX
011F4B CD 2B 14 01         A  6471    	CALL	_CMP
011F4F C9                  A  6472    	RET	
                           A  6473    
                           A  6474    
                           A  6475    ;**************************** _Opcode_0xC1 ****
                           A  6476    ;Name                         Addr/Register   S
                           A  6477    
                           A  6478    
                           A  6479    ; Stack Frame Size: 6 (bytes)
                           A  6480    ;       Spill Code: 0 (instruction)
                           A  6481    
                           A  6482    
011F50                     A  6483    _Opcode_0xC4:
011F50 CD BD 0A 01         A  6484    	CALL	_Zero
011F54 CD C9 14 01         A  6485    	CALL	_CPY
011F58 C9                  A  6486    	RET	
                           A  6487    
                           A  6488    
                           A  6489    ;**************************** _Opcode_0xC4 ****
                           A  6490    ;Name                         Addr/Register   S
Zilog eZ80 Macro Assembler Version 4.1 (10060805) RELISTED19-Sep-11     11:50:04     page: 126


PC     Object              I  Line    Source C:\DOCUME~1\_Enzo_\Desktop\Zapp\Debug\main.src
                           A  6491    
                           A  6492    
                           A  6493    ; Stack Frame Size: 6 (bytes)
                           A  6494    ;       Spill Code: 0 (instruction)
                           A  6495    
                           A  6496    
011F59                     A  6497    _Opcode_0xC5:
011F59 CD BD 0A 01         A  6498    	CALL	_Zero
011F5D CD 2B 14 01         A  6499    	CALL	_CMP
011F61 C9                  A  6500    	RET	
                           A  6501    
                           A  6502    
                           A  6503    ;**************************** _Opcode_0xC5 ****
                           A  6504    ;Name                         Addr/Register   S
                           A  6505    
                           A  6506    
                           A  6507    ; Stack Frame Size: 6 (bytes)
                           A  6508    ;       Spill Code: 0 (instruction)
                           A  6509    
                           A  6510    
011F62                     A  6511    _Opcode_0xC6:
011F62 CD BD 0A 01         A  6512    	CALL	_Zero
011F66 CD A5 18 01         A  6513    	CALL	_DEC
011F6A C9                  A  6514    	RET	
                           A  6515    
                           A  6516    
                           A  6517    ;**************************** _Opcode_0xC6 ****
                           A  6518    ;Name                         Addr/Register   S
                           A  6519    
                           A  6520    
                           A  6521    ; Stack Frame Size: 6 (bytes)
                           A  6522    ;       Spill Code: 0 (instruction)
                           A  6523    
                           A  6524    
011F6B                     A  6525    _Opcode_0xC9:
011F6B CD A7 0A 01         A  6526    	CALL	_Imm
011F6F CD 2B 14 01         A  6527    	CALL	_CMP
011F73 C9                  A  6528    	RET	
                           A  6529    
                           A  6530    
                           A  6531    ;**************************** _Opcode_0xC9 ****
                           A  6532    ;Name                         Addr/Register   S
                           A  6533    
                           A  6534    
                           A  6535    ; Stack Frame Size: 6 (bytes)
                           A  6536    ;       Spill Code: 0 (instruction)
                           A  6537    
                           A  6538    
011F74                     A  6539    _Opcode_0xCC:
011F74 CD 3A 0B 01         A  6540    	CALL	_Abs
011F78 CD C9 14 01         A  6541    	CALL	_CPY
011F7C C9                  A  6542    	RET	
Zilog eZ80 Macro Assembler Version 4.1 (10060805) RELISTED19-Sep-11     11:50:04     page: 127


PC     Object              I  Line    Source C:\DOCUME~1\_Enzo_\Desktop\Zapp\Debug\main.src
                           A  6543    
                           A  6544    
                           A  6545    ;**************************** _Opcode_0xCC ****
                           A  6546    ;Name                         Addr/Register   S
                           A  6547    
                           A  6548    
                           A  6549    ; Stack Frame Size: 6 (bytes)
                           A  6550    ;       Spill Code: 0 (instruction)
                           A  6551    
                           A  6552    
011F7D                     A  6553    _Opcode_0xCD:
011F7D CD 3A 0B 01         A  6554    	CALL	_Abs
011F81 CD 2B 14 01         A  6555    	CALL	_CMP
011F85 C9                  A  6556    	RET	
                           A  6557    
                           A  6558    
                           A  6559    ;**************************** _Opcode_0xCD ****
                           A  6560    ;Name                         Addr/Register   S
                           A  6561    
                           A  6562    
                           A  6563    ; Stack Frame Size: 6 (bytes)
                           A  6564    ;       Spill Code: 0 (instruction)
                           A  6565    
                           A  6566    
011F86                     A  6567    _Opcode_0xCE:
011F86 CD 3A 0B 01         A  6568    	CALL	_Abs
011F8A CD A5 18 01         A  6569    	CALL	_DEC
011F8E C9                  A  6570    	RET	
                           A  6571    
                           A  6572    
                           A  6573    ;**************************** _Opcode_0xCE ****
                           A  6574    ;Name                         Addr/Register   S
                           A  6575    
                           A  6576    
                           A  6577    ; Stack Frame Size: 6 (bytes)
                           A  6578    ;       Spill Code: 0 (instruction)
                           A  6579    
                           A  6580    
011F8F                     A  6581    _Opcode_0xD0:
011F8F CD 6A 0D 01         A  6582    	CALL	_Rel
011F93 CD B8 1A 01         A  6583    	CALL	_BNE
011F97 C9                  A  6584    	RET	
                           A  6585    
                           A  6586    
                           A  6587    ;**************************** _Opcode_0xD0 ****
                           A  6588    ;Name                         Addr/Register   S
                           A  6589    
                           A  6590    
                           A  6591    ; Stack Frame Size: 6 (bytes)
                           A  6592    ;       Spill Code: 0 (instruction)
                           A  6593    
                           A  6594    
Zilog eZ80 Macro Assembler Version 4.1 (10060805) RELISTED19-Sep-11     11:50:04     page: 128


PC     Object              I  Line    Source C:\DOCUME~1\_Enzo_\Desktop\Zapp\Debug\main.src
011F98                     A  6595    _Opcode_0xD1:
011F98 CD 09 0D 01         A  6596    	CALL	_IndZeroY
011F9C CD 2B 14 01         A  6597    	CALL	_CMP
011FA0 C9                  A  6598    	RET	
                           A  6599    
                           A  6600    
                           A  6601    ;**************************** _Opcode_0xD1 ****
                           A  6602    ;Name                         Addr/Register   S
                           A  6603    
                           A  6604    
                           A  6605    ; Stack Frame Size: 6 (bytes)
                           A  6606    ;       Spill Code: 0 (instruction)
                           A  6607    
                           A  6608    
011FA1                     A  6609    _Opcode_0xD5:
011FA1 CD DC 0A 01         A  6610    	CALL	_ZeroX
011FA5 CD 2B 14 01         A  6611    	CALL	_CMP
011FA9 C9                  A  6612    	RET	
                           A  6613    
                           A  6614    
                           A  6615    ;**************************** _Opcode_0xD5 ****
                           A  6616    ;Name                         Addr/Register   S
                           A  6617    
                           A  6618    
                           A  6619    ; Stack Frame Size: 6 (bytes)
                           A  6620    ;       Spill Code: 0 (instruction)
                           A  6621    
                           A  6622    
011FAA                     A  6623    _Opcode_0xD6:
011FAA CD DC 0A 01         A  6624    	CALL	_ZeroX
011FAE CD A5 18 01         A  6625    	CALL	_DEC
011FB2 C9                  A  6626    	RET	
                           A  6627    
                           A  6628    
                           A  6629    ;**************************** _Opcode_0xD6 ****
                           A  6630    ;Name                         Addr/Register   S
                           A  6631    
                           A  6632    
                           A  6633    ; Stack Frame Size: 6 (bytes)
                           A  6634    ;       Spill Code: 0 (instruction)
                           A  6635    
                           A  6636    
011FB3                     A  6637    _Opcode_0xD9:
011FB3 CD B5 0B 01         A  6638    	CALL	_AbsY
011FB7 CD 2B 14 01         A  6639    	CALL	_CMP
011FBB C9                  A  6640    	RET	
                           A  6641    
                           A  6642    
                           A  6643    ;**************************** _Opcode_0xD9 ****
                           A  6644    ;Name                         Addr/Register   S
                           A  6645    
                           A  6646    
Zilog eZ80 Macro Assembler Version 4.1 (10060805) RELISTED19-Sep-11     11:50:04     page: 129


PC     Object              I  Line    Source C:\DOCUME~1\_Enzo_\Desktop\Zapp\Debug\main.src
                           A  6647    ; Stack Frame Size: 6 (bytes)
                           A  6648    ;       Spill Code: 0 (instruction)
                           A  6649    
                           A  6650    
011FBC                     A  6651    _Opcode_0xDD:
011FBC CD 5D 0B 01         A  6652    	CALL	_AbsX
011FC0 CD 2B 14 01         A  6653    	CALL	_CMP
011FC4 C9                  A  6654    	RET	
                           A  6655    
                           A  6656    
                           A  6657    ;**************************** _Opcode_0xDD ****
                           A  6658    ;Name                         Addr/Register   S
                           A  6659    
                           A  6660    
                           A  6661    ; Stack Frame Size: 6 (bytes)
                           A  6662    ;       Spill Code: 0 (instruction)
                           A  6663    
                           A  6664    
011FC5                     A  6665    _Opcode_0xDE:
011FC5 CD BC 0D 01         A  6666    	CALL	_WAbsX
011FC9 CD A5 18 01         A  6667    	CALL	_DEC
011FCD C9                  A  6668    	RET	
                           A  6669    
                           A  6670    
                           A  6671    ;**************************** _Opcode_0xDE ****
                           A  6672    ;Name                         Addr/Register   S
                           A  6673    
                           A  6674    
                           A  6675    ; Stack Frame Size: 6 (bytes)
                           A  6676    ;       Spill Code: 0 (instruction)
                           A  6677    
                           A  6678    
011FCE                     A  6679    _Opcode_0xE0:
011FCE CD A7 0A 01         A  6680    	CALL	_Imm
011FD2 CD 7A 14 01         A  6681    	CALL	_CPX
011FD6 C9                  A  6682    	RET	
                           A  6683    
                           A  6684    
                           A  6685    ;**************************** _Opcode_0xE0 ****
                           A  6686    ;Name                         Addr/Register   S
                           A  6687    
                           A  6688    
                           A  6689    ; Stack Frame Size: 6 (bytes)
                           A  6690    ;       Spill Code: 0 (instruction)
                           A  6691    
                           A  6692    
011FD7                     A  6693    _Opcode_0xE1:
011FD7 CD 98 0C 01         A  6694    	CALL	_IndZeroX
011FDB CD 6A 12 01         A  6695    	CALL	_SBC
011FDF C9                  A  6696    	RET	
                           A  6697    
                           A  6698    
Zilog eZ80 Macro Assembler Version 4.1 (10060805) RELISTED19-Sep-11     11:50:04     page: 130


PC     Object              I  Line    Source C:\DOCUME~1\_Enzo_\Desktop\Zapp\Debug\main.src
                           A  6699    ;**************************** _Opcode_0xE1 ****
                           A  6700    ;Name                         Addr/Register   S
                           A  6701    
                           A  6702    
                           A  6703    ; Stack Frame Size: 6 (bytes)
                           A  6704    ;       Spill Code: 0 (instruction)
                           A  6705    
                           A  6706    
011FE0                     A  6707    _Opcode_0xE4:
011FE0 CD BD 0A 01         A  6708    	CALL	_Zero
011FE4 CD 7A 14 01         A  6709    	CALL	_CPX
011FE8 C9                  A  6710    	RET	
                           A  6711    
                           A  6712    
                           A  6713    ;**************************** _Opcode_0xE4 ****
                           A  6714    ;Name                         Addr/Register   S
                           A  6715    
                           A  6716    
                           A  6717    ; Stack Frame Size: 6 (bytes)
                           A  6718    ;       Spill Code: 0 (instruction)
                           A  6719    
                           A  6720    
011FE9                     A  6721    _Opcode_0xE5:
011FE9 CD BD 0A 01         A  6722    	CALL	_Zero
011FED CD 6A 12 01         A  6723    	CALL	_SBC
011FF1 C9                  A  6724    	RET	
                           A  6725    
                           A  6726    
                           A  6727    ;**************************** _Opcode_0xE5 ****
                           A  6728    ;Name                         Addr/Register   S
                           A  6729    
                           A  6730    
                           A  6731    ; Stack Frame Size: 6 (bytes)
                           A  6732    ;       Spill Code: 0 (instruction)
                           A  6733    
                           A  6734    
011FF2                     A  6735    _Opcode_0xE6:
011FF2 CD BD 0A 01         A  6736    	CALL	_Zero
011FF6 CD 73 18 01         A  6737    	CALL	_INC
011FFA C9                  A  6738    	RET	
                           A  6739    
                           A  6740    
                           A  6741    ;**************************** _Opcode_0xE6 ****
                           A  6742    ;Name                         Addr/Register   S
                           A  6743    
                           A  6744    
                           A  6745    ; Stack Frame Size: 6 (bytes)
                           A  6746    ;       Spill Code: 0 (instruction)
                           A  6747    
                           A  6748    
011FFB                     A  6749    _Opcode_0xE9:
011FFB CD A7 0A 01         A  6750    	CALL	_Imm
Zilog eZ80 Macro Assembler Version 4.1 (10060805) RELISTED19-Sep-11     11:50:04     page: 131


PC     Object              I  Line    Source C:\DOCUME~1\_Enzo_\Desktop\Zapp\Debug\main.src
011FFF CD 6A 12 01         A  6751    	CALL	_SBC
012003 C9                  A  6752    	RET	
                           A  6753    
                           A  6754    
                           A  6755    ;**************************** _Opcode_0xE9 ****
                           A  6756    ;Name                         Addr/Register   S
                           A  6757    
                           A  6758    
                           A  6759    ; Stack Frame Size: 6 (bytes)
                           A  6760    ;       Spill Code: 0 (instruction)
                           A  6761    
                           A  6762    
012004                     A  6763    _Opcode_0xEB:
012004 CD A7 0A 01         A  6764    	CALL	_Imm
012008 CD 6A 12 01         A  6765    	CALL	_SBC
01200C C9                  A  6766    	RET	
                           A  6767    
                           A  6768    
                           A  6769    ;**************************** _Opcode_0xEB ****
                           A  6770    ;Name                         Addr/Register   S
                           A  6771    
                           A  6772    
                           A  6773    ; Stack Frame Size: 6 (bytes)
                           A  6774    ;       Spill Code: 0 (instruction)
                           A  6775    
                           A  6776    
01200D                     A  6777    _Opcode_0xEC:
01200D CD 3A 0B 01         A  6778    	CALL	_Abs
012011 CD 7A 14 01         A  6779    	CALL	_CPX
012015 C9                  A  6780    	RET	
                           A  6781    
                           A  6782    
                           A  6783    ;**************************** _Opcode_0xEC ****
                           A  6784    ;Name                         Addr/Register   S
                           A  6785    
                           A  6786    
                           A  6787    ; Stack Frame Size: 6 (bytes)
                           A  6788    ;       Spill Code: 0 (instruction)
                           A  6789    
                           A  6790    
012016                     A  6791    _Opcode_0xED:
012016 CD 3A 0B 01         A  6792    	CALL	_Abs
01201A CD 6A 12 01         A  6793    	CALL	_SBC
01201E C9                  A  6794    	RET	
                           A  6795    
                           A  6796    
                           A  6797    ;**************************** _Opcode_0xED ****
                           A  6798    ;Name                         Addr/Register   S
                           A  6799    
                           A  6800    
                           A  6801    ; Stack Frame Size: 6 (bytes)
                           A  6802    ;       Spill Code: 0 (instruction)
Zilog eZ80 Macro Assembler Version 4.1 (10060805) RELISTED19-Sep-11     11:50:04     page: 132


PC     Object              I  Line    Source C:\DOCUME~1\_Enzo_\Desktop\Zapp\Debug\main.src
                           A  6803    
                           A  6804    
01201F                     A  6805    _Opcode_0xEE:
01201F CD 3A 0B 01         A  6806    	CALL	_Abs
012023 CD 73 18 01         A  6807    	CALL	_INC
012027 C9                  A  6808    	RET	
                           A  6809    
                           A  6810    
                           A  6811    ;**************************** _Opcode_0xEE ****
                           A  6812    ;Name                         Addr/Register   S
                           A  6813    
                           A  6814    
                           A  6815    ; Stack Frame Size: 6 (bytes)
                           A  6816    ;       Spill Code: 0 (instruction)
                           A  6817    
                           A  6818    
012028                     A  6819    _Opcode_0xF0:
012028 CD 6A 0D 01         A  6820    	CALL	_Rel
01202C CD C5 1A 01         A  6821    	CALL	_BEQ
012030 C9                  A  6822    	RET	
                           A  6823    
                           A  6824    
                           A  6825    ;**************************** _Opcode_0xF0 ****
                           A  6826    ;Name                         Addr/Register   S
                           A  6827    
                           A  6828    
                           A  6829    ; Stack Frame Size: 6 (bytes)
                           A  6830    ;       Spill Code: 0 (instruction)
                           A  6831    
                           A  6832    
012031                     A  6833    _Opcode_0xF1:
012031 CD 09 0D 01         A  6834    	CALL	_IndZeroY
012035 CD 6A 12 01         A  6835    	CALL	_SBC
012039 C9                  A  6836    	RET	
                           A  6837    
                           A  6838    
                           A  6839    ;**************************** _Opcode_0xF1 ****
                           A  6840    ;Name                         Addr/Register   S
                           A  6841    
                           A  6842    
                           A  6843    ; Stack Frame Size: 6 (bytes)
                           A  6844    ;       Spill Code: 0 (instruction)
                           A  6845    
                           A  6846    
01203A                     A  6847    _Opcode_0xF5:
01203A CD DC 0A 01         A  6848    	CALL	_ZeroX
01203E CD 6A 12 01         A  6849    	CALL	_SBC
012042 C9                  A  6850    	RET	
                           A  6851    
                           A  6852    
                           A  6853    ;**************************** _Opcode_0xF5 ****
                           A  6854    ;Name                         Addr/Register   S
Zilog eZ80 Macro Assembler Version 4.1 (10060805) RELISTED19-Sep-11     11:50:04     page: 133


PC     Object              I  Line    Source C:\DOCUME~1\_Enzo_\Desktop\Zapp\Debug\main.src
                           A  6855    
                           A  6856    
                           A  6857    ; Stack Frame Size: 6 (bytes)
                           A  6858    ;       Spill Code: 0 (instruction)
                           A  6859    
                           A  6860    
012043                     A  6861    _Opcode_0xF6:
012043 CD DC 0A 01         A  6862    	CALL	_ZeroX
012047 CD 73 18 01         A  6863    	CALL	_INC
01204B C9                  A  6864    	RET	
                           A  6865    
                           A  6866    
                           A  6867    ;**************************** _Opcode_0xF6 ****
                           A  6868    ;Name                         Addr/Register   S
                           A  6869    
                           A  6870    
                           A  6871    ; Stack Frame Size: 6 (bytes)
                           A  6872    ;       Spill Code: 0 (instruction)
                           A  6873    
                           A  6874    
01204C                     A  6875    _Opcode_0xF9:
01204C CD B5 0B 01         A  6876    	CALL	_AbsY
012050 CD 6A 12 01         A  6877    	CALL	_SBC
012054 C9                  A  6878    	RET	
                           A  6879    
                           A  6880    
                           A  6881    ;**************************** _Opcode_0xF9 ****
                           A  6882    ;Name                         Addr/Register   S
                           A  6883    
                           A  6884    
                           A  6885    ; Stack Frame Size: 6 (bytes)
                           A  6886    ;       Spill Code: 0 (instruction)
                           A  6887    
                           A  6888    
012055                     A  6889    _Opcode_0xFD:
012055 CD 5D 0B 01         A  6890    	CALL	_AbsX
012059 CD 6A 12 01         A  6891    	CALL	_SBC
01205D C9                  A  6892    	RET	
                           A  6893    
                           A  6894    
                           A  6895    ;**************************** _Opcode_0xFD ****
                           A  6896    ;Name                         Addr/Register   S
                           A  6897    
                           A  6898    
                           A  6899    ; Stack Frame Size: 6 (bytes)
                           A  6900    ;       Spill Code: 0 (instruction)
                           A  6901    
                           A  6902    
01205E                     A  6903    _Opcode_0xFE:
01205E CD BC 0D 01         A  6904    	CALL	_WAbsX
012062 CD 73 18 01         A  6905    	CALL	_INC
012066 C9                  A  6906    	RET	
Zilog eZ80 Macro Assembler Version 4.1 (10060805) RELISTED19-Sep-11     11:50:04     page: 134


PC     Object              I  Line    Source C:\DOCUME~1\_Enzo_\Desktop\Zapp\Debug\main.src
                           A  6907    
                           A  6908    
                           A  6909    ;**************************** _Opcode_0xFE ****
                           A  6910    ;Name                         Addr/Register   S
                           A  6911    
                           A  6912    
                           A  6913    ; Stack Frame Size: 6 (bytes)
                           A  6914    ;       Spill Code: 0 (instruction)
                           A  6915    
                           A  6916    
012067                     A  6917    _Init_Opcode_Table:
012067 21B2FFFF            A  6918    	LD	HL,-78
01206B CD 3A 36 01         A  6919    	CALL	__frameset
01206F FD21 A6 46 01       A  6920    	LD	IY,_Cpu_Opcode
012074 ED2303              A  6921    	LEA	HL,IY+3
012077 ED3306              A  6922    	LEA	IY,IY+6
01207A DD3EB2              A  6923    	LD	(IX+-78),IY	; spill
01207D 01 E4 1B 01         A  6924    	LD	BC,_Opcode_0x00
012081 ED43 A6 46 01       A  6925    	LD	(_Cpu_Opcode),BC
012086 01 ED 1B 01         A  6926    	LD	BC,_Opcode_0x01
01208A ED0F                A  6927    	LD	(HL),BC
01208C 21 DC 46 01         A  6928    	LD	HL,_Cpu_Opcode+54
012090 01 F6 1B 01         A  6929    	LD	BC,_Multi_UnDoc1
012094 DD31B2              A  6930    	LD	IY,(IX+-78)	; unspill
012097 FD0F00              A  6931    	LD	(IY),BC
01209A FD21 A6 46 01       A  6932    	LD	IY,_Cpu_Opcode
01209F ED0F                A  6933    	LD	(HL),BC
0120A1 11 F6 1B 01         A  6934    	LD	DE,_Multi_UnDoc1
0120A5 01960000            A  6935    	LD	BC,150
0120A9 21 A6 46 01         A  6936    	LD	HL,_Cpu_Opcode
0120AD 09                  A  6937    	ADD	HL,BC
0120AE FD1F66              A  6938    	LD	(IY+102),DE
0120B1 01 F6 1B 01         A  6939    	LD	BC,_Multi_UnDoc1
0120B5 ED0F                A  6940    	LD	(HL),BC
0120B7 21 A6 46 01         A  6941    	LD	HL,_Cpu_Opcode
0120BB 01C60000            A  6942    	LD	BC,198
0120BF 09                  A  6943    	ADD	HL,BC
0120C0 01 F6 1B 01         A  6944    	LD	BC,_Multi_UnDoc1
0120C4 ED0F                A  6945    	LD	(HL),BC
0120C6 21 A6 46 01         A  6946    	LD	HL,_Cpu_Opcode
0120CA 01F60000            A  6947    	LD	BC,246
0120CE 09                  A  6948    	ADD	HL,BC
0120CF 01 F6 1B 01         A  6949    	LD	BC,_Multi_UnDoc1
0120D3 ED0F                A  6950    	LD	(HL),BC
0120D5 21 A6 46 01         A  6951    	LD	HL,_Cpu_Opcode
0120D9 01260100            A  6952    	LD	BC,294
0120DD 09                  A  6953    	ADD	HL,BC
0120DE 01 F6 1B 01         A  6954    	LD	BC,_Multi_UnDoc1
0120E2 ED0F                A  6955    	LD	(HL),BC
0120E4 21 A6 46 01         A  6956    	LD	HL,_Cpu_Opcode
0120E8 01560100            A  6957    	LD	BC,342
0120EC 09                  A  6958    	ADD	HL,BC
Zilog eZ80 Macro Assembler Version 4.1 (10060805) RELISTED19-Sep-11     11:50:04     page: 135


PC     Object              I  Line    Source C:\DOCUME~1\_Enzo_\Desktop\Zapp\Debug\main.src
0120ED 01 F6 1B 01         A  6959    	LD	BC,_Multi_UnDoc1
0120F1 ED0F                A  6960    	LD	(HL),BC
0120F3 21 A6 46 01         A  6961    	LD	HL,_Cpu_Opcode
0120F7 01B60100            A  6962    	LD	BC,438
0120FB 09                  A  6963    	ADD	HL,BC
0120FC 01 F6 1B 01         A  6964    	LD	BC,_Multi_UnDoc1
012100 ED0F                A  6965    	LD	(HL),BC
012102 21 A6 46 01         A  6966    	LD	HL,_Cpu_Opcode
012106 01160200            A  6967    	LD	BC,534
01210A 09                  A  6968    	ADD	HL,BC
01210B 01 F6 1B 01         A  6969    	LD	BC,_Multi_UnDoc1
01210F ED0F                A  6970    	LD	(HL),BC
012111 21 A6 46 01         A  6971    	LD	HL,_Cpu_Opcode
012115 01760200            A  6972    	LD	BC,630
012119 09                  A  6973    	ADD	HL,BC
01211A 01 F6 1B 01         A  6974    	LD	BC,_Multi_UnDoc1
01211E ED0F                A  6975    	LD	(HL),BC
012120 21 A6 46 01         A  6976    	LD	HL,_Cpu_Opcode
012124 01D60200            A  6977    	LD	BC,726
012128 09                  A  6978    	ADD	HL,BC
012129 DD2FEB              A  6979    	LD	(IX+-21),HL	; spill
01212C ED230C              A  6980    	LEA	HL,IY+12
01212F DD2FB5              A  6981    	LD	(IX+-75),HL	; spill
012132 DD27EB              A  6982    	LD	HL,(IX+-21)	; unspill
012135 01 F6 1B 01         A  6983    	LD	BC,_Multi_UnDoc1
012139 ED0F                A  6984    	LD	(HL),BC
01213B 01 02 1C 01         A  6985    	LD	BC,_Multi_UnDoc2
01213F DD27B5              A  6986    	LD	HL,(IX+-75)	; unspill
012142 ED0F                A  6987    	LD	(HL),BC
012144 21 A6 46 01         A  6988    	LD	HL,_Cpu_Opcode
012148 11 02 1C 01         A  6989    	LD	DE,_Multi_UnDoc2
01214C 019C0000            A  6990    	LD	BC,156
012150 09                  A  6991    	ADD	HL,BC
012151 FD1F3C              A  6992    	LD	(IY+60),DE
012154 01 02 1C 01         A  6993    	LD	BC,_Multi_UnDoc2
012158 ED0F                A  6994    	LD	(HL),BC
01215A 21 A6 46 01         A  6995    	LD	HL,_Cpu_Opcode
01215E 01CC0000            A  6996    	LD	BC,204
012162 09                  A  6997    	ADD	HL,BC
012163 01 02 1C 01         A  6998    	LD	BC,_Multi_UnDoc2
012167 ED0F                A  6999    	LD	(HL),BC
012169 21 A6 46 01         A  7000    	LD	HL,_Cpu_Opcode
01216D 01FC0000            A  7001    	LD	BC,252
012171 09                  A  7002    	ADD	HL,BC
012172 01 02 1C 01         A  7003    	LD	BC,_Multi_UnDoc2
012176 ED0F                A  7004    	LD	(HL),BC
012178 21 A6 46 01         A  7005    	LD	HL,_Cpu_Opcode
01217C 012C0100            A  7006    	LD	BC,300
012180 09                  A  7007    	ADD	HL,BC
012181 01 02 1C 01         A  7008    	LD	BC,_Multi_UnDoc2
012185 ED0F                A  7009    	LD	(HL),BC
012187 21 A6 46 01         A  7010    	LD	HL,_Cpu_Opcode
Zilog eZ80 Macro Assembler Version 4.1 (10060805) RELISTED19-Sep-11     11:50:04     page: 136


PC     Object              I  Line    Source C:\DOCUME~1\_Enzo_\Desktop\Zapp\Debug\main.src
01218B 015C0100            A  7011    	LD	BC,348
01218F 09                  A  7012    	ADD	HL,BC
012190 01 02 1C 01         A  7013    	LD	BC,_Multi_UnDoc2
012194 ED0F                A  7014    	LD	(HL),BC
012196 21 A6 46 01         A  7015    	LD	HL,_Cpu_Opcode
01219A 01800100            A  7016    	LD	BC,384
01219E 09                  A  7017    	ADD	HL,BC
01219F 01 02 1C 01         A  7018    	LD	BC,_Multi_UnDoc2
0121A3 ED0F                A  7019    	LD	(HL),BC
0121A5 21 A6 46 01         A  7020    	LD	HL,_Cpu_Opcode
0121A9 01860100            A  7021    	LD	BC,390
0121AD 09                  A  7022    	ADD	HL,BC
0121AE 01 02 1C 01         A  7023    	LD	BC,_Multi_UnDoc2
0121B2 ED0F                A  7024    	LD	(HL),BC
0121B4 21 A6 46 01         A  7025    	LD	HL,_Cpu_Opcode
0121B8 019B0100            A  7026    	LD	BC,411
0121BC 09                  A  7027    	ADD	HL,BC
0121BD 01 02 1C 01         A  7028    	LD	BC,_Multi_UnDoc2
0121C1 ED0F                A  7029    	LD	(HL),BC
0121C3 ED230F              A  7030    	LEA	HL,IY+15
0121C6 DD2FB8              A  7031    	LD	(IX+-72),HL	; spill
0121C9 21 A6 46 01         A  7032    	LD	HL,_Cpu_Opcode
0121CD 01460200            A  7033    	LD	BC,582
0121D1 09                  A  7034    	ADD	HL,BC
0121D2 DD2FEB              A  7035    	LD	(IX+-21),HL	; spill
0121D5 ED2312              A  7036    	LEA	HL,IY+18
0121D8 DD2FBB              A  7037    	LD	(IX+-69),HL	; spill
0121DB DD27EB              A  7038    	LD	HL,(IX+-21)	; unspill
0121DE 01 02 1C 01         A  7039    	LD	BC,_Multi_UnDoc2
0121E2 ED0F                A  7040    	LD	(HL),BC
0121E4 ED2318              A  7041    	LEA	HL,IY+24
0121E7 DD2FBE              A  7042    	LD	(IX+-66),HL	; spill
0121EA 21 A6 46 01         A  7043    	LD	HL,_Cpu_Opcode
0121EE 017C0200            A  7044    	LD	BC,636
0121F2 09                  A  7045    	ADD	HL,BC
0121F3 01 02 1C 01         A  7046    	LD	BC,_Multi_UnDoc2
0121F7 ED0F                A  7047    	LD	(HL),BC
0121F9 ED231B              A  7048    	LEA	HL,IY+27
0121FC DD2FC1              A  7049    	LD	(IX+-63),HL	; spill
0121FF 21 A6 46 01         A  7050    	LD	HL,_Cpu_Opcode
012203 01A60200            A  7051    	LD	BC,678
012207 09                  A  7052    	ADD	HL,BC
012208 DD2FEB              A  7053    	LD	(IX+-21),HL	; spill
01220B ED231E              A  7054    	LEA	HL,IY+30
01220E DD2FC4              A  7055    	LD	(IX+-60),HL	; spill
012211 DD27EB              A  7056    	LD	HL,(IX+-21)	; unspill
012214 01 02 1C 01         A  7057    	LD	BC,_Multi_UnDoc2
012218 ED0F                A  7058    	LD	(HL),BC
01221A ED2321              A  7059    	LEA	HL,IY+33
01221D DD2FC7              A  7060    	LD	(IX+-57),HL	; spill
012220 21 A6 46 01         A  7061    	LD	HL,_Cpu_Opcode
012224 01DC0200            A  7062    	LD	BC,732
Zilog eZ80 Macro Assembler Version 4.1 (10060805) RELISTED19-Sep-11     11:50:04     page: 137


PC     Object              I  Line    Source C:\DOCUME~1\_Enzo_\Desktop\Zapp\Debug\main.src
012228 09                  A  7063    	ADD	HL,BC
012229 01 02 1C 01         A  7064    	LD	BC,_Multi_UnDoc2
01222D ED0F                A  7065    	LD	(HL),BC
01222F ED3324              A  7066    	LEA	IY,IY+36
012232 DD3ECA              A  7067    	LD	(IX+-54),IY	; spill
012235 01 1C 1C 01         A  7068    	LD	BC,_Opcode_0x05
012239 DD27B8              A  7069    	LD	HL,(IX+-72)	; unspill
01223C ED0F                A  7070    	LD	(HL),BC
01223E FD21 A6 46 01       A  7071    	LD	IY,_Cpu_Opcode
012243 01 25 1C 01         A  7072    	LD	BC,_Opcode_0x06
012247 DD27BB              A  7073    	LD	HL,(IX+-69)	; unspill
01224A ED0F                A  7074    	LD	(HL),BC
01224C ED2354              A  7075    	LEA	HL,IY+84
01224F DD2FCD              A  7076    	LD	(IX+-51),HL	; spill
012252 01 B3 19 01         A  7077    	LD	BC,_PHP
012256 DD27BE              A  7078    	LD	HL,(IX+-66)	; unspill
012259 ED0F                A  7079    	LD	(HL),BC
01225B 01 2E 1C 01         A  7080    	LD	BC,_Opcode_0x09
01225F DD27C1              A  7081    	LD	HL,(IX+-63)	; unspill
012262 ED0F                A  7082    	LD	(HL),BC
012264 ED2327              A  7083    	LEA	HL,IY+39
012267 DD2FD0              A  7084    	LD	(IX+-48),HL	; spill
01226A 01 C5 15 01         A  7085    	LD	BC,_ASL_A
01226E DD27C4              A  7086    	LD	HL,(IX+-60)	; unspill
012271 ED0F                A  7087    	LD	(HL),BC
012273 01 37 1C 01         A  7088    	LD	BC,_Opcode_0x0B
012277 DD27C7              A  7089    	LD	HL,(IX+-57)	; unspill
01227A ED0F                A  7090    	LD	(HL),BC
01227C 21 D0 46 01         A  7091    	LD	HL,_Cpu_Opcode+42
012280 DD2FD3              A  7092    	LD	(IX+-45),HL	; spill
012283 01 0E 1C 01         A  7093    	LD	BC,_Multi_UnDoc3
012287 DD31CA              A  7094    	LD	IY,(IX+-54)	; unspill
01228A FD0F00              A  7095    	LD	(IY),BC
01228D FD21 A6 46 01       A  7096    	LD	IY,_Cpu_Opcode
012292 21 A6 46 01         A  7097    	LD	HL,_Cpu_Opcode
012296 11 0E 1C 01         A  7098    	LD	DE,_Multi_UnDoc3
01229A 01B40000            A  7099    	LD	BC,180
01229E 09                  A  7100    	ADD	HL,BC
01229F DD2FEB              A  7101    	LD	(IX+-21),HL	; spill
0122A2 DD27CD              A  7102    	LD	HL,(IX+-51)	; unspill
0122A5 ED1F                A  7103    	LD	(HL),DE
0122A7 DD27EB              A  7104    	LD	HL,(IX+-21)	; unspill
0122AA DD2FEB              A  7105    	LD	(IX+-21),HL	; spill
0122AD ED2330              A  7106    	LEA	HL,IY+48
0122B0 DD2FD6              A  7107    	LD	(IX+-42),HL	; spill
0122B3 DD27EB              A  7108    	LD	HL,(IX+-21)	; unspill
0122B6 01 0E 1C 01         A  7109    	LD	BC,_Multi_UnDoc3
0122BA ED0F                A  7110    	LD	(HL),BC
0122BC ED2333              A  7111    	LEA	HL,IY+51
0122BF DD2FD9              A  7112    	LD	(IX+-39),HL	; spill
0122C2 21 A6 46 01         A  7113    	LD	HL,_Cpu_Opcode
0122C6 01140100            A  7114    	LD	BC,276
Zilog eZ80 Macro Assembler Version 4.1 (10060805) RELISTED19-Sep-11     11:50:04     page: 138


PC     Object              I  Line    Source C:\DOCUME~1\_Enzo_\Desktop\Zapp\Debug\main.src
0122CA 09                  A  7115    	ADD	HL,BC
0122CB 01 0E 1C 01         A  7116    	LD	BC,_Multi_UnDoc3
0122CF ED0F                A  7117    	LD	(HL),BC
0122D1 ED233F              A  7118    	LEA	HL,IY+63
0122D4 DD2FDC              A  7119    	LD	(IX+-36),HL	; spill
0122D7 21 A6 46 01         A  7120    	LD	HL,_Cpu_Opcode
0122DB 01740100            A  7121    	LD	BC,372
0122DF 09                  A  7122    	ADD	HL,BC
0122E0 DD2FEB              A  7123    	LD	(IX+-21),HL	; spill
0122E3 ED2342              A  7124    	LEA	HL,IY+66
0122E6 DD2FDF              A  7125    	LD	(IX+-33),HL	; spill
0122E9 DD27EB              A  7126    	LD	HL,(IX+-21)	; unspill
0122EC 01 0E 1C 01         A  7127    	LD	BC,_Multi_UnDoc3
0122F0 ED0F                A  7128    	LD	(HL),BC
0122F2 ED2348              A  7129    	LEA	HL,IY+72
0122F5 DD2FE2              A  7130    	LD	(IX+-30),HL	; spill
0122F8 21 A6 46 01         A  7131    	LD	HL,_Cpu_Opcode
0122FC 01940200            A  7132    	LD	BC,660
012300 09                  A  7133    	ADD	HL,BC
012301 01 0E 1C 01         A  7134    	LD	BC,_Multi_UnDoc3
012305 ED0F                A  7135    	LD	(HL),BC
012307 ED234B              A  7136    	LEA	HL,IY+75
01230A DD2FE5              A  7137    	LD	(IX+-27),HL	; spill
01230D 21 A6 46 01         A  7138    	LD	HL,_Cpu_Opcode
012311 01F40200            A  7139    	LD	BC,756
012315 09                  A  7140    	ADD	HL,BC
012316 DD2FEB              A  7141    	LD	(IX+-21),HL	; spill
012319 ED2357              A  7142    	LEA	HL,IY+87
01231C DD2FE8              A  7143    	LD	(IX+-24),HL	; spill
01231F DD27EB              A  7144    	LD	HL,(IX+-21)	; unspill
012322 01 0E 1C 01         A  7145    	LD	BC,_Multi_UnDoc3
012326 ED0F                A  7146    	LD	(HL),BC
012328 01 40 1C 01         A  7147    	LD	BC,_Opcode_0x0D
01232C DD27D0              A  7148    	LD	HL,(IX+-48)	; unspill
01232F ED0F                A  7149    	LD	(HL),BC
012331 ED335A              A  7150    	LEA	IY,IY+90
012334 DD3EEE              A  7151    	LD	(IX+-18),IY	; spill
012337 01 49 1C 01         A  7152    	LD	BC,_Opcode_0x0E
01233B DD27D3              A  7153    	LD	HL,(IX+-45)	; unspill
01233E ED0F                A  7154    	LD	(HL),BC
012340 FD21 A6 46 01       A  7155    	LD	IY,_Cpu_Opcode
012345 01 52 1C 01         A  7156    	LD	BC,_Opcode_0x10
012349 DD27D6              A  7157    	LD	HL,(IX+-42)	; unspill
01234C ED0F                A  7158    	LD	(HL),BC
01234E ED2360              A  7159    	LEA	HL,IY+96
012351 01 5B 1C 01         A  7160    	LD	BC,_Opcode_0x11
012355 DD2FEB              A  7161    	LD	(IX+-21),HL	; spill
012358 DD27D9              A  7162    	LD	HL,(IX+-39)	; unspill
01235B ED0F                A  7163    	LD	(HL),BC
01235D DD27EB              A  7164    	LD	HL,(IX+-21)	; unspill
012360 01 64 1C 01         A  7165    	LD	BC,_Opcode_0x15
012364 DD2FEB              A  7166    	LD	(IX+-21),HL	; spill
Zilog eZ80 Macro Assembler Version 4.1 (10060805) RELISTED19-Sep-11     11:50:04     page: 139


PC     Object              I  Line    Source C:\DOCUME~1\_Enzo_\Desktop\Zapp\Debug\main.src
012367 DD27DC              A  7167    	LD	HL,(IX+-36)	; unspill
01236A ED0F                A  7168    	LD	(HL),BC
01236C DD27EB              A  7169    	LD	HL,(IX+-21)	; unspill
01236F ED3363              A  7170    	LEA	IY,IY+99
012372 DD3EF1              A  7171    	LD	(IX+-15),IY	; spill
012375 01 6D 1C 01         A  7172    	LD	BC,_Opcode_0x16
012379 DD2FEB              A  7173    	LD	(IX+-21),HL	; spill
01237C DD27DF              A  7174    	LD	HL,(IX+-33)	; unspill
01237F ED0F                A  7175    	LD	(HL),BC
012381 DD27EB              A  7176    	LD	HL,(IX+-21)	; unspill
012384 FD21 A6 46 01       A  7177    	LD	IY,_Cpu_Opcode
012389 01 97 1B 01         A  7178    	LD	BC,_CLC
01238D DD2FEB              A  7179    	LD	(IX+-21),HL	; spill
012390 DD27E2              A  7180    	LD	HL,(IX+-30)	; unspill
012393 ED0F                A  7181    	LD	(HL),BC
012395 DD27EB              A  7182    	LD	HL,(IX+-21)	; unspill
012398 ED336C              A  7183    	LEA	IY,IY+108
01239B DD3EF4              A  7184    	LD	(IX+-12),IY	; spill
01239E 01 76 1C 01         A  7185    	LD	BC,_Opcode_0x19
0123A2 DD2FEB              A  7186    	LD	(IX+-21),HL	; spill
0123A5 DD27E5              A  7187    	LD	HL,(IX+-27)	; unspill
0123A8 ED0F                A  7188    	LD	(HL),BC
0123AA DD27EB              A  7189    	LD	HL,(IX+-21)	; unspill
0123AD FD21 A6 46 01       A  7190    	LD	IY,_Cpu_Opcode
0123B2 01 7F 1C 01         A  7191    	LD	BC,_Opcode_0x1D
0123B6 DD2FEB              A  7192    	LD	(IX+-21),HL	; spill
0123B9 DD27E8              A  7193    	LD	HL,(IX+-24)	; unspill
0123BC ED0F                A  7194    	LD	(HL),BC
0123BE DD27EB              A  7195    	LD	HL,(IX+-21)	; unspill
0123C1 ED336F              A  7196    	LEA	IY,IY+111
0123C4 DD3EF7              A  7197    	LD	(IX+-9),IY	; spill
0123C7 01 88 1C 01         A  7198    	LD	BC,_Opcode_0x1E
0123CB DD31EE              A  7199    	LD	IY,(IX+-18)	; unspill
0123CE FD0F00              A  7200    	LD	(IY),BC
0123D1 01 6B 1A 01         A  7201    	LD	BC,_JSR
0123D5 ED0F                A  7202    	LD	(HL),BC
0123D7 21 18 47 01         A  7203    	LD	HL,_Cpu_Opcode+114
0123DB 01 91 1C 01         A  7204    	LD	BC,_Opcode_0x21
0123DF DD31F1              A  7205    	LD	IY,(IX+-15)	; unspill
0123E2 FD0F00              A  7206    	LD	(IY),BC
0123E5 FD21 A6 46 01       A  7207    	LD	IY,_Cpu_Opcode
0123EA 01 9A 1C 01         A  7208    	LD	BC,_Opcode_0x24
0123EE DD3EFD              A  7209    	LD	(IX+-3),IY	; spill
0123F1 DD31F4              A  7210    	LD	IY,(IX+-12)	; unspill
0123F4 FD0F00              A  7211    	LD	(IY),BC
0123F7 DD31FD              A  7212    	LD	IY,(IX+-3)	; unspill
0123FA ED3378              A  7213    	LEA	IY,IY+120
0123FD DD3EFA              A  7214    	LD	(IX+-6),IY	; spill
012400 01 A3 1C 01         A  7215    	LD	BC,_Opcode_0x25
012404 DD31F7              A  7216    	LD	IY,(IX+-9)	; unspill
012407 FD0F00              A  7217    	LD	(IY),BC
01240A 01 AC 1C 01         A  7218    	LD	BC,_Opcode_0x26
Zilog eZ80 Macro Assembler Version 4.1 (10060805) RELISTED19-Sep-11     11:50:04     page: 140


PC     Object              I  Line    Source C:\DOCUME~1\_Enzo_\Desktop\Zapp\Debug\main.src
01240E ED0F                A  7219    	LD	(HL),BC
012410 21 21 47 01         A  7220    	LD	HL,_Cpu_Opcode+123
012414 01 01 1A 01         A  7221    	LD	BC,_PLP
012418 DD31FA              A  7222    	LD	IY,(IX+-6)	; unspill
01241B FD0F00              A  7223    	LD	(IY),BC
01241E FD21 A6 46 01       A  7224    	LD	IY,_Cpu_Opcode
012423 01 B5 1C 01         A  7225    	LD	BC,_Opcode_0x29
012427 ED0F                A  7226    	LD	(HL),BC
012429 21 A6 46 01         A  7227    	LD	HL,_Cpu_Opcode
01242D 11 15 17 01         A  7228    	LD	DE,_ROL_A
012431 01810000            A  7229    	LD	BC,129
012435 09                  A  7230    	ADD	HL,BC
012436 FD1F7E              A  7231    	LD	(IY+126),DE
012439 01 B5 1C 01         A  7232    	LD	BC,_Opcode_0x29
01243D ED0F                A  7233    	LD	(HL),BC
01243F 21 A6 46 01         A  7234    	LD	HL,_Cpu_Opcode
012443 01840000            A  7235    	LD	BC,132
012447 09                  A  7236    	ADD	HL,BC
012448 01 BE 1C 01         A  7237    	LD	BC,_Opcode_0x2C
01244C ED0F                A  7238    	LD	(HL),BC
01244E 21 A6 46 01         A  7239    	LD	HL,_Cpu_Opcode
012452 01870000            A  7240    	LD	BC,135
012456 09                  A  7241    	ADD	HL,BC
012457 01 C7 1C 01         A  7242    	LD	BC,_Opcode_0x2D
01245B ED0F                A  7243    	LD	(HL),BC
01245D 21 A6 46 01         A  7244    	LD	HL,_Cpu_Opcode
012461 018A0000            A  7245    	LD	BC,138
012465 09                  A  7246    	ADD	HL,BC
012466 01 D0 1C 01         A  7247    	LD	BC,_Opcode_0x2E
01246A ED0F                A  7248    	LD	(HL),BC
01246C 21 A6 46 01         A  7249    	LD	HL,_Cpu_Opcode
012470 01900000            A  7250    	LD	BC,144
012474 09                  A  7251    	ADD	HL,BC
012475 01 D9 1C 01         A  7252    	LD	BC,_Opcode_0x30
012479 ED0F                A  7253    	LD	(HL),BC
01247B 21 A6 46 01         A  7254    	LD	HL,_Cpu_Opcode
01247F 01930000            A  7255    	LD	BC,147
012483 09                  A  7256    	ADD	HL,BC
012484 01 E2 1C 01         A  7257    	LD	BC,_Opcode_0x31
012488 ED0F                A  7258    	LD	(HL),BC
01248A 21 A6 46 01         A  7259    	LD	HL,_Cpu_Opcode
01248E 019F0000            A  7260    	LD	BC,159
012492 09                  A  7261    	ADD	HL,BC
012493 01 EB 1C 01         A  7262    	LD	BC,_Opcode_0x35
012497 ED0F                A  7263    	LD	(HL),BC
012499 21 A6 46 01         A  7264    	LD	HL,_Cpu_Opcode
01249D 01A20000            A  7265    	LD	BC,162
0124A1 09                  A  7266    	ADD	HL,BC
0124A2 01 F4 1C 01         A  7267    	LD	BC,_Opcode_0x36
0124A6 ED0F                A  7268    	LD	(HL),BC
0124A8 21 A6 46 01         A  7269    	LD	HL,_Cpu_Opcode
0124AC 01A80000            A  7270    	LD	BC,168
Zilog eZ80 Macro Assembler Version 4.1 (10060805) RELISTED19-Sep-11     11:50:04     page: 141


PC     Object              I  Line    Source C:\DOCUME~1\_Enzo_\Desktop\Zapp\Debug\main.src
0124B0 09                  A  7271    	ADD	HL,BC
0124B1 01 A2 1B 01         A  7272    	LD	BC,_SEC
0124B5 ED0F                A  7273    	LD	(HL),BC
0124B7 21 A6 46 01         A  7274    	LD	HL,_Cpu_Opcode
0124BB 01AB0000            A  7275    	LD	BC,171
0124BF 09                  A  7276    	ADD	HL,BC
0124C0 01 FD 1C 01         A  7277    	LD	BC,_Opcode_0x39
0124C4 ED0F                A  7278    	LD	(HL),BC
0124C6 21 A6 46 01         A  7279    	LD	HL,_Cpu_Opcode
0124CA 01B70000            A  7280    	LD	BC,183
0124CE 09                  A  7281    	ADD	HL,BC
0124CF 01 06 1D 01         A  7282    	LD	BC,_Opcode_0x3D
0124D3 ED0F                A  7283    	LD	(HL),BC
0124D5 21 A6 46 01         A  7284    	LD	HL,_Cpu_Opcode
0124D9 01BA0000            A  7285    	LD	BC,186
0124DD 09                  A  7286    	ADD	HL,BC
0124DE 01 0F 1D 01         A  7287    	LD	BC,_Opcode_0x3E
0124E2 ED0F                A  7288    	LD	(HL),BC
0124E4 21 A6 46 01         A  7289    	LD	HL,_Cpu_Opcode
0124E8 01BD0000            A  7290    	LD	BC,189
0124EC 09                  A  7291    	ADD	HL,BC
0124ED 01 18 1D 01         A  7292    	LD	BC,_Opcode_0x3F
0124F1 ED0F                A  7293    	LD	(HL),BC
0124F3 21 A6 46 01         A  7294    	LD	HL,_Cpu_Opcode
0124F7 01C00000            A  7295    	LD	BC,192
0124FB 09                  A  7296    	ADD	HL,BC
0124FC 01 47 1A 01         A  7297    	LD	BC,_RTI
012500 ED0F                A  7298    	LD	(HL),BC
012502 21 A6 46 01         A  7299    	LD	HL,_Cpu_Opcode
012506 01C30000            A  7300    	LD	BC,195
01250A 09                  A  7301    	ADD	HL,BC
01250B 01 19 1D 01         A  7302    	LD	BC,_Opcode_0x41
01250F ED0F                A  7303    	LD	(HL),BC
012511 21 A6 46 01         A  7304    	LD	HL,_Cpu_Opcode
012515 01CF0000            A  7305    	LD	BC,207
012519 09                  A  7306    	ADD	HL,BC
01251A 01 22 1D 01         A  7307    	LD	BC,_Opcode_0x45
01251E ED0F                A  7308    	LD	(HL),BC
012520 21 A6 46 01         A  7309    	LD	HL,_Cpu_Opcode
012524 01D20000            A  7310    	LD	BC,210
012528 09                  A  7311    	ADD	HL,BC
012529 01 2B 1D 01         A  7312    	LD	BC,_Opcode_0x46
01252D ED0F                A  7313    	LD	(HL),BC
01252F 21 A6 46 01         A  7314    	LD	HL,_Cpu_Opcode
012533 01D80000            A  7315    	LD	BC,216
012537 09                  A  7316    	ADD	HL,BC
012538 01 8D 19 01         A  7317    	LD	BC,_PHA
01253C ED0F                A  7318    	LD	(HL),BC
01253E 21 A6 46 01         A  7319    	LD	HL,_Cpu_Opcode
012542 01DB0000            A  7320    	LD	BC,219
012546 09                  A  7321    	ADD	HL,BC
012547 01 34 1D 01         A  7322    	LD	BC,_Opcode_0x49
Zilog eZ80 Macro Assembler Version 4.1 (10060805) RELISTED19-Sep-11     11:50:04     page: 142


PC     Object              I  Line    Source C:\DOCUME~1\_Enzo_\Desktop\Zapp\Debug\main.src
01254B ED0F                A  7323    	LD	(HL),BC
01254D 21 A6 46 01         A  7324    	LD	HL,_Cpu_Opcode
012551 01DE0000            A  7325    	LD	BC,222
012555 09                  A  7326    	ADD	HL,BC
012556 01 4D 16 01         A  7327    	LD	BC,_LSR_A
01255A ED0F                A  7328    	LD	(HL),BC
01255C 21 A6 46 01         A  7329    	LD	HL,_Cpu_Opcode
012560 01E40000            A  7330    	LD	BC,228
012564 09                  A  7331    	ADD	HL,BC
012565 01 3D 1D 01         A  7332    	LD	BC,_Opcode_0x4C
012569 ED0F                A  7333    	LD	(HL),BC
01256B 21 A6 46 01         A  7334    	LD	HL,_Cpu_Opcode
01256F 01E70000            A  7335    	LD	BC,231
012573 09                  A  7336    	ADD	HL,BC
012574 01 46 1D 01         A  7337    	LD	BC,_Opcode_0x4D
012578 ED0F                A  7338    	LD	(HL),BC
01257A 21 A6 46 01         A  7339    	LD	HL,_Cpu_Opcode
01257E 01EA0000            A  7340    	LD	BC,234
012582 09                  A  7341    	ADD	HL,BC
012583 01 4F 1D 01         A  7342    	LD	BC,_Opcode_0x4E
012587 ED0F                A  7343    	LD	(HL),BC
012589 21 A6 46 01         A  7344    	LD	HL,_Cpu_Opcode
01258D 01F00000            A  7345    	LD	BC,240
012591 09                  A  7346    	ADD	HL,BC
012592 01 58 1D 01         A  7347    	LD	BC,_Opcode_0x50
012596 ED0F                A  7348    	LD	(HL),BC
012598 21 A6 46 01         A  7349    	LD	HL,_Cpu_Opcode
01259C 01F30000            A  7350    	LD	BC,243
0125A0 09                  A  7351    	ADD	HL,BC
0125A1 01 61 1D 01         A  7352    	LD	BC,_Opcode_0x51
0125A5 ED0F                A  7353    	LD	(HL),BC
0125A7 21 A6 46 01         A  7354    	LD	HL,_Cpu_Opcode
0125AB 01FF0000            A  7355    	LD	BC,255
0125AF 09                  A  7356    	ADD	HL,BC
0125B0 01 6A 1D 01         A  7357    	LD	BC,_Opcode_0x55
0125B4 ED0F                A  7358    	LD	(HL),BC
0125B6 21 A6 46 01         A  7359    	LD	HL,_Cpu_Opcode
0125BA 01020100            A  7360    	LD	BC,258
0125BE 09                  A  7361    	ADD	HL,BC
0125BF 01 73 1D 01         A  7362    	LD	BC,_Opcode_0x56
0125C3 ED0F                A  7363    	LD	(HL),BC
0125C5 21 A6 46 01         A  7364    	LD	HL,_Cpu_Opcode
0125C9 01080100            A  7365    	LD	BC,264
0125CD 09                  A  7366    	ADD	HL,BC
0125CE 01 AD 1B 01         A  7367    	LD	BC,_CLI
0125D2 ED0F                A  7368    	LD	(HL),BC
0125D4 21 A6 46 01         A  7369    	LD	HL,_Cpu_Opcode
0125D8 010B0100            A  7370    	LD	BC,267
0125DC 09                  A  7371    	ADD	HL,BC
0125DD 01 7C 1D 01         A  7372    	LD	BC,_Opcode_0x59
0125E1 ED0F                A  7373    	LD	(HL),BC
0125E3 21 A6 46 01         A  7374    	LD	HL,_Cpu_Opcode
Zilog eZ80 Macro Assembler Version 4.1 (10060805) RELISTED19-Sep-11     11:50:04     page: 143


PC     Object              I  Line    Source C:\DOCUME~1\_Enzo_\Desktop\Zapp\Debug\main.src
0125E7 01170100            A  7375    	LD	BC,279
0125EB 09                  A  7376    	ADD	HL,BC
0125EC 01 85 1D 01         A  7377    	LD	BC,_Opcode_0x5D
0125F0 ED0F                A  7378    	LD	(HL),BC
0125F2 21 A6 46 01         A  7379    	LD	HL,_Cpu_Opcode
0125F6 011A0100            A  7380    	LD	BC,282
0125FA 09                  A  7381    	ADD	HL,BC
0125FB 01 8E 1D 01         A  7382    	LD	BC,_Opcode_0x5E
0125FF ED0F                A  7383    	LD	(HL),BC
012601 21 A6 46 01         A  7384    	LD	HL,_Cpu_Opcode
012605 01200100            A  7385    	LD	BC,288
012609 09                  A  7386    	ADD	HL,BC
01260A 01 5B 1A 01         A  7387    	LD	BC,_RTS
01260E ED0F                A  7388    	LD	(HL),BC
012610 21 A6 46 01         A  7389    	LD	HL,_Cpu_Opcode
012614 01230100            A  7390    	LD	BC,291
012618 09                  A  7391    	ADD	HL,BC
012619 01 97 1D 01         A  7392    	LD	BC,_Opcode_0x61
01261D ED0F                A  7393    	LD	(HL),BC
01261F 21 A6 46 01         A  7394    	LD	HL,_Cpu_Opcode
012623 012F0100            A  7395    	LD	BC,303
012627 09                  A  7396    	ADD	HL,BC
012628 01 A0 1D 01         A  7397    	LD	BC,_Opcode_0x65
01262C ED0F                A  7398    	LD	(HL),BC
01262E 21 A6 46 01         A  7399    	LD	HL,_Cpu_Opcode
012632 01320100            A  7400    	LD	BC,306
012636 09                  A  7401    	ADD	HL,BC
012637 01 A9 1D 01         A  7402    	LD	BC,_Opcode_0x66
01263B ED0F                A  7403    	LD	(HL),BC
01263D 21 A6 46 01         A  7404    	LD	HL,_Cpu_Opcode
012641 01380100            A  7405    	LD	BC,312
012645 09                  A  7406    	ADD	HL,BC
012646 01 D9 19 01         A  7407    	LD	BC,_PLA
01264A ED0F                A  7408    	LD	(HL),BC
01264C 21 A6 46 01         A  7409    	LD	HL,_Cpu_Opcode
012650 013B0100            A  7410    	LD	BC,315
012654 09                  A  7411    	ADD	HL,BC
012655 01 B2 1D 01         A  7412    	LD	BC,_Opcode_0x69
012659 ED0F                A  7413    	LD	(HL),BC
01265B 21 A6 46 01         A  7414    	LD	HL,_Cpu_Opcode
01265F 013E0100            A  7415    	LD	BC,318
012663 09                  A  7416    	ADD	HL,BC
012664 01 05 18 01         A  7417    	LD	BC,_ROR_A
012668 ED0F                A  7418    	LD	(HL),BC
01266A 21 A6 46 01         A  7419    	LD	HL,_Cpu_Opcode
01266E 01440100            A  7420    	LD	BC,324
012672 09                  A  7421    	ADD	HL,BC
012673 01 BB 1D 01         A  7422    	LD	BC,_Opcode_0x6C
012677 ED0F                A  7423    	LD	(HL),BC
012679 21 A6 46 01         A  7424    	LD	HL,_Cpu_Opcode
01267D 01470100            A  7425    	LD	BC,327
012681 09                  A  7426    	ADD	HL,BC
Zilog eZ80 Macro Assembler Version 4.1 (10060805) RELISTED19-Sep-11     11:50:04     page: 144


PC     Object              I  Line    Source C:\DOCUME~1\_Enzo_\Desktop\Zapp\Debug\main.src
012682 01 C4 1D 01         A  7427    	LD	BC,_Opcode_0x6D
012686 ED0F                A  7428    	LD	(HL),BC
012688 21 A6 46 01         A  7429    	LD	HL,_Cpu_Opcode
01268C 014A0100            A  7430    	LD	BC,330
012690 09                  A  7431    	ADD	HL,BC
012691 01 CD 1D 01         A  7432    	LD	BC,_Opcode_0x6E
012695 ED0F                A  7433    	LD	(HL),BC
012697 21 A6 46 01         A  7434    	LD	HL,_Cpu_Opcode
01269B 01500100            A  7435    	LD	BC,336
01269F 09                  A  7436    	ADD	HL,BC
0126A0 01 D6 1D 01         A  7437    	LD	BC,_Opcode_0x70
0126A4 ED0F                A  7438    	LD	(HL),BC
0126A6 21 A6 46 01         A  7439    	LD	HL,_Cpu_Opcode
0126AA 01530100            A  7440    	LD	BC,339
0126AE 09                  A  7441    	ADD	HL,BC
0126AF 01 DF 1D 01         A  7442    	LD	BC,_Opcode_0x71
0126B3 ED0F                A  7443    	LD	(HL),BC
0126B5 21 A6 46 01         A  7444    	LD	HL,_Cpu_Opcode
0126B9 015F0100            A  7445    	LD	BC,351
0126BD 09                  A  7446    	ADD	HL,BC
0126BE 01 E8 1D 01         A  7447    	LD	BC,_Opcode_0x75
0126C2 ED0F                A  7448    	LD	(HL),BC
0126C4 21 A6 46 01         A  7449    	LD	HL,_Cpu_Opcode
0126C8 01620100            A  7450    	LD	BC,354
0126CC 09                  A  7451    	ADD	HL,BC
0126CD 01 F1 1D 01         A  7452    	LD	BC,_Opcode_0x76
0126D1 ED0F                A  7453    	LD	(HL),BC
0126D3 21 A6 46 01         A  7454    	LD	HL,_Cpu_Opcode
0126D7 01680100            A  7455    	LD	BC,360
0126DB 09                  A  7456    	ADD	HL,BC
0126DC 01 B8 1B 01         A  7457    	LD	BC,_SEI
0126E0 ED0F                A  7458    	LD	(HL),BC
0126E2 21 A6 46 01         A  7459    	LD	HL,_Cpu_Opcode
0126E6 016B0100            A  7460    	LD	BC,363
0126EA 09                  A  7461    	ADD	HL,BC
0126EB 01 FA 1D 01         A  7462    	LD	BC,_Opcode_0x79
0126EF ED0F                A  7463    	LD	(HL),BC
0126F1 21 A6 46 01         A  7464    	LD	HL,_Cpu_Opcode
0126F5 01770100            A  7465    	LD	BC,375
0126F9 09                  A  7466    	ADD	HL,BC
0126FA 01 03 1E 01         A  7467    	LD	BC,_Opcode_0x7D
0126FE ED0F                A  7468    	LD	(HL),BC
012700 21 A6 46 01         A  7469    	LD	HL,_Cpu_Opcode
012704 017A0100            A  7470    	LD	BC,378
012708 09                  A  7471    	ADD	HL,BC
012709 01 0C 1E 01         A  7472    	LD	BC,_Opcode_0x7E
01270D ED0F                A  7473    	LD	(HL),BC
01270F 21 A6 46 01         A  7474    	LD	HL,_Cpu_Opcode
012713 01830100            A  7475    	LD	BC,387
012717 09                  A  7476    	ADD	HL,BC
012718 01 15 1E 01         A  7477    	LD	BC,_Opcode_0x81
01271C ED0F                A  7478    	LD	(HL),BC
Zilog eZ80 Macro Assembler Version 4.1 (10060805) RELISTED19-Sep-11     11:50:04     page: 145


PC     Object              I  Line    Source C:\DOCUME~1\_Enzo_\Desktop\Zapp\Debug\main.src
01271E 21 A6 46 01         A  7479    	LD	HL,_Cpu_Opcode
012722 018C0100            A  7480    	LD	BC,396
012726 09                  A  7481    	ADD	HL,BC
012727 01 1E 1E 01         A  7482    	LD	BC,_Opcode_0x84
01272B ED0F                A  7483    	LD	(HL),BC
01272D 21 A6 46 01         A  7484    	LD	HL,_Cpu_Opcode
012731 018F0100            A  7485    	LD	BC,399
012735 09                  A  7486    	ADD	HL,BC
012736 01 27 1E 01         A  7487    	LD	BC,_Opcode_0x85
01273A ED0F                A  7488    	LD	(HL),BC
01273C 21 A6 46 01         A  7489    	LD	HL,_Cpu_Opcode
012740 01920100            A  7490    	LD	BC,402
012744 09                  A  7491    	ADD	HL,BC
012745 01 30 1E 01         A  7492    	LD	BC,_Opcode_0x86
012749 ED0F                A  7493    	LD	(HL),BC
01274B 21 A6 46 01         A  7494    	LD	HL,_Cpu_Opcode
01274F 01980100            A  7495    	LD	BC,408
012753 09                  A  7496    	ADD	HL,BC
012754 01 10 19 01         A  7497    	LD	BC,_DEY
012758 ED0F                A  7498    	LD	(HL),BC
01275A 21 A6 46 01         A  7499    	LD	HL,_Cpu_Opcode
01275E 019E0100            A  7500    	LD	BC,414
012762 09                  A  7501    	ADD	HL,BC
012763 01 36 1B 01         A  7502    	LD	BC,_TXA
012767 ED0F                A  7503    	LD	(HL),BC
012769 21 A6 46 01         A  7504    	LD	HL,_Cpu_Opcode
01276D 01A40100            A  7505    	LD	BC,420
012771 09                  A  7506    	ADD	HL,BC
012772 01 39 1E 01         A  7507    	LD	BC,_Opcode_0x8C
012776 ED0F                A  7508    	LD	(HL),BC
012778 21 A6 46 01         A  7509    	LD	HL,_Cpu_Opcode
01277C 01A70100            A  7510    	LD	BC,423
012780 09                  A  7511    	ADD	HL,BC
012781 01 42 1E 01         A  7512    	LD	BC,_Opcode_0x8D
012785 ED0F                A  7513    	LD	(HL),BC
012787 21 A6 46 01         A  7514    	LD	HL,_Cpu_Opcode
01278B 01AA0100            A  7515    	LD	BC,426
01278F 09                  A  7516    	ADD	HL,BC
012790 01 4B 1E 01         A  7517    	LD	BC,_Opcode_0x8E
012794 ED0F                A  7518    	LD	(HL),BC
012796 21 A6 46 01         A  7519    	LD	HL,_Cpu_Opcode
01279A 01B00100            A  7520    	LD	BC,432
01279E 09                  A  7521    	ADD	HL,BC
01279F 01 54 1E 01         A  7522    	LD	BC,_Opcode_0x90
0127A3 ED0F                A  7523    	LD	(HL),BC
0127A5 21 A6 46 01         A  7524    	LD	HL,_Cpu_Opcode
0127A9 01B30100            A  7525    	LD	BC,435
0127AD 09                  A  7526    	ADD	HL,BC
0127AE 01 5D 1E 01         A  7527    	LD	BC,_Opcode_0x91
0127B2 ED0F                A  7528    	LD	(HL),BC
0127B4 21 A6 46 01         A  7529    	LD	HL,_Cpu_Opcode
0127B8 01BC0100            A  7530    	LD	BC,444
Zilog eZ80 Macro Assembler Version 4.1 (10060805) RELISTED19-Sep-11     11:50:04     page: 146


PC     Object              I  Line    Source C:\DOCUME~1\_Enzo_\Desktop\Zapp\Debug\main.src
0127BC 09                  A  7531    	ADD	HL,BC
0127BD 01 66 1E 01         A  7532    	LD	BC,_Opcode_0x94
0127C1 ED0F                A  7533    	LD	(HL),BC
0127C3 21 A6 46 01         A  7534    	LD	HL,_Cpu_Opcode
0127C7 01BF0100            A  7535    	LD	BC,447
0127CB 09                  A  7536    	ADD	HL,BC
0127CC 01 6F 1E 01         A  7537    	LD	BC,_Opcode_0x95
0127D0 ED0F                A  7538    	LD	(HL),BC
0127D2 21 A6 46 01         A  7539    	LD	HL,_Cpu_Opcode
0127D6 01C20100            A  7540    	LD	BC,450
0127DA 09                  A  7541    	ADD	HL,BC
0127DB 01 78 1E 01         A  7542    	LD	BC,_Opcode_0x96
0127DF ED0F                A  7543    	LD	(HL),BC
0127E1 21 A6 46 01         A  7544    	LD	HL,_Cpu_Opcode
0127E5 01C80100            A  7545    	LD	BC,456
0127E9 09                  A  7546    	ADD	HL,BC
0127EA 01 62 1B 01         A  7547    	LD	BC,_TYA
0127EE ED0F                A  7548    	LD	(HL),BC
0127F0 21 A6 46 01         A  7549    	LD	HL,_Cpu_Opcode
0127F4 01CB0100            A  7550    	LD	BC,459
0127F8 09                  A  7551    	ADD	HL,BC
0127F9 01 81 1E 01         A  7552    	LD	BC,_Opcode_0x99
0127FD ED0F                A  7553    	LD	(HL),BC
0127FF 21 A6 46 01         A  7554    	LD	HL,_Cpu_Opcode
012803 01CE0100            A  7555    	LD	BC,462
012807 09                  A  7556    	ADD	HL,BC
012808 01 78 1B 01         A  7557    	LD	BC,_TXS
01280C ED0F                A  7558    	LD	(HL),BC
01280E 21 A6 46 01         A  7559    	LD	HL,_Cpu_Opcode
012812 01D70100            A  7560    	LD	BC,471
012816 09                  A  7561    	ADD	HL,BC
012817 01 8A 1E 01         A  7562    	LD	BC,_Opcode_0x9D
01281B ED0F                A  7563    	LD	(HL),BC
01281D 21 A6 46 01         A  7564    	LD	HL,_Cpu_Opcode
012821 01E00100            A  7565    	LD	BC,480
012825 09                  A  7566    	ADD	HL,BC
012826 01 93 1E 01         A  7567    	LD	BC,_Opcode_0xA0
01282A ED0F                A  7568    	LD	(HL),BC
01282C 21 A6 46 01         A  7569    	LD	HL,_Cpu_Opcode
012830 01E30100            A  7570    	LD	BC,483
012834 09                  A  7571    	ADD	HL,BC
012835 01 9C 1E 01         A  7572    	LD	BC,_Opcode_0xA1
012839 ED0F                A  7573    	LD	(HL),BC
01283B 21 A6 46 01         A  7574    	LD	HL,_Cpu_Opcode
01283F 01E60100            A  7575    	LD	BC,486
012843 09                  A  7576    	ADD	HL,BC
012844 01 A5 1E 01         A  7577    	LD	BC,_Opcode_0xA2
012848 ED0F                A  7578    	LD	(HL),BC
01284A 21 A6 46 01         A  7579    	LD	HL,_Cpu_Opcode
01284E 01EC0100            A  7580    	LD	BC,492
012852 09                  A  7581    	ADD	HL,BC
012853 01 AE 1E 01         A  7582    	LD	BC,_Opcode_0xA4
Zilog eZ80 Macro Assembler Version 4.1 (10060805) RELISTED19-Sep-11     11:50:04     page: 147


PC     Object              I  Line    Source C:\DOCUME~1\_Enzo_\Desktop\Zapp\Debug\main.src
012857 ED0F                A  7583    	LD	(HL),BC
012859 21 A6 46 01         A  7584    	LD	HL,_Cpu_Opcode
01285D 01EF0100            A  7585    	LD	BC,495
012861 09                  A  7586    	ADD	HL,BC
012862 01 B7 1E 01         A  7587    	LD	BC,_Opcode_0xA5
012866 ED0F                A  7588    	LD	(HL),BC
012868 21 A6 46 01         A  7589    	LD	HL,_Cpu_Opcode
01286C 01F20100            A  7590    	LD	BC,498
012870 09                  A  7591    	ADD	HL,BC
012871 01 C0 1E 01         A  7592    	LD	BC,_Opcode_0xA6
012875 ED0F                A  7593    	LD	(HL),BC
012877 21 A6 46 01         A  7594    	LD	HL,_Cpu_Opcode
01287B 01F80100            A  7595    	LD	BC,504
01287F 09                  A  7596    	ADD	HL,BC
012880 01 4C 1B 01         A  7597    	LD	BC,_TAY
012884 ED0F                A  7598    	LD	(HL),BC
012886 21 A6 46 01         A  7599    	LD	HL,_Cpu_Opcode
01288A 01FB0100            A  7600    	LD	BC,507
01288E 09                  A  7601    	ADD	HL,BC
01288F 01 C9 1E 01         A  7602    	LD	BC,_Opcode_0xA9
012893 ED0F                A  7603    	LD	(HL),BC
012895 21 A6 46 01         A  7604    	LD	HL,_Cpu_Opcode
012899 01FE0100            A  7605    	LD	BC,510
01289D 09                  A  7606    	ADD	HL,BC
01289E 01 20 1B 01         A  7607    	LD	BC,_TAX
0128A2 ED0F                A  7608    	LD	(HL),BC
0128A4 21 A6 46 01         A  7609    	LD	HL,_Cpu_Opcode
0128A8 01040200            A  7610    	LD	BC,516
0128AC 09                  A  7611    	ADD	HL,BC
0128AD 01 D2 1E 01         A  7612    	LD	BC,_Opcode_0xAC
0128B1 ED0F                A  7613    	LD	(HL),BC
0128B3 21 A6 46 01         A  7614    	LD	HL,_Cpu_Opcode
0128B7 01070200            A  7615    	LD	BC,519
0128BB 09                  A  7616    	ADD	HL,BC
0128BC 01 DB 1E 01         A  7617    	LD	BC,_Opcode_0xAD
0128C0 ED0F                A  7618    	LD	(HL),BC
0128C2 21 A6 46 01         A  7619    	LD	HL,_Cpu_Opcode
0128C6 010A0200            A  7620    	LD	BC,522
0128CA 09                  A  7621    	ADD	HL,BC
0128CB 01 E4 1E 01         A  7622    	LD	BC,_Opcode_0xAE
0128CF ED0F                A  7623    	LD	(HL),BC
0128D1 21 A6 46 01         A  7624    	LD	HL,_Cpu_Opcode
0128D5 01100200            A  7625    	LD	BC,528
0128D9 09                  A  7626    	ADD	HL,BC
0128DA 01 ED 1E 01         A  7627    	LD	BC,_Opcode_0xB0
0128DE ED0F                A  7628    	LD	(HL),BC
0128E0 21 A6 46 01         A  7629    	LD	HL,_Cpu_Opcode
0128E4 01130200            A  7630    	LD	BC,531
0128E8 09                  A  7631    	ADD	HL,BC
0128E9 01 F6 1E 01         A  7632    	LD	BC,_Opcode_0xB1
0128ED ED0F                A  7633    	LD	(HL),BC
0128EF 21 A6 46 01         A  7634    	LD	HL,_Cpu_Opcode
Zilog eZ80 Macro Assembler Version 4.1 (10060805) RELISTED19-Sep-11     11:50:04     page: 148


PC     Object              I  Line    Source C:\DOCUME~1\_Enzo_\Desktop\Zapp\Debug\main.src
0128F3 011C0200            A  7635    	LD	BC,540
0128F7 09                  A  7636    	ADD	HL,BC
0128F8 01 FF 1E 01         A  7637    	LD	BC,_Opcode_0xB4
0128FC ED0F                A  7638    	LD	(HL),BC
0128FE 21 A6 46 01         A  7639    	LD	HL,_Cpu_Opcode
012902 011F0200            A  7640    	LD	BC,543
012906 09                  A  7641    	ADD	HL,BC
012907 01 08 1F 01         A  7642    	LD	BC,_Opcode_0xB5
01290B ED0F                A  7643    	LD	(HL),BC
01290D 21 A6 46 01         A  7644    	LD	HL,_Cpu_Opcode
012911 01220200            A  7645    	LD	BC,546
012915 09                  A  7646    	ADD	HL,BC
012916 01 11 1F 01         A  7647    	LD	BC,_Opcode_0xB6
01291A ED0F                A  7648    	LD	(HL),BC
01291C 21 A6 46 01         A  7649    	LD	HL,_Cpu_Opcode
012920 01280200            A  7650    	LD	BC,552
012924 09                  A  7651    	ADD	HL,BC
012925 01 C3 1B 01         A  7652    	LD	BC,_CLV
012929 ED0F                A  7653    	LD	(HL),BC
01292B 21 A6 46 01         A  7654    	LD	HL,_Cpu_Opcode
01292F 012B0200            A  7655    	LD	BC,555
012933 09                  A  7656    	ADD	HL,BC
012934 01 1A 1F 01         A  7657    	LD	BC,_Opcode_0xB9
012938 ED0F                A  7658    	LD	(HL),BC
01293A 21 A6 46 01         A  7659    	LD	HL,_Cpu_Opcode
01293E 012E0200            A  7660    	LD	BC,558
012942 09                  A  7661    	ADD	HL,BC
012943 01 81 1B 01         A  7662    	LD	BC,_TSX
012947 ED0F                A  7663    	LD	(HL),BC
012949 21 A6 46 01         A  7664    	LD	HL,_Cpu_Opcode
01294D 01340200            A  7665    	LD	BC,564
012951 09                  A  7666    	ADD	HL,BC
012952 01 23 1F 01         A  7667    	LD	BC,_Opcode_0xBC
012956 ED0F                A  7668    	LD	(HL),BC
012958 21 A6 46 01         A  7669    	LD	HL,_Cpu_Opcode
01295C 01370200            A  7670    	LD	BC,567
012960 09                  A  7671    	ADD	HL,BC
012961 01 2C 1F 01         A  7672    	LD	BC,_Opcode_0xBD
012965 ED0F                A  7673    	LD	(HL),BC
012967 21 A6 46 01         A  7674    	LD	HL,_Cpu_Opcode
01296B 013A0200            A  7675    	LD	BC,570
01296F 09                  A  7676    	ADD	HL,BC
012970 01 35 1F 01         A  7677    	LD	BC,_Opcode_0xBE
012974 ED0F                A  7678    	LD	(HL),BC
012976 21 A6 46 01         A  7679    	LD	HL,_Cpu_Opcode
01297A 01400200            A  7680    	LD	BC,576
01297E 09                  A  7681    	ADD	HL,BC
01297F 01 3E 1F 01         A  7682    	LD	BC,_Opcode_0xC0
012983 ED0F                A  7683    	LD	(HL),BC
012985 21 A6 46 01         A  7684    	LD	HL,_Cpu_Opcode
012989 01430200            A  7685    	LD	BC,579
01298D 09                  A  7686    	ADD	HL,BC
Zilog eZ80 Macro Assembler Version 4.1 (10060805) RELISTED19-Sep-11     11:50:04     page: 149


PC     Object              I  Line    Source C:\DOCUME~1\_Enzo_\Desktop\Zapp\Debug\main.src
01298E 01 47 1F 01         A  7687    	LD	BC,_Opcode_0xC1
012992 ED0F                A  7688    	LD	(HL),BC
012994 21 A6 46 01         A  7689    	LD	HL,_Cpu_Opcode
012998 014C0200            A  7690    	LD	BC,588
01299C 09                  A  7691    	ADD	HL,BC
01299D 01 50 1F 01         A  7692    	LD	BC,_Opcode_0xC4
0129A1 ED0F                A  7693    	LD	(HL),BC
0129A3 21 A6 46 01         A  7694    	LD	HL,_Cpu_Opcode
0129A7 014F0200            A  7695    	LD	BC,591
0129AB 09                  A  7696    	ADD	HL,BC
0129AC 01 59 1F 01         A  7697    	LD	BC,_Opcode_0xC5
0129B0 ED0F                A  7698    	LD	(HL),BC
0129B2 21 A6 46 01         A  7699    	LD	HL,_Cpu_Opcode
0129B6 01520200            A  7700    	LD	BC,594
0129BA 09                  A  7701    	ADD	HL,BC
0129BB 01 62 1F 01         A  7702    	LD	BC,_Opcode_0xC6
0129BF ED0F                A  7703    	LD	(HL),BC
0129C1 21 A6 46 01         A  7704    	LD	HL,_Cpu_Opcode
0129C5 01580200            A  7705    	LD	BC,600
0129C9 09                  A  7706    	ADD	HL,BC
0129CA 01 EA 18 01         A  7707    	LD	BC,_INY
0129CE ED0F                A  7708    	LD	(HL),BC
0129D0 21 A6 46 01         A  7709    	LD	HL,_Cpu_Opcode
0129D4 015B0200            A  7710    	LD	BC,603
0129D8 09                  A  7711    	ADD	HL,BC
0129D9 01 6B 1F 01         A  7712    	LD	BC,_Opcode_0xC9
0129DD ED0F                A  7713    	LD	(HL),BC
0129DF 21 A6 46 01         A  7714    	LD	HL,_Cpu_Opcode
0129E3 015E0200            A  7715    	LD	BC,606
0129E7 09                  A  7716    	ADD	HL,BC
0129E8 01 FD 18 01         A  7717    	LD	BC,_DEX
0129EC ED0F                A  7718    	LD	(HL),BC
0129EE 21 A6 46 01         A  7719    	LD	HL,_Cpu_Opcode
0129F2 01640200            A  7720    	LD	BC,612
0129F6 09                  A  7721    	ADD	HL,BC
0129F7 01 74 1F 01         A  7722    	LD	BC,_Opcode_0xCC
0129FB ED0F                A  7723    	LD	(HL),BC
0129FD 21 A6 46 01         A  7724    	LD	HL,_Cpu_Opcode
012A01 01670200            A  7725    	LD	BC,615
012A05 09                  A  7726    	ADD	HL,BC
012A06 01 7D 1F 01         A  7727    	LD	BC,_Opcode_0xCD
012A0A ED0F                A  7728    	LD	(HL),BC
012A0C 21 A6 46 01         A  7729    	LD	HL,_Cpu_Opcode
012A10 016A0200            A  7730    	LD	BC,618
012A14 09                  A  7731    	ADD	HL,BC
012A15 01 86 1F 01         A  7732    	LD	BC,_Opcode_0xCE
012A19 ED0F                A  7733    	LD	(HL),BC
012A1B 21 A6 46 01         A  7734    	LD	HL,_Cpu_Opcode
012A1F 01700200            A  7735    	LD	BC,624
012A23 09                  A  7736    	ADD	HL,BC
012A24 01 8F 1F 01         A  7737    	LD	BC,_Opcode_0xD0
012A28 ED0F                A  7738    	LD	(HL),BC
Zilog eZ80 Macro Assembler Version 4.1 (10060805) RELISTED19-Sep-11     11:50:04     page: 150


PC     Object              I  Line    Source C:\DOCUME~1\_Enzo_\Desktop\Zapp\Debug\main.src
012A2A 21 A6 46 01         A  7739    	LD	HL,_Cpu_Opcode
012A2E 01730200            A  7740    	LD	BC,627
012A32 09                  A  7741    	ADD	HL,BC
012A33 01 98 1F 01         A  7742    	LD	BC,_Opcode_0xD1
012A37 ED0F                A  7743    	LD	(HL),BC
012A39 21 A6 46 01         A  7744    	LD	HL,_Cpu_Opcode
012A3D 017F0200            A  7745    	LD	BC,639
012A41 09                  A  7746    	ADD	HL,BC
012A42 01 A1 1F 01         A  7747    	LD	BC,_Opcode_0xD5
012A46 ED0F                A  7748    	LD	(HL),BC
012A48 21 A6 46 01         A  7749    	LD	HL,_Cpu_Opcode
012A4C 01820200            A  7750    	LD	BC,642
012A50 09                  A  7751    	ADD	HL,BC
012A51 01 AA 1F 01         A  7752    	LD	BC,_Opcode_0xD6
012A55 ED0F                A  7753    	LD	(HL),BC
012A57 21 A6 46 01         A  7754    	LD	HL,_Cpu_Opcode
012A5B 01880200            A  7755    	LD	BC,648
012A5F 09                  A  7756    	ADD	HL,BC
012A60 01 CE 1B 01         A  7757    	LD	BC,_CLD
012A64 ED0F                A  7758    	LD	(HL),BC
012A66 21 A6 46 01         A  7759    	LD	HL,_Cpu_Opcode
012A6A 018B0200            A  7760    	LD	BC,651
012A6E 09                  A  7761    	ADD	HL,BC
012A6F 01 B3 1F 01         A  7762    	LD	BC,_Opcode_0xD9
012A73 ED0F                A  7763    	LD	(HL),BC
012A75 21 A6 46 01         A  7764    	LD	HL,_Cpu_Opcode
012A79 01970200            A  7765    	LD	BC,663
012A7D 09                  A  7766    	ADD	HL,BC
012A7E 01 BC 1F 01         A  7767    	LD	BC,_Opcode_0xDD
012A82 ED0F                A  7768    	LD	(HL),BC
012A84 21 A6 46 01         A  7769    	LD	HL,_Cpu_Opcode
012A88 019A0200            A  7770    	LD	BC,666
012A8C 09                  A  7771    	ADD	HL,BC
012A8D 01 C5 1F 01         A  7772    	LD	BC,_Opcode_0xDE
012A91 ED0F                A  7773    	LD	(HL),BC
012A93 21 A6 46 01         A  7774    	LD	HL,_Cpu_Opcode
012A97 01A00200            A  7775    	LD	BC,672
012A9B 09                  A  7776    	ADD	HL,BC
012A9C 01 CE 1F 01         A  7777    	LD	BC,_Opcode_0xE0
012AA0 ED0F                A  7778    	LD	(HL),BC
012AA2 21 A6 46 01         A  7779    	LD	HL,_Cpu_Opcode
012AA6 01A30200            A  7780    	LD	BC,675
012AAA 09                  A  7781    	ADD	HL,BC
012AAB 01 D7 1F 01         A  7782    	LD	BC,_Opcode_0xE1
012AAF ED0F                A  7783    	LD	(HL),BC
012AB1 21 A6 46 01         A  7784    	LD	HL,_Cpu_Opcode
012AB5 01AC0200            A  7785    	LD	BC,684
012AB9 09                  A  7786    	ADD	HL,BC
012ABA 01 E0 1F 01         A  7787    	LD	BC,_Opcode_0xE4
012ABE ED0F                A  7788    	LD	(HL),BC
012AC0 21 A6 46 01         A  7789    	LD	HL,_Cpu_Opcode
012AC4 01AF0200            A  7790    	LD	BC,687
Zilog eZ80 Macro Assembler Version 4.1 (10060805) RELISTED19-Sep-11     11:50:04     page: 151


PC     Object              I  Line    Source C:\DOCUME~1\_Enzo_\Desktop\Zapp\Debug\main.src
012AC8 09                  A  7791    	ADD	HL,BC
012AC9 01 E9 1F 01         A  7792    	LD	BC,_Opcode_0xE5
012ACD ED0F                A  7793    	LD	(HL),BC
012ACF 21 A6 46 01         A  7794    	LD	HL,_Cpu_Opcode
012AD3 01B20200            A  7795    	LD	BC,690
012AD7 09                  A  7796    	ADD	HL,BC
012AD8 01 F2 1F 01         A  7797    	LD	BC,_Opcode_0xE6
012ADC ED0F                A  7798    	LD	(HL),BC
012ADE 21 A6 46 01         A  7799    	LD	HL,_Cpu_Opcode
012AE2 01B80200            A  7800    	LD	BC,696
012AE6 09                  A  7801    	ADD	HL,BC
012AE7 01 D7 18 01         A  7802    	LD	BC,_INX
012AEB ED0F                A  7803    	LD	(HL),BC
012AED 21 A6 46 01         A  7804    	LD	HL,_Cpu_Opcode
012AF1 01BB0200            A  7805    	LD	BC,699
012AF5 09                  A  7806    	ADD	HL,BC
012AF6 01 FB 1F 01         A  7807    	LD	BC,_Opcode_0xE9
012AFA ED0F                A  7808    	LD	(HL),BC
012AFC 21 A6 46 01         A  7809    	LD	HL,_Cpu_Opcode
012B00 01BE0200            A  7810    	LD	BC,702
012B04 09                  A  7811    	ADD	HL,BC
012B05 01 18 1D 01         A  7812    	LD	BC,_Opcode_0x3F
012B09 ED0F                A  7813    	LD	(HL),BC
012B0B 21 A6 46 01         A  7814    	LD	HL,_Cpu_Opcode
012B0F 01C10200            A  7815    	LD	BC,705
012B13 09                  A  7816    	ADD	HL,BC
012B14 01 04 20 01         A  7817    	LD	BC,_Opcode_0xEB
012B18 ED0F                A  7818    	LD	(HL),BC
012B1A 21 A6 46 01         A  7819    	LD	HL,_Cpu_Opcode
012B1E 01C40200            A  7820    	LD	BC,708
012B22 09                  A  7821    	ADD	HL,BC
012B23 01 0D 20 01         A  7822    	LD	BC,_Opcode_0xEC
012B27 ED0F                A  7823    	LD	(HL),BC
012B29 21 A6 46 01         A  7824    	LD	HL,_Cpu_Opcode
012B2D 01C70200            A  7825    	LD	BC,711
012B31 09                  A  7826    	ADD	HL,BC
012B32 01 16 20 01         A  7827    	LD	BC,_Opcode_0xED
012B36 ED0F                A  7828    	LD	(HL),BC
012B38 21 A6 46 01         A  7829    	LD	HL,_Cpu_Opcode
012B3C 01CA0200            A  7830    	LD	BC,714
012B40 09                  A  7831    	ADD	HL,BC
012B41 01 1F 20 01         A  7832    	LD	BC,_Opcode_0xEE
012B45 ED0F                A  7833    	LD	(HL),BC
012B47 21 A6 46 01         A  7834    	LD	HL,_Cpu_Opcode
012B4B 01D00200            A  7835    	LD	BC,720
012B4F 09                  A  7836    	ADD	HL,BC
012B50 01 28 20 01         A  7837    	LD	BC,_Opcode_0xF0
012B54 ED0F                A  7838    	LD	(HL),BC
012B56 21 A6 46 01         A  7839    	LD	HL,_Cpu_Opcode
012B5A 01D30200            A  7840    	LD	BC,723
012B5E 09                  A  7841    	ADD	HL,BC
012B5F 01 31 20 01         A  7842    	LD	BC,_Opcode_0xF1
Zilog eZ80 Macro Assembler Version 4.1 (10060805) RELISTED19-Sep-11     11:50:04     page: 152


PC     Object              I  Line    Source C:\DOCUME~1\_Enzo_\Desktop\Zapp\Debug\main.src
012B63 ED0F                A  7843    	LD	(HL),BC
012B65 21 A6 46 01         A  7844    	LD	HL,_Cpu_Opcode
012B69 01DF0200            A  7845    	LD	BC,735
012B6D 09                  A  7846    	ADD	HL,BC
012B6E 01 3A 20 01         A  7847    	LD	BC,_Opcode_0xF5
012B72 ED0F                A  7848    	LD	(HL),BC
012B74 21 A6 46 01         A  7849    	LD	HL,_Cpu_Opcode
012B78 01E20200            A  7850    	LD	BC,738
012B7C 09                  A  7851    	ADD	HL,BC
012B7D 01 43 20 01         A  7852    	LD	BC,_Opcode_0xF6
012B81 ED0F                A  7853    	LD	(HL),BC
012B83 21 A6 46 01         A  7854    	LD	HL,_Cpu_Opcode
012B87 01E80200            A  7855    	LD	BC,744
012B8B 09                  A  7856    	ADD	HL,BC
012B8C 01 D9 1B 01         A  7857    	LD	BC,_SED
012B90 ED0F                A  7858    	LD	(HL),BC
012B92 21 A6 46 01         A  7859    	LD	HL,_Cpu_Opcode
012B96 01EB0200            A  7860    	LD	BC,747
012B9A 09                  A  7861    	ADD	HL,BC
012B9B 01 4C 20 01         A  7862    	LD	BC,_Opcode_0xF9
012B9F ED0F                A  7863    	LD	(HL),BC
012BA1 21 A6 46 01         A  7864    	LD	HL,_Cpu_Opcode
012BA5 01F70200            A  7865    	LD	BC,759
012BA9 09                  A  7866    	ADD	HL,BC
012BAA 01 55 20 01         A  7867    	LD	BC,_Opcode_0xFD
012BAE ED0F                A  7868    	LD	(HL),BC
012BB0 21 A6 46 01         A  7869    	LD	HL,_Cpu_Opcode
012BB4 01FA0200            A  7870    	LD	BC,762
012BB8 09                  A  7871    	ADD	HL,BC
012BB9 01 5E 20 01         A  7872    	LD	BC,_Opcode_0xFE
012BBD ED0F                A  7873    	LD	(HL),BC
012BBF DDF9                A  7874    	LD	SP,IX
012BC1 DDE1                A  7875    	POP	IX
012BC3 C9                  A  7876    	RET	
                           A  7877    
                           A  7878    
                           A  7879    ;**************************** _Init_Opcode_Tabl
                           A  7880    ;Name                         Addr/Register   S
                           A  7881    ;_Cpu_Opcode                         STATIC    
                           A  7882    
                           A  7883    
                           A  7884    ; Stack Frame Size: 84 (bytes)
                           A  7885    ;       Spill Code: 76 (instruction)
                           A  7886    
                           A  7887    
012BC4                     A  7888    _Execute_Opcode:
012BC4 21FCFFFF            A  7889    	LD	HL,-4
012BC8 CD 3A 36 01         A  7890    	CALL	__frameset
012BCC ED4B 59 46 01       A  7891    	LD	BC,(_programCounter)
012BD1 C5                  A  7892    	PUSH	BC
012BD2 ED4B 59 46 01       A  7893    	LD	BC,(_programCounter)
012BD7 03                  A  7894    	INC	BC
Zilog eZ80 Macro Assembler Version 4.1 (10060805) RELISTED19-Sep-11     11:50:04     page: 153


PC     Object              I  Line    Source C:\DOCUME~1\_Enzo_\Desktop\Zapp\Debug\main.src
012BD8 ED43 59 46 01       A  7895    	LD	(_programCounter),BC
012BDD CD 07 08 01         A  7896    	CALL	_Mem_Read
012BE1 C1                  A  7897    	POP	BC
012BE2 DD77FF              A  7898    	LD	(IX+-1),A
012BE5 B7ED62              A  7899    	UEXT	HL
012BE8 6F                  A  7900    	LD	L,A
012BE9 E5C1                A  7901    	LD	BC,HL
012BEB C5E1                A  7902    	LD	HL,BC
012BED 29                  A  7903    	ADD	HL,HL
012BEE 29                  A  7904    	ADD	HL,HL
012BEF B7                  A  7905    	OR	A,A
012BF0 ED42                A  7906    	SBC	HL,BC
012BF2 01 A6 46 01         A  7907    	LD	BC,_Cpu_Opcode
012BF6 09                  A  7908    	ADD	HL,BC
012BF7 DD2FFC              A  7909    	LD	(IX+-4),HL
012BFA ED27                A  7910    	LD	HL,(HL)
012BFC B7                  A  7911    	OR	A,A
012BFD 01000000            A  7912    	LD	BC,0
012C01 ED42                A  7913    	SBC	HL,BC
012C03 28 09               A  7914    	JR	Z,L_483
012C05 DD27FC              A  7915    	LD	HL,(IX+-4)
012C08 ED31                A  7916    	LD	IY,(HL)
012C0A CD CF 36 01         A  7917    	CALL	__indcall
012C0E                     A  7918    L_483:
012C0E DDF9                A  7919    	LD	SP,IX
012C10 DDE1                A  7920    	POP	IX
012C12 C9                  A  7921    	RET	
                           A  7922    
                           A  7923    
                           A  7924    ;**************************** _Execute_Opcode *
                           A  7925    ;Name                         Addr/Register   S
                           A  7926    ;_Cpu_Opcode                         STATIC    
                           A  7927    ;_programCounter                     STATIC    
                           A  7928    ;G_2                                   IX-4    
                           A  7929    ;opcode                                IX-1    
                           A  7930    
                           A  7931    
                           A  7932    ; Stack Frame Size: 10 (bytes)
                           A  7933    ;       Spill Code: 0 (instruction)
                           A  7934    
                           A  7935    
012C13                     A  7936    _Run_M6502:
012C13 3A 9F 46 01         A  7937    	LD	A,(_statusRegister)
012C17 E604                A  7938    	AND	A,4
012C19 20 11               A  7939    	JR	NZ,L_487
012C1B 01000000            A  7940    	LD	BC,0
012C1F 2A A0 46 01         A  7941    	LD	HL,(_IRQ)
012C23 B7                  A  7942    	OR	A,A
012C24 ED42                A  7943    	SBC	HL,BC
012C26 28 04               A  7944    	JR	Z,L_487
012C28 CD 0A 0A 01         A  7945    	CALL	_handleIRQ
012C2C                     A  7946    L_487:
Zilog eZ80 Macro Assembler Version 4.1 (10060805) RELISTED19-Sep-11     11:50:04     page: 154


PC     Object              I  Line    Source C:\DOCUME~1\_Enzo_\Desktop\Zapp\Debug\main.src
012C2C 01000000            A  7947    	LD	BC,0
012C30 2A A3 46 01         A  7948    	LD	HL,(_NMI)
012C34 B7                  A  7949    	OR	A,A
012C35 ED42                A  7950    	SBC	HL,BC
012C37 28 04               A  7951    	JR	Z,L_488
012C39 CD 54 0A 01         A  7952    	CALL	_handleNMI
012C3D                     A  7953    L_488:
012C3D CD C4 2B 01         A  7954    	CALL	_Execute_Opcode
012C41 C9                  A  7955    	RET	
                           A  7956    
                           A  7957    
                           A  7958    ;**************************** _Run_M6502 ******
                           A  7959    ;Name                         Addr/Register   S
                           A  7960    ;_NMI                                STATIC    
                           A  7961    ;_IRQ                                STATIC    
                           A  7962    ;_statusRegister                     STATIC    
                           A  7963    
                           A  7964    
                           A  7965    ; Stack Frame Size: 6 (bytes)
                           A  7966    ;       Spill Code: 0 (instruction)
                           A  7967    
                           A  7968    
012C42                     A  7969    _Reset_M6502:
012C42 3A 9F 46 01         A  7970    	LD	A,(_statusRegister)
012C46 01FCFF00            A  7971    	LD	BC,65532
012C4A C5                  A  7972    	PUSH	BC
012C4B CBD7                A  7973    	SET	2,A
012C4D 32 9F 46 01         A  7974    	LD	(_statusRegister),A
012C51 3EFF                A  7975    	LD	A,255
012C53 32 58 46 01         A  7976    	LD	(_stackPointer),A
012C57 CD 31 09 01         A  7977    	CALL	_Mem_Read_Absolute
012C5B C1                  A  7978    	POP	BC
012C5C E5C1                A  7979    	LD	BC,HL
012C5E CD D5 35 01         A  7980    	CALL	__stoiu
012C62 22 59 46 01         A  7981    	LD	(_programCounter),HL
012C66 C9                  A  7982    	RET	
                           A  7983    
                           A  7984    
                           A  7985    ;**************************** _Reset_M6502 ****
                           A  7986    ;Name                         Addr/Register   S
                           A  7987    ;_programCounter                     STATIC    
                           A  7988    ;_stackPointer                       STATIC    
                           A  7989    ;_statusRegister                     STATIC    
                           A  7990    
                           A  7991    
                           A  7992    ; Stack Frame Size: 6 (bytes)
                           A  7993    ;       Spill Code: 0 (instruction)
                           A  7994    
                           A  7995    
012C67                     A  7996    _Set_IRQ:
012C67 CD 11 36 01         A  7997    	CALL	__frameset0
012C6B DD0706              A  7998    	LD	BC,(IX+6)
Zilog eZ80 Macro Assembler Version 4.1 (10060805) RELISTED19-Sep-11     11:50:04     page: 155


PC     Object              I  Line    Source C:\DOCUME~1\_Enzo_\Desktop\Zapp\Debug\main.src
012C6E ED43 A0 46 01       A  7999    	LD	(_IRQ),BC
012C73 DDF9                A  8000    	LD	SP,IX
012C75 DDE1                A  8001    	POP	IX
012C77 C9                  A  8002    	RET	
                           A  8003    
                           A  8004    
                           A  8005    ;**************************** _Set_IRQ ********
                           A  8006    ;Name                         Addr/Register   S
                           A  8007    ;_IRQ                                STATIC    
                           A  8008    ;state                                 IX+6    
                           A  8009    
                           A  8010    
                           A  8011    ; Stack Frame Size: 9 (bytes)
                           A  8012    ;       Spill Code: 0 (instruction)
                           A  8013    
                           A  8014    
012C78                     A  8015    _setNMI:
012C78 01010000            A  8016    	LD	BC,1
012C7C ED43 A3 46 01       A  8017    	LD	(_NMI),BC
                           A  8018    ;   63	}
                           A  8019    ;   64	
                           A  8020    ;   65	#include "Screen.c"
                           A  8021    ;   66	#include "Pia6820.c"
                           A  8022    ;   67	#include "Memory.c"
                           A  8023    ;   68	#include "M6502.c"
                           A  8024    ;   69	
                           A  8025    ;   70	void MyMain(void)
                           A  8026    ;   71	{
                           A  8027    ;   72		MSec_Counter(ENABLE_MSEC_COUNTER);
                           A  8028    ;   73		
                           A  8029    ;   74		Init_Opcode_Table();
                           A  8030    ;   75		
                           A  8031    ;   76		print("\n\r");
                           A  8032    ;   77		print("Zapp - eZ80P Apple 1 Emulato
                           A  8033    ;   78		print ("Load system roms...\n\r");
                           A  8034    ;   79		
                           A  8035    ;   80		if (LoadCharMap() == 1)
                           A  8036    ;   81		{
                           A  8037    ;   82			print("Error while loading char
                           A  8038    ;   83			
                           A  8039    ;   84			goto EndProgram;
                           A  8040    ;   85		}
                           A  8041    ;   86		
                           A  8042    ;   87		if (Load_Monitor() == 1)
                           A  8043    ;   88		{
                           A  8044    ;   89			print("Error while loading moni
                           A  8045    ;   90			
                           A  8046    ;   91			goto EndProgram;
                           A  8047    ;   92		}
                           A  8048    ;   93			
                           A  8049    ;   94		Set_Screen();
                           A  8050    ;   95	
Zilog eZ80 Macro Assembler Version 4.1 (10060805) RELISTED19-Sep-11     11:50:04     page: 156


PC     Object              I  Line    Source C:\DOCUME~1\_Enzo_\Desktop\Zapp\Debug\main.src
                           A  8051    ;   96		Reset_Screen();
                           A  8052    ;   97		
                           A  8053    ;   98		Reset_Memory();
                           A  8054    ;   99		
                           A  8055    ;  100		//Set_Speed(1000, 50);
                           A  8056    ;  101		
                           A  8057    ;  102		if (Param != NULL)
                           A  8058    ;  103			if (Load_Dump() == 0)
                           A  8059    ;  104			{
                           A  8060    ;  105				if ((mem[0xF000] != 0) && (
                           A  8061    ;  106				{
                           A  8062    ;  107					Flip_Mode();
                           A  8063    ;  108					
                           A  8064    ;  109					Show_Mode();
                           A  8065    ;  110				}				
                           A  8066    ;  111				
                           A  8067    ;  112				Reset_Pia6820();			                           A  8068    ;  113			}
                           A  8069    ;  114		
                           A  8070    ;  115		Reset_M6502();
                           A  8071    ;  116		
                           A  8072    ;  117		while (Handle_Input())
                           A  8073    ;  118			Run_M6502();
                           A  8074    ;  119		
                           A  8075    ;  120		Close_Screen();
                           A  8076    ;  121		
                           A  8077    ;  122		EndProgram:
                           A  8078    ;  123		MSec_Counter(DISABLE_MSEC_COUNTER);
                           A  8079    ;  124		
                           A  8080    ;  125		free(Characters);
                           A  8081    ;  126		free(mem);
                           A  8082    ;  127		
                           A  8083    ;  128		print("Zapp - eZ80P Apple 1 Emulato
                           A  8084    ;  129		print("Programmed By Calogiuri Enzo
                           A  8085    ;  130		
                           A  8086    ;  131		print("\n\r");
                           A  8087    ;  132	}
                           A  8088    ;  133	
                           A  8089    ;  134	void MSec_Counter(char Enable)
                           A  8090    ;  135	{
                           A  8091    ;  136		asm ("push ix");	
                           A  8092    ;  137		
                           A  8093    ;  138		if (Enable == 1)
                           A  8094    ;  139			asm ("ld e, 1");
                           A  8095    ;  140		else
                           A  8096    ;  141			asm ("ld e, 0");
                           A  8097    ;  142		
                           A  8098    ;  143		asm ("ld a, kr_init_msec_counter");
                           A  8099    ;  144		asm ("call.lil prose_kernal");
                           A  8100    ;  145		asm ("pop ix");
                           A  8101    ;  146	}
                           A  8102    ;  147	
Zilog eZ80 Macro Assembler Version 4.1 (10060805) RELISTED19-Sep-11     11:50:04     page: 157


PC     Object              I  Line    Source C:\DOCUME~1\_Enzo_\Desktop\Zapp\Debug\main.src
                           A  8103    ;  148	unsigned long Read_MSec_Counter(void)
                           A  8104    ;  149	{
                           A  8105    ;  150		asm ("push ix");
                           A  8106    ;  151		asm ("push de");
                           A  8107    ;  152		asm ("ld a, kr_read_msec_counter");
                           A  8108    ;  153		asm ("call.lil prose_kernal");
                           A  8109    ;  154		asm ("ld (_mlSec), hl");
                           A  8110    ;  155		asm ("ld (_mlMSec), de");
                           A  8111    ;  156		asm ("pop de");
                           A  8112    ;  157		asm ("pop ix");
                           A  8113    ;  158		
                           A  8114    ;  159		return (unsigned long)((mlSec * 100
                           A  8115    ;  160	}
                           A  8116    ;  161	
                           A  8117    ;  162	void print(const char *Txt)
                           A  8118    ;  163	{
                           A  8119    ;  164		TxtPnt = Txt;
                           A  8120    ;  165		
                           A  8121    ;  166		asm ("push ix");
                           A  8122    ;  167		asm ("ld hl, (_TxtPnt)");
                           A  8123    ;  168		asm ("ld a, kr_print_string");
                           A  8124    ;  169		asm ("call.lil prose_kernal");
                           A  8125    ;  170		asm ("pop ix");
                           A  8126    ;  171	}
                           A  8127    ;  172	
                           A  8128    ;  173	int Load_Bin_Data(const char *FName, co
                           A  8129    ;  174	{
                           A  8130    ;  175		int ret = 0;
                           A  8131    ;  176		
                           A  8132    ;  177		MainFile = FName;
                           A  8133    ;  178		MainDest = Dest;
                           A  8134    ;  179		MainFileSize = Size;
                           A  8135    ;  180		
                           A  8136    ;  181		asm ("push ix");
                           A  8137    ;  182		asm ("ld hl, (_MainFile)");
                           A  8138    ;  183		asm ("ld a, kr_find_file");
                           A  8139    ;  184		asm ("call.lil prose_kernal");
                           A  8140    ;  185		asm ("pop ix");	
                           A  8141    ;  186		asm ("jr nz, FileError");
                           A  8142    ;  187		
                           A  8143    ;  188		asm ("push ix");
                           A  8144    ;  189		asm ("ld de, (_MainFileSize)");
                           A  8145    ;  190		asm ("ld a, kr_set_load_length");
                           A  8146    ;  191		asm ("call.lil prose_kernal");
                           A  8147    ;  192		asm ("pop ix");
                           A  8148    ;  193		
                           A  8149    ;  194		asm ("push ix");
                           A  8150    ;  195		asm ("ld hl, (_MainDest)");
                           A  8151    ;  196		asm ("ld a, kr_read_file");
                           A  8152    ;  197		asm ("call.lil prose_kernal");
                           A  8153    ;  198		asm ("jr nz, FileError");
                           A  8154    ;  199		asm ("pop ix");
Zilog eZ80 Macro Assembler Version 4.1 (10060805) RELISTED19-Sep-11     11:50:04     page: 158


PC     Object              I  Line    Source C:\DOCUME~1\_Enzo_\Desktop\Zapp\Debug\main.src
                           A  8155    ;  200		
                           A  8156    ;  201		asm ("jr LBD_Quit");
                           A  8157    ;  202		
                           A  8158    ;  203		asm("FileError:");
                           A  8159    ;  204		
                           A  8160    ;  205		ret = 1;
                           A  8161    ;  206		
                           A  8162    ;  207		asm("LBD_Quit:");
                           A  8163    ;  208		
                           A  8164    ;  209		return ret;
                           A  8165    ;  210	}
                           A  8166    ;  211	
                           A  8167    ;  212	int File_Exists(const char *FName)
                           A  8168    ;  213	{
                           A  8169    ;  214		int ret;
                           A  8170    ;  215		
                           A  8171    ;  216		MainFile = FName;
                           A  8172    ;  217		
                           A  8173    ;  218		asm ("push ix");
                           A  8174    ;  219		asm ("ld hl, (_MainFile)");
                           A  8175    ;  220		asm ("ld a, kr_find_file");
                           A  8176    ;  221		asm ("call.lil prose_kernal");
                           A  8177    ;  222		asm ("pop ix");	
                           A  8178    ;  223		asm ("jr nz, FileExistsError");
                           A  8179    ;  224		
                           A  8180    ;  225		ret = 0;
                           A  8181    ;  226		
                           A  8182    ;  227		asm ("jr FE_Quit");
                           A  8183    ;  228		
                           A  8184    ;  229		asm ("FileExistsError:");
                           A  8185    ;  230		
                           A  8186    ;  231		ret = 1;
                           A  8187    ;  232		
                           A  8188    ;  233		asm ("FE_Quit:");
                           A  8189    ;  234		
                           A  8190    ;  235		return ret;
                           A  8191    ;  236	}
                           A  8192    ;  237	
                           A  8193    ;  238	int Create_File(const char *FName)
                           A  8194    ;  239	{
                           A  8195    ;  240		int ret;
                           A  8196    ;  241		
                           A  8197    ;  242		MainFile = FName;
                           A  8198    ;  243		
                           A  8199    ;  244		asm ("push ix");
                           A  8200    ;  245		asm ("ld hl, (_MainFile)");
                           A  8201    ;  246		asm ("ld a, kr_create_file");
                           A  8202    ;  247		asm ("call.lil prose_kernal");
                           A  8203    ;  248		asm ("pop ix");	
                           A  8204    ;  249		asm ("jr nz, CreateFileError");
                           A  8205    ;  250		
                           A  8206    ;  251		ret = 0;
Zilog eZ80 Macro Assembler Version 4.1 (10060805) RELISTED19-Sep-11     11:50:04     page: 159


PC     Object              I  Line    Source C:\DOCUME~1\_Enzo_\Desktop\Zapp\Debug\main.src
                           A  8207    ;  252		
                           A  8208    ;  253		asm ("jr CF_Quit");
                           A  8209    ;  254		
                           A  8210    ;  255		asm ("CreateFileError:");
                           A  8211    ;  256		
                           A  8212    ;  257		ret = 1;
                           A  8213    ;  258		
                           A  8214    ;  259		asm ("CF_Quit:");
                           A  8215    ;  260		
                           A  8216    ;  261		return ret;
                           A  8217    ;  262	}
                           A  8218    ;  263	
                           A  8219    ;  264	void mDelay(int Millisec)
                           A  8220    ;  265	{
                           A  8221    ;  266		int Microsec = Millisec * 1000;
                           A  8222    ;  267		int Granularity = Microsec / 30;
                           A  8223    ;  268		
                           A  8224    ;  269		mlMSec = Granularity;
                           A  8225    ;  270		
                           A  8226    ;  271		asm ("push ix");
                           A  8227    ;  272		asm ("push de");
                           A  8228    ;  273		asm ("ld de, (_mlMSec)");
                           A  8229    ;  274		asm ("ld a, kr_time_delay");
                           A  8230    ;  275		asm ("call.lil prose_kernal");
                           A  8231    ;  276		asm ("pop de");
                           A  8232    ;  277		asm ("pop ix");
                           A  8233    ;  278	}
                           A  8234    ;  279	
                           A  8235    ;  280	void Get_Key(void)
                           A  8236    ;  281	{
                           A  8237    ;  282		asm ("ld a, kr_get_key");
                           A  8238    ;  283		asm ("call.lil prose_kernal");
                           A  8239    ;  284		asm ("jr nz, NoKeyInB");
                           A  8240    ;  285		asm ("ld (_g_SValue), a");
                           A  8241    ;  286		asm ("ld a, b");
                           A  8242    ;  287		asm ("ld (_g_AValue), a");
                           A  8243    ;  288		asm ("NoKeyInB:");
                           A  8244    ;  289	}
                           A  8245    ;  290	
                           A  8246    ;  291	void ReadKbd(unsigned char *Ascii, unsi
                           A  8247    ;  292	{
                           A  8248    ;  293		g_AValue = 0;
                           A  8249    ;  294		g_SValue = 0;
                           A  8250    ;  295		
                           A  8251    ;  296		Get_Key();
                           A  8252    ;  297		
                           A  8253    ;  298		*Ascii = g_AValue;
                           A  8254    ;  299		*Scancode = g_SValue;
                           A  8255    ;  300	}
                           A  8256    ;  301	
                           A  8257    ;  302	int Handle_Input(void)
                           A  8258    ;  303	{
Zilog eZ80 Macro Assembler Version 4.1 (10060805) RELISTED19-Sep-11     11:50:04     page: 160


PC     Object              I  Line    Source C:\DOCUME~1\_Enzo_\Desktop\Zapp\Debug\main.src
                           A  8259    ;  304		unsigned char Ak, Sk;	
                           A  8260    ;  305		
                           A  8261    ;  306		ReadKbd(&Ak, &Sk);
                           A  8262    ;  307		
                           A  8263    ;  308		if (Sk != 0)
                           A  8264    ;  309		{
                           A  8265    ;  310			if (Sk == 0x07)
                           A  8266    ;  311				return 0;
                           A  8267    ;  312			
                           A  8268    ;  313			if (Sk == 0x09)
                           A  8269    ;  314			{
                           A  8270    ;  315				Reset_Pia6820();
                           A  8271    ;  316				Reset_M6502();
                           A  8272    ;  317				
                           A  8273    ;  318				return 1;
                           A  8274    ;  319			}
                           A  8275    ;  320			
                           A  8276    ;  321			if (Sk == 0x01)
                           A  8277    ;  322			{
                           A  8278    ;  323				Reset_Screen();
                           A  8279    ;  324				Reset_Pia6820();
                           A  8280    ;  325				Reset_Memory();
                           A  8281    ;  326				Reset_M6502();
                           A  8282    ;  327				
                           A  8283    ;  328				memset(VideoMem, 0, 320 * 2
                           A  8284    ;  329				
                           A  8285    ;  330				return 1;
                           A  8286    ;  331			}
                           A  8287    ;  332			
                           A  8288    ;  333			if (Sk == 0x04)
                           A  8289    ;  334			{
                           A  8290    ;  335				Flip_Mode();
                           A  8291    ;  336				
                           A  8292    ;  337				Reset_Pia6820();
                           A  8293    ;  338				Reset_M6502();
                           A  8294    ;  339				
                           A  8295    ;  340				Show_Mode();
                           A  8296    ;  341				
                           A  8297    ;  342				return 1;
                           A  8298    ;  343			}
                           A  8299    ;  344			
                           A  8300    ;  345			if (Sk == 0x0A)
                           A  8301    ;  346			{
                           A  8302    ;  347				Load_Basic();
                           A  8303    ;  348				
                           A  8304    ;  349				Reset_Pia6820();
                           A  8305    ;  350				Reset_M6502();
                           A  8306    ;  351				
                           A  8307    ;  352				return 1;
                           A  8308    ;  353			}
                           A  8309    ;  354			
                           A  8310    ;  355			if (Sk == 0x03)
Zilog eZ80 Macro Assembler Version 4.1 (10060805) RELISTED19-Sep-11     11:50:04     page: 161


PC     Object              I  Line    Source C:\DOCUME~1\_Enzo_\Desktop\Zapp\Debug\main.src
                           A  8311    ;  356			{
                           A  8312    ;  357				Dump_In_File();
                           A  8313    ;  358				
                           A  8314    ;  359				return 1;
                           A  8315    ;  360			}
                           A  8316    ;  361			
                           A  8317    ;  362			if (Sk == 0x5A)
                           A  8318    ;  363				Ak = '\r';		
                           A  8319    ;  364			
                           A  8320    ;  365			if (Sk == 0x66)
                           A  8321    ;  366				return 1;
                           A  8322    ;  367			
                           A  8323    ;  368			if (Ak >= 'a' && Ak <= 'z')
                           A  8324    ;  369				Ak = Ak - 'a' + 'A';
                           A  8325    ;  370			
                           A  8326    ;  371			Write_Kbd((unsigned char)(Ak + 
                           A  8327    ;  372			Write_KbdCr(0xA7);
                           A  8328    ;  373		}	
                           A  8329    ;  374		
                           A  8330    ;  375		return 1;
                           A  8331    ;  376	}
                           A  8332    ;  377	
                           A  8333    ;  378	void Load_Basic(void)
                           A  8334    ;  379	{
                           A  8335    ;  380		int r;
                           A  8336    ;  381		unsigned char Ak = 0, Sk = 0;
                           A  8337    ;  382		
                           A  8338    ;  383		r = Load_Bin_Data("BASIC.ROM", &mem
                           A  8339    ;  384		
                           A  8340    ;  385		if (r == 1)	
                           A  8341    ;  386			Blit_String(0, 230, "FAILED TO 
                           A  8342    ;  387		else
                           A  8343    ;  388			Blit_String(0, 230, "TYPE E000R
                           A  8344    ;  389		
                           A  8345    ;  390		while (Sk == 0)
                           A  8346    ;  391			ReadKbd(&Ak, &Sk);
                           A  8347    ;  392			
                           A  8348    ;  393		Blit_String(0, 230, "              
                           A  8349    ;  394	}
                           A  8350    ;  395	
                           A  8351    ;  396	void uitoa(unsigned int val, char *stri
                           A  8352    ;  397	{
                           A  8353    ;  398		char index = 0, i = 0;
                           A  8354    ;  399		
                           A  8355    ;  400		do {
                           A  8356    ;  401			string[index] = '0' + (val % 10
                           A  8357    ;  402			
                           A  8358    ;  403			if (string[index] > '9')
                           A  8359    ;  404				string[index] += 'A' - '9' 
                           A  8360    ;  405			
                           A  8361    ;  406			val /= 10;
                           A  8362    ;  407			++index;
Zilog eZ80 Macro Assembler Version 4.1 (10060805) RELISTED19-Sep-11     11:50:04     page: 162


PC     Object              I  Line    Source C:\DOCUME~1\_Enzo_\Desktop\Zapp\Debug\main.src
                           A  8363    ;  408	  } while (val != 0);
                           A  8364    ;  409	  
                           A  8365    ;  410	  string[index--] = '\0'; 
                           A  8366    ;  411	  
                           A  8367    ;  412	  while (index > i)
                           A  8368    ;  413	  {
                           A  8369    ;  414	    char tmp = string[i];
                           A  8370    ;  415		  
                           A  8371    ;  416	    string[i] = string[index];
                           A  8372    ;  417	    string[index] = tmp;
                           A  8373    ;  418	    ++i;
                           A  8374    ;  419	    --index;
                           A  8375    ;  420	  }
                           A  8376    ;  421	}
                           A  8377    ;  422	
                           A  8378    ;  423	int Dump_Memory(const char *FName)
                           A  8379    ;  424	{
                           A  8380    ;  425		int ret;
                           A  8381    ;  426		
                           A  8382    ;  427		MainFile = FName;
                           A  8383    ;  428		
                           A  8384    ;  429		asm ("push ix");
                           A  8385    ;  430		asm ("ld hl, (_MainFile)");
                           A  8386    ;  431		asm ("ld de, (_mem)");
                           A  8387    ;  432		asm ("ld bc, FFFFh");
                           A  8388    ;  433		asm ("ld a, kr_write_file");
                           A  8389    ;  434		asm ("call.lil prose_kernal");
                           A  8390    ;  435		asm ("pop ix");
                           A  8391    ;  436		asm ("jr nz, DumpMemoryError");
                           A  8392    ;  437		
                           A  8393    ;  438		ret = 0;
                           A  8394    ;  439		
                           A  8395    ;  440		asm ("jr DM_Quit");
                           A  8396    ;  441		
                           A  8397    ;  442		asm ("DumpMemoryError:");
                           A  8398    ;  443		
                           A  8399    ;  444		ret = 1;
                           A  8400    ;  445		
                           A  8401    ;  446		asm ("DM_Quit:");
                           A  8402    ;  447		
                           A  8403    ;  448		return ret;
                           A  8404    ;  449	}
                           A  8405    ;  450	
                           A  8406    ;  451	void Dump_In_File(void)
                           A  8407    ;  452	{
                           A  8408    ;  453		char buf[4];
                           A  8409    ;  454		int i;
                           A  8410    ;  455		char FileName[14];
                           A  8411    ;  456		unsigned char Ak = 0, Sk = 0;	
                           A  8412    ;  457		
                           A  8413    ;  458		for (i = 0; i <= 10000; i++)
                           A  8414    ;  459		{
Zilog eZ80 Macro Assembler Version 4.1 (10060805) RELISTED19-Sep-11     11:50:04     page: 163


PC     Object              I  Line    Source C:\DOCUME~1\_Enzo_\Desktop\Zapp\Debug\main.src
                           A  8415    ;  460			memset(FileName, 0, 14);		                           A  8416    ;  461			
                           A  8417    ;  462			uitoa(i, buf);
                           A  8418    ;  463			
                           A  8419    ;  464			strcat(FileName, "DUMP");
                           A  8420    ;  465			strcat(FileName, buf);
                           A  8421    ;  466			strcat(FileName, ".BIN");
                           A  8422    ;  467			
                           A  8423    ;  468			if (File_Exists(FileName) == 1)
                           A  8424    ;  469				break;
                           A  8425    ;  470		}
                           A  8426    ;  471		
                           A  8427    ;  472		if (Create_File(FileName) == 0)
                           A  8428    ;  473			if (Dump_Memory(FileName) == 0)
                           A  8429    ;  474			{
                           A  8430    ;  475				Blit_String(0, 230, "MEMORY
                           A  8431    ;  476				Blit_String(120, 230, FileN
                           A  8432    ;  477				Blit_String(232, 230, "HIT 
                           A  8433    ;  478				
                           A  8434    ;  479				while (Sk == 0)
                           A  8435    ;  480					ReadKbd(&Ak, &Sk);
                           A  8436    ;  481			
                           A  8437    ;  482				Blit_String(0, 230, "      
                           A  8438    ;  483			}
                           A  8439    ;  484	}
                           A  8440    ;  485	
                           A  8441    ;  486	int Load_Dump(void)
                           A  8442    ;  487	{
                           A  8443    ;  488		int ret = 0;
                           A  8444    ;  489		
                           A  8445    ;  490		if (Param != NULL)
                           A  8446    ;  491			if (File_Exists(Param) == 0)
                           A  8447    ;  492				ret = Load_Bin_Data(Param, 
                           A  8448    ;  493			
                           A  8449    ;  494		return ret;
012C81 C9                  A  8450    	RET	
                           A  8451    
                           A  8452    
                           A  8453    ;**************************** _setNMI *********
                           A  8454    ;Name                         Addr/Register   S
                           A  8455    ;_NMI                                STATIC    
                           A  8456    
                           A  8457    
                           A  8458    ; Stack Frame Size: 6 (bytes)
                           A  8459    ;       Spill Code: 0 (instruction)
                           A  8460    
                           A  8461    
012C82                     A  8462    _MyMain:
012C82 01010000            A  8463    	LD	BC,1
012C86 C5                  A  8464    	PUSH	BC
012C87 CD 88 2D 01         A  8465    	CALL	_MSec_Counter
012C8B C1                  A  8466    	POP	BC
Zilog eZ80 Macro Assembler Version 4.1 (10060805) RELISTED19-Sep-11     11:50:04     page: 164


PC     Object              I  Line    Source C:\DOCUME~1\_Enzo_\Desktop\Zapp\Debug\main.src
012C8C CD 67 20 01         A  8467    	CALL	_Init_Opcode_Table
012C90 01 38 38 01         A  8468    	LD	BC,L__356
012C94 C5                  A  8469    	PUSH	BC
012C95 CD F9 2D 01         A  8470    	CALL	_print
012C99 C1                  A  8471    	POP	BC
012C9A 01 3B 38 01         A  8472    	LD	BC,L__357
012C9E C5                  A  8473    	PUSH	BC
012C9F CD F9 2D 01         A  8474    	CALL	_print
012CA3 C1                  A  8475    	POP	BC
012CA4 01 5B 38 01         A  8476    	LD	BC,L__358
012CA8 C5                  A  8477    	PUSH	BC
012CA9 CD F9 2D 01         A  8478    	CALL	_print
012CAD C1                  A  8479    	POP	BC
012CAE CD 79 00 01         A  8480    	CALL	_LoadCharMap
012CB2 01010000            A  8481    	LD	BC,1
012CB6 B7                  A  8482    	OR	A,A
012CB7 ED42                A  8483    	SBC	HL,BC
012CB9 20 0E               A  8484    	JR	NZ,L_496
012CBB 01 71 38 01         A  8485    	LD	BC,L__360
012CBF C5                  A  8486    	PUSH	BC
012CC0 CD F9 2D 01         A  8487    	CALL	_print
012CC4 C1                  A  8488    	POP	BC
012CC5 C3 49 2D 01         A  8489    	JR	L_493
012CC9                     A  8490    L_496:
012CC9 CD 96 07 01         A  8491    	CALL	_Load_Monitor
012CCD 01010000            A  8492    	LD	BC,1
012CD1 B7                  A  8493    	OR	A,A
012CD2 ED42                A  8494    	SBC	HL,BC
012CD4 20 0C               A  8495    	JR	NZ,L_497
012CD6 01 A3 38 01         A  8496    	LD	BC,L__362
012CDA C5                  A  8497    	PUSH	BC
012CDB CD F9 2D 01         A  8498    	CALL	_print
012CDF C1                  A  8499    	POP	BC
012CE0 18 67               A  8500    	JR	L_493
012CE2                     A  8501    L_497:
012CE2 CD 25 02 01         A  8502    	CALL	_Set_Screen
012CE6 CD 61 04 01         A  8503    	CALL	_Reset_Screen
012CEA CD BC 07 01         A  8504    	CALL	_Reset_Memory
012CEE 01000000            A  8505    	LD	BC,0
012CF2 2A E7 39 01         A  8506    	LD	HL,(_Param)
012CF6 B7                  A  8507    	OR	A,A
012CF7 ED42                A  8508    	SBC	HL,BC
012CF9 28 33               A  8509    	JR	Z,L_503
012CFB CD 63 33 01         A  8510    	CALL	_Load_Dump
012CFF 01000000            A  8511    	LD	BC,0
012D03 B7                  A  8512    	OR	A,A
012D04 ED42                A  8513    	SBC	HL,BC
012D06 20 26               A  8514    	JR	NZ,L_503
012D08 0100F000            A  8515    	LD	BC,61440
012D0C 2A 96 46 01         A  8516    	LD	HL,(_mem)
012D10 09                  A  8517    	ADD	HL,BC
012D11 7E                  A  8518    	LD	A,(HL)
Zilog eZ80 Macro Assembler Version 4.1 (10060805) RELISTED19-Sep-11     11:50:04     page: 165


PC     Object              I  Line    Source C:\DOCUME~1\_Enzo_\Desktop\Zapp\Debug\main.src
012D12 B7                  A  8519    	OR	A,A
012D13 28 15               A  8520    	JR	Z,L_500
012D15 CD 91 07 01         A  8521    	CALL	_Mem_Mode
012D19 01080000            A  8522    	LD	BC,8
012D1D B7                  A  8523    	OR	A,A
012D1E ED42                A  8524    	SBC	HL,BC
012D20 20 08               A  8525    	JR	NZ,L_500
012D22 CD 73 07 01         A  8526    	CALL	_Flip_Mode
012D26 CD BD 01 01         A  8527    	CALL	_Show_Mode
012D2A                     A  8528    L_500:
012D2A CD 75 06 01         A  8529    	CALL	_Reset_Pia6820
012D2E                     A  8530    L_503:
012D2E CD 42 2C 01         A  8531    	CALL	_Reset_M6502
012D32 18 04               A  8532    	JR	L_504
012D34                     A  8533    L_505:
012D34 CD 13 2C 01         A  8534    	CALL	_Run_M6502
012D38                     A  8535    L_504:
012D38 CD 79 2F 01         A  8536    	CALL	_Handle_Input
012D3C 01000000            A  8537    	LD	BC,0
012D40 B7                  A  8538    	OR	A,A
012D41 ED42                A  8539    	SBC	HL,BC
012D43 20 EF               A  8540    	JR	NZ,L_505
012D45 CD 34 03 01         A  8541    	CALL	_Close_Screen
012D49                     A  8542    L_493:
012D49 01000000            A  8543    	LD	BC,0
012D4D C5                  A  8544    	PUSH	BC
012D4E CD 88 2D 01         A  8545    	CALL	_MSec_Counter
012D52 C1                  A  8546    	POP	BC
012D53 ED4B 89 46 01       A  8547    	LD	BC,(_Characters)
012D58 C5                  A  8548    	PUSH	BC
012D59 CD C8 33 01         A  8549    	CALL	_free
012D5D C1                  A  8550    	POP	BC
012D5E ED4B 96 46 01       A  8551    	LD	BC,(_mem)
012D63 C5                  A  8552    	PUSH	BC
012D64 CD C8 33 01         A  8553    	CALL	_free
012D68 C1                  A  8554    	POP	BC
012D69 01 D5 38 01         A  8555    	LD	BC,L__368
012D6D C5                  A  8556    	PUSH	BC
012D6E CD F9 2D 01         A  8557    	CALL	_print
012D72 C1                  A  8558    	POP	BC
012D73 01 F5 38 01         A  8559    	LD	BC,L__369
012D77 C5                  A  8560    	PUSH	BC
012D78 CD F9 2D 01         A  8561    	CALL	_print
012D7C C1                  A  8562    	POP	BC
012D7D 01 1D 39 01         A  8563    	LD	BC,L__370
012D81 C5                  A  8564    	PUSH	BC
012D82 CD F9 2D 01         A  8565    	CALL	_print
012D86 C1                  A  8566    	POP	BC
012D87 C9                  A  8567    	RET	
                           A  8568    
                           A  8569    
                           A  8570    ;**************************** _MyMain *********
Zilog eZ80 Macro Assembler Version 4.1 (10060805) RELISTED19-Sep-11     11:50:04     page: 166


PC     Object              I  Line    Source C:\DOCUME~1\_Enzo_\Desktop\Zapp\Debug\main.src
                           A  8571    ;Name                         Addr/Register   S
                           A  8572    ;_Characters                         STATIC    
                           A  8573    ;_free                               IMPORT  --
                           A  8574    ;_Handle_Input                       IMPORT  --
                           A  8575    ;_Mem_Mode                           IMPORT  --
                           A  8576    ;_mem                                STATIC    
                           A  8577    ;_Load_Dump                          IMPORT  --
                           A  8578    ;_Param                              STATIC    
                           A  8579    ;_print                              IMPORT  --
                           A  8580    ;_MSec_Counter                       IMPORT  --
                           A  8581    
                           A  8582    
                           A  8583    ; Stack Frame Size: 6 (bytes)
                           A  8584    ;       Spill Code: 0 (instruction)
                           A  8585    
                           A  8586    
                           A  8587    	SEGMENT STRSECT
013838                     A  8588    L__356:
013838 0A0D00              A  8589    	DB	10,13,0
01383B                     A  8590    L__357:
01383B 5A617070 202D2065   A  8591    	DB	"Zapp - eZ80P Apple 1 Emulator"
013843 5A383050 20417070 
01384B 6C652031 20456D75 
013853 6C61746F 72 
013858 0A0D00              A  8592    	DB	10,13,0
01385B                     A  8593    L__358:
01385B 4C6F6164 20737973   A  8594    	DB	"Load system roms..."
013863 74656D20 726F6D73 
01386B 2E2E2E 
01386E 0A0D00              A  8595    	DB	10,13,0
013871                     A  8596    L__360:
013871 4572726F 72207768   A  8597    	DB	"Error while loading charmap.rom. Exit 
013879 696C6520 6C6F6164 
013881 696E6720 63686172 
013889 6D61702E 726F6D2E 
013891 20457869 7420746F 
013899 2050524F 53452E 
0138A0 0A0D00              A  8598    	DB	10,13,0
0138A3                     A  8599    L__362:
0138A3 4572726F 72207768   A  8600    	DB	"Error while loading monitor.rom. Exit 
0138AB 696C6520 6C6F6164 
0138B3 696E6720 6D6F6E69 
0138BB 746F722E 726F6D2E 
0138C3 20457869 7420746F 
0138CB 2050524F 53452E 
0138D2 0A0D00              A  8601    	DB	10,13,0
0138D5                     A  8602    L__368:
0138D5 5A617070 202D2065   A  8603    	DB	"Zapp - eZ80P Apple 1 Emulator"
0138DD 5A383050 20417070 
0138E5 6C652031 20456D75 
0138ED 6C61746F 72 
0138F2 0A0D00              A  8604    	DB	10,13,0
Zilog eZ80 Macro Assembler Version 4.1 (10060805) RELISTED19-Sep-11     11:50:04     page: 167


PC     Object              I  Line    Source C:\DOCUME~1\_Enzo_\Desktop\Zapp\Debug\main.src
0138F5                     A  8605    L__369:
0138F5 50726F67 72616D6D   A  8606    	DB	"Programmed By Calogiuri Enzo Antonio."
0138FD 65642042 79204361 
013905 6C6F6769 75726920 
01390D 456E7A6F 20416E74 
013915 6F6E696F 2E 
01391A 0A0D00              A  8607    	DB	10,13,0
01391D                     A  8608    L__370:
01391D 0A0D00              A  8609    	DB	10,13,0
                           A  8610    	SEGMENT CODE
012D88                     A  8611    _MSec_Counter:
012D88 CD 11 36 01         A  8612    	CALL	__frameset0
012D8C DDE5                A  8613    push ix
012D8E DD7E06              A  8614    	LD	A,(IX+6)
012D91 FE01                A  8615    	CP	A,1
012D93 20 04               A  8616    	JR	NZ,L_509
012D95 1E01                A  8617    ld e, 1
012D97 18 02               A  8618    	JR	L_510
012D99                     A  8619    L_509:
012D99 1E00                A  8620    ld e, 0
012D9B                     A  8621    L_510:
012D9B 3E53                A  8622    ld a, kr_init_msec_counter
012D9D 5BCD200A 00         A  8623    call.lil prose_kernal
012DA2 DDE1                A  8624    pop ix
012DA4 DDF9                A  8625    	LD	SP,IX
012DA6 DDE1                A  8626    	POP	IX
012DA8 C9                  A  8627    	RET	
                           A  8628    
                           A  8629    
                           A  8630    ;**************************** _MSec_Counter ***
                           A  8631    ;Name                         Addr/Register   S
                           A  8632    ;Enable                                IX+6    
                           A  8633    
                           A  8634    
                           A  8635    ; Stack Frame Size: 9 (bytes)
                           A  8636    ;       Spill Code: 0 (instruction)
                           A  8637    
                           A  8638    
012DA9                     A  8639    _Read_MSec_Counter:
012DA9 21FDFFFF            A  8640    	LD	HL,-3
012DAD CD 3A 36 01         A  8641    	CALL	__frameset
012DB1 DDE5                A  8642    push ix
012DB3 D5                  A  8643    push de
012DB4 3E54                A  8644    ld a, kr_read_msec_counter
012DB6 5BCD200A 00         A  8645    call.lil prose_kernal
012DBB 22 78 46 01         A  8646    ld (_mlSec), hl
012DBF ED53 7B 46 01       A  8647    ld (_mlMSec), de
012DC4 D1                  A  8648    pop de
012DC5 DDE1                A  8649    pop ix
012DC7 ED4B 78 46 01       A  8650    	LD	BC,(_mlSec)
012DCC AF                  A  8651    	XOR	A,A
012DCD 5F                  A  8652    	LD	E,A
Zilog eZ80 Macro Assembler Version 4.1 (10060805) RELISTED19-Sep-11     11:50:04     page: 168


PC     Object              I  Line    Source C:\DOCUME~1\_Enzo_\Desktop\Zapp\Debug\main.src
012DCE C5E1                A  8653    	LD	HL,BC
012DD0 01E80300            A  8654    	LD	BC,1000
012DD4 AF                  A  8655    	XOR	A,A
012DD5 CD 55 37 01         A  8656    	CALL	__lmulu
012DD9 3A 7C 46 01         A  8657    	LD	A,(_mlMSec+1)
012DDD 17                  A  8658    	RLA	
012DDE 9F                  A  8659    	SBC	A,A
012DDF DD2FFD              A  8660    	LD	(IX+-3),HL
012DE2 ED4B 7B 46 01       A  8661    	LD	BC,(_mlMSec)
012DE7 CD 44 37 01         A  8662    	CALL	__stoi
012DEB E5C1                A  8663    	LD	BC,HL
012DED DD27FD              A  8664    	LD	HL,(IX+-3)
012DF0 CD C2 33 01         A  8665    	CALL	__ladd
012DF4 DDF9                A  8666    	LD	SP,IX
012DF6 DDE1                A  8667    	POP	IX
012DF8 C9                  A  8668    	RET	
                           A  8669    
                           A  8670    
                           A  8671    ;**************************** _Read_MSec_Counte
                           A  8672    ;Name                         Addr/Register   S
                           A  8673    ;_mlMSec                             STATIC    
                           A  8674    ;_mlSec                              STATIC    
                           A  8675    
                           A  8676    
                           A  8677    ; Stack Frame Size: 9 (bytes)
                           A  8678    ;       Spill Code: 0 (instruction)
                           A  8679    
                           A  8680    
012DF9                     A  8681    _print:
012DF9 CD 11 36 01         A  8682    	CALL	__frameset0
012DFD DD0706              A  8683    	LD	BC,(IX+6)
012E00 ED43 E1 39 01       A  8684    	LD	(_TxtPnt),BC
012E05 DDE5                A  8685    push ix
012E07 2A E1 39 01         A  8686    ld hl, (_TxtPnt)
012E0B 3E25                A  8687    ld a, kr_print_string
012E0D 5BCD200A 00         A  8688    call.lil prose_kernal
012E12 DDE1                A  8689    pop ix
012E14 DDF9                A  8690    	LD	SP,IX
012E16 DDE1                A  8691    	POP	IX
012E18 C9                  A  8692    	RET	
                           A  8693    
                           A  8694    
                           A  8695    ;**************************** _print **********
                           A  8696    ;Name                         Addr/Register   S
                           A  8697    ;_TxtPnt                             STATIC    
                           A  8698    ;Txt                                   IX+6    
                           A  8699    
                           A  8700    
                           A  8701    ; Stack Frame Size: 9 (bytes)
                           A  8702    ;       Spill Code: 0 (instruction)
                           A  8703    
                           A  8704    
Zilog eZ80 Macro Assembler Version 4.1 (10060805) RELISTED19-Sep-11     11:50:04     page: 169


PC     Object              I  Line    Source C:\DOCUME~1\_Enzo_\Desktop\Zapp\Debug\main.src
012E19                     A  8705    _Load_Bin_Data:
012E19 21FDFFFF            A  8706    	LD	HL,-3
012E1D CD 3A 36 01         A  8707    	CALL	__frameset
012E21 01000000            A  8708    	LD	BC,0
012E25 DD0FFD              A  8709    	LD	(IX+-3),BC
012E28 DD0706              A  8710    	LD	BC,(IX+6)
012E2B ED43 E4 39 01       A  8711    	LD	(_MainFile),BC
012E30 DD0709              A  8712    	LD	BC,(IX+9)
012E33 ED43 EA 39 01       A  8713    	LD	(_MainDest),BC
012E38 DD070C              A  8714    	LD	BC,(IX+12)
012E3B ED43 ED 39 01       A  8715    	LD	(_MainFileSize),BC
012E40 DDE5                A  8716    push ix
012E42 2A E4 39 01         A  8717    ld hl, (_MainFile)
012E46 3E0B                A  8718    ld a, kr_find_file
012E48 5BCD200A 00         A  8719    call.lil prose_kernal
012E4D DDE1                A  8720    pop ix
012E4F 20 23               A  8721    jr nz, FileError
012E51 DDE5                A  8722    push ix
012E53 ED5B ED 39 01       A  8723    ld de, (_MainFileSize)
012E58 3E0D                A  8724    ld a, kr_set_load_length
012E5A 5BCD200A 00         A  8725    call.lil prose_kernal
012E5F DDE1                A  8726    pop ix
012E61 DDE5                A  8727    push ix
012E63 2A EA 39 01         A  8728    ld hl, (_MainDest)
012E67 3E0E                A  8729    ld a, kr_read_file
012E69 5BCD200A 00         A  8730    call.lil prose_kernal
012E6E 20 04               A  8731    jr nz, FileError
012E70 DDE1                A  8732    pop ix
012E72 18 07               A  8733    jr LBD_Quit
012E74                     A  8734    FileError:
012E74 01010000            A  8735    	LD	BC,1
012E78 DD0FFD              A  8736    	LD	(IX+-3),BC
012E7B                     A  8737    LBD_Quit:
012E7B C5E1                A  8738    	LD	HL,BC
012E7D DDF9                A  8739    	LD	SP,IX
012E7F DDE1                A  8740    	POP	IX
012E81 C9                  A  8741    	RET	
                           A  8742    
                           A  8743    
                           A  8744    ;**************************** _Load_Bin_Data **
                           A  8745    ;Name                         Addr/Register   S
                           A  8746    ;_MainFileSize                       STATIC    
                           A  8747    ;_MainDest                           STATIC    
                           A  8748    ;_MainFile                           STATIC    
                           A  8749    ;ret                                   IX-3    
                           A  8750    ;Size                                 IX+12    
                           A  8751    ;Dest                                  IX+9    
                           A  8752    ;FName                                 IX+6    
                           A  8753    
                           A  8754    
                           A  8755    ; Stack Frame Size: 18 (bytes)
                           A  8756    ;       Spill Code: 0 (instruction)
Zilog eZ80 Macro Assembler Version 4.1 (10060805) RELISTED19-Sep-11     11:50:04     page: 170


PC     Object              I  Line    Source C:\DOCUME~1\_Enzo_\Desktop\Zapp\Debug\main.src
                           A  8757    
                           A  8758    
012E82                     A  8759    _File_Exists:
012E82 21FDFFFF            A  8760    	LD	HL,-3
012E86 CD 3A 36 01         A  8761    	CALL	__frameset
012E8A DD0706              A  8762    	LD	BC,(IX+6)
012E8D ED43 E4 39 01       A  8763    	LD	(_MainFile),BC
012E92 DDE5                A  8764    push ix
012E94 2A E4 39 01         A  8765    ld hl, (_MainFile)
012E98 3E0B                A  8766    ld a, kr_find_file
012E9A 5BCD200A 00         A  8767    call.lil prose_kernal
012E9F DDE1                A  8768    pop ix
012EA1 20 09               A  8769    jr nz, FileExistsError
012EA3 01000000            A  8770    	LD	BC,0
012EA7 DD0FFD              A  8771    	LD	(IX+-3),BC
012EAA 18 07               A  8772    jr FE_Quit
012EAC                     A  8773    FileExistsError:
012EAC 01010000            A  8774    	LD	BC,1
012EB0 DD0FFD              A  8775    	LD	(IX+-3),BC
012EB3                     A  8776    FE_Quit:
012EB3 C5E1                A  8777    	LD	HL,BC
012EB5 DDF9                A  8778    	LD	SP,IX
012EB7 DDE1                A  8779    	POP	IX
012EB9 C9                  A  8780    	RET	
                           A  8781    
                           A  8782    
                           A  8783    ;**************************** _File_Exists ****
                           A  8784    ;Name                         Addr/Register   S
                           A  8785    ;_MainFile                           STATIC    
                           A  8786    ;ret                                   IX-3    
                           A  8787    ;FName                                 IX+6    
                           A  8788    
                           A  8789    
                           A  8790    ; Stack Frame Size: 12 (bytes)
                           A  8791    ;       Spill Code: 0 (instruction)
                           A  8792    
                           A  8793    
012EBA                     A  8794    _Create_File:
012EBA 21FDFFFF            A  8795    	LD	HL,-3
012EBE CD 3A 36 01         A  8796    	CALL	__frameset
012EC2 DD0706              A  8797    	LD	BC,(IX+6)
012EC5 ED43 E4 39 01       A  8798    	LD	(_MainFile),BC
012ECA DDE5                A  8799    push ix
012ECC 2A E4 39 01         A  8800    ld hl, (_MainFile)
012ED0 3E11                A  8801    ld a, kr_create_file
012ED2 5BCD200A 00         A  8802    call.lil prose_kernal
012ED7 DDE1                A  8803    pop ix
012ED9 20 09               A  8804    jr nz, CreateFileError
012EDB 01000000            A  8805    	LD	BC,0
012EDF DD0FFD              A  8806    	LD	(IX+-3),BC
012EE2 18 07               A  8807    jr CF_Quit
012EE4                     A  8808    CreateFileError:
Zilog eZ80 Macro Assembler Version 4.1 (10060805) RELISTED19-Sep-11     11:50:04     page: 171


PC     Object              I  Line    Source C:\DOCUME~1\_Enzo_\Desktop\Zapp\Debug\main.src
012EE4 01010000            A  8809    	LD	BC,1
012EE8 DD0FFD              A  8810    	LD	(IX+-3),BC
012EEB                     A  8811    CF_Quit:
012EEB C5E1                A  8812    	LD	HL,BC
012EED DDF9                A  8813    	LD	SP,IX
012EEF DDE1                A  8814    	POP	IX
012EF1 C9                  A  8815    	RET	
                           A  8816    
                           A  8817    
                           A  8818    ;**************************** _Create_File ****
                           A  8819    ;Name                         Addr/Register   S
                           A  8820    ;_MainFile                           STATIC    
                           A  8821    ;ret                                   IX-3    
                           A  8822    ;FName                                 IX+6    
                           A  8823    
                           A  8824    
                           A  8825    ; Stack Frame Size: 12 (bytes)
                           A  8826    ;       Spill Code: 0 (instruction)
                           A  8827    
                           A  8828    
012EF2                     A  8829    _mDelay:
012EF2 21FAFFFF            A  8830    	LD	HL,-6
012EF6 CD 3A 36 01         A  8831    	CALL	__frameset
012EFA DD2706              A  8832    	LD	HL,(IX+6)
012EFD 29                  A  8833    	ADD	HL,HL
012EFE 29                  A  8834    	ADD	HL,HL
012EFF 29                  A  8835    	ADD	HL,HL
012F00 29                  A  8836    	ADD	HL,HL
012F01 29                  A  8837    	ADD	HL,HL
012F02 B7                  A  8838    	OR	A,A
012F03 DD0706              A  8839    	LD	BC,(IX+6)
012F06 ED42                A  8840    	SBC	HL,BC
012F08 29                  A  8841    	ADD	HL,HL
012F09 29                  A  8842    	ADD	HL,HL
012F0A DD0706              A  8843    	LD	BC,(IX+6)
012F0D 09                  A  8844    	ADD	HL,BC
012F0E 29                  A  8845    	ADD	HL,HL
012F0F 29                  A  8846    	ADD	HL,HL
012F10 29                  A  8847    	ADD	HL,HL
012F11 DD2FFD              A  8848    	LD	(IX+-3),HL
012F14 011E0000            A  8849    	LD	BC,30
012F18 CD 96 36 01         A  8850    	CALL	__idivs
012F1C DD2FFA              A  8851    	LD	(IX+-6),HL
012F1F E5C1                A  8852    	LD	BC,HL
012F21 21 7B 46 01         A  8853    	LD	HL,_mlMSec
012F25 71                  A  8854    	LD	(HL),C
012F26 23                  A  8855    	INC	HL
012F27 70                  A  8856    	LD	(HL),B
012F28 DDE5                A  8857    push ix
012F2A D5                  A  8858    push de
012F2B ED5B 7B 46 01       A  8859    ld de, (_mlMSec)
012F30 3E39                A  8860    ld a, kr_time_delay
Zilog eZ80 Macro Assembler Version 4.1 (10060805) RELISTED19-Sep-11     11:50:04     page: 172


PC     Object              I  Line    Source C:\DOCUME~1\_Enzo_\Desktop\Zapp\Debug\main.src
012F32 5BCD200A 00         A  8861    call.lil prose_kernal
012F37 D1                  A  8862    pop de
012F38 DDE1                A  8863    pop ix
012F3A DDF9                A  8864    	LD	SP,IX
012F3C DDE1                A  8865    	POP	IX
012F3E C9                  A  8866    	RET	
                           A  8867    
                           A  8868    
                           A  8869    ;**************************** _mDelay *********
                           A  8870    ;Name                         Addr/Register   S
                           A  8871    ;_mlMSec                             STATIC    
                           A  8872    ;Granularity                           IX-6    
                           A  8873    ;Microsec                              IX-3    
                           A  8874    ;Millisec                              IX+6    
                           A  8875    
                           A  8876    
                           A  8877    ; Stack Frame Size: 15 (bytes)
                           A  8878    ;       Spill Code: 0 (instruction)
                           A  8879    
                           A  8880    
012F3F                     A  8881    _Get_Key:
012F3F 3E1E                A  8882    ld a, kr_get_key
012F41 5BCD200A 00         A  8883    call.lil prose_kernal
012F46 20 09               A  8884    jr nz, NoKeyInB
012F48 32 F1 39 01         A  8885    ld (_g_SValue), a
012F4C 78                  A  8886    ld a, b
012F4D 32 F0 39 01         A  8887    ld (_g_AValue), a
012F51                     A  8888    NoKeyInB:
012F51 C9                  A  8889    	RET	
                           A  8890    
                           A  8891    
                           A  8892    ;**************************** _Get_Key ********
                           A  8893    ;Name                         Addr/Register   S
                           A  8894    
                           A  8895    
                           A  8896    ; Stack Frame Size: 6 (bytes)
                           A  8897    ;       Spill Code: 0 (instruction)
                           A  8898    
                           A  8899    
012F52                     A  8900    _ReadKbd:
012F52 CD 11 36 01         A  8901    	CALL	__frameset0
012F56 AF                  A  8902    	XOR	A,A
012F57 32 F0 39 01         A  8903    	LD	(_g_AValue),A
012F5B AF                  A  8904    	XOR	A,A
012F5C 32 F1 39 01         A  8905    	LD	(_g_SValue),A
012F60 CD 3F 2F 01         A  8906    	CALL	_Get_Key
012F64 DD2706              A  8907    	LD	HL,(IX+6)
012F67 3A F0 39 01         A  8908    	LD	A,(_g_AValue)
012F6B 77                  A  8909    	LD	(HL),A
012F6C DD2709              A  8910    	LD	HL,(IX+9)
012F6F 3A F1 39 01         A  8911    	LD	A,(_g_SValue)
012F73 77                  A  8912    	LD	(HL),A
Zilog eZ80 Macro Assembler Version 4.1 (10060805) RELISTED19-Sep-11     11:50:04     page: 173


PC     Object              I  Line    Source C:\DOCUME~1\_Enzo_\Desktop\Zapp\Debug\main.src
012F74 DDF9                A  8913    	LD	SP,IX
012F76 DDE1                A  8914    	POP	IX
012F78 C9                  A  8915    	RET	
                           A  8916    
                           A  8917    
                           A  8918    ;**************************** _ReadKbd ********
                           A  8919    ;Name                         Addr/Register   S
                           A  8920    ;_g_SValue                           STATIC    
                           A  8921    ;_g_AValue                           STATIC    
                           A  8922    ;Scancode                              IX+9    
                           A  8923    ;Ascii                                 IX+6    
                           A  8924    
                           A  8925    
                           A  8926    ; Stack Frame Size: 12 (bytes)
                           A  8927    ;       Spill Code: 0 (instruction)
                           A  8928    
                           A  8929    
012F79                     A  8930    _Handle_Input:
012F79 21FEFFFF            A  8931    	LD	HL,-2
012F7D CD 3A 36 01         A  8932    	CALL	__frameset
012F81 ED65FF              A  8933    	PEA	IX+-1
012F84 ED65FE              A  8934    	PEA	IX+-2
012F87 CD 52 2F 01         A  8935    	CALL	_ReadKbd
012F8B C1                  A  8936    	POP	BC
012F8C C1                  A  8937    	POP	BC
012F8D DD7EFF              A  8938    	LD	A,(IX+-1)
012F90 B7                  A  8939    	OR	A,A
012F91 CA 7D 30 01         A  8940    	JR	Z,L_540
012F95 DD7EFF              A  8941    	LD	A,(IX+-1)
012F98 FE07                A  8942    	CP	A,7
012F9A 20 07               A  8943    	JR	NZ,L_522
012F9C B7                  A  8944    	OR	A,A
012F9D ED62                A  8945    	SBC	HL,HL
012F9F C3 81 30 01         A  8946    	JR	L_541
012FA3                     A  8947    L_522:
012FA3 DD7EFF              A  8948    	LD	A,(IX+-1)
012FA6 FE09                A  8949    	CP	A,9
012FA8 20 10               A  8950    	JR	NZ,L_524
012FAA CD 75 06 01         A  8951    	CALL	_Reset_Pia6820
012FAE CD 42 2C 01         A  8952    	CALL	_Reset_M6502
012FB2 21010000            A  8953    	LD	HL,1
012FB6 C3 81 30 01         A  8954    	JR	L_541
012FBA                     A  8955    L_524:
012FBA DD7EFF              A  8956    	LD	A,(IX+-1)
012FBD FE01                A  8957    	CP	A,1
012FBF 20 2F               A  8958    	JR	NZ,L_526
012FC1 CD 61 04 01         A  8959    	CALL	_Reset_Screen
012FC5 CD 75 06 01         A  8960    	CALL	_Reset_Pia6820
012FC9 CD BC 07 01         A  8961    	CALL	_Reset_Memory
012FCD CD 42 2C 01         A  8962    	CALL	_Reset_M6502
012FD1 0100FA00            A  8963    	LD	BC,64000
012FD5 C5                  A  8964    	PUSH	BC
Zilog eZ80 Macro Assembler Version 4.1 (10060805) RELISTED19-Sep-11     11:50:04     page: 174


PC     Object              I  Line    Source C:\DOCUME~1\_Enzo_\Desktop\Zapp\Debug\main.src
012FD6 01000000            A  8965    	LD	BC,0
012FDA C5                  A  8966    	PUSH	BC
012FDB ED4B 7D 46 01       A  8967    	LD	BC,(_VideoMem)
012FE0 C5                  A  8968    	PUSH	BC
012FE1 CD EC 36 01         A  8969    	CALL	_memset
012FE5 C1                  A  8970    	POP	BC
012FE6 C1                  A  8971    	POP	BC
012FE7 C1                  A  8972    	POP	BC
012FE8 21010000            A  8973    	LD	HL,1
012FEC C3 81 30 01         A  8974    	JR	L_541
012FF0                     A  8975    L_526:
012FF0 DD7EFF              A  8976    	LD	A,(IX+-1)
012FF3 FE04                A  8977    	CP	A,4
012FF5 20 16               A  8978    	JR	NZ,L_528
012FF7 CD 73 07 01         A  8979    	CALL	_Flip_Mode
012FFB CD 75 06 01         A  8980    	CALL	_Reset_Pia6820
012FFF CD 42 2C 01         A  8981    	CALL	_Reset_M6502
013003 CD BD 01 01         A  8982    	CALL	_Show_Mode
013007 21010000            A  8983    	LD	HL,1
01300B 18 74               A  8984    	JR	L_541
01300D                     A  8985    L_528:
01300D DD7EFF              A  8986    	LD	A,(IX+-1)
013010 FE0A                A  8987    	CP	A,10
013012 20 12               A  8988    	JR	NZ,L_530
013014 CD 86 30 01         A  8989    	CALL	_Load_Basic
013018 CD 75 06 01         A  8990    	CALL	_Reset_Pia6820
01301C CD 42 2C 01         A  8991    	CALL	_Reset_M6502
013020 21010000            A  8992    	LD	HL,1
013024 18 5B               A  8993    	JR	L_541
013026                     A  8994    L_530:
013026 DD7EFF              A  8995    	LD	A,(IX+-1)
013029 FE03                A  8996    	CP	A,3
01302B 20 0A               A  8997    	JR	NZ,L_532
01302D CD 40 32 01         A  8998    	CALL	_Dump_In_File
013031 21010000            A  8999    	LD	HL,1
013035 18 4A               A  9000    	JR	L_541
013037                     A  9001    L_532:
013037 DD7EFF              A  9002    	LD	A,(IX+-1)
01303A FE5A                A  9003    	CP	A,90
01303C 20 04               A  9004    	JR	NZ,L_534
01303E DD36FE0D            A  9005    	LD	(IX+-2),13
013042                     A  9006    L_534:
013042 DD7EFF              A  9007    	LD	A,(IX+-1)
013045 FE66                A  9008    	CP	A,102
013047 20 06               A  9009    	JR	NZ,L_537
013049 21010000            A  9010    	LD	HL,1
01304D 18 32               A  9011    	JR	L_541
01304F                     A  9012    L_537:
01304F DD7EFE              A  9013    	LD	A,(IX+-2)
013052 FE61                A  9014    	CP	A,97
013054 38 0F               A  9015    	JR	C,L_538
013056 3E7A                A  9016    	LD	A,122
Zilog eZ80 Macro Assembler Version 4.1 (10060805) RELISTED19-Sep-11     11:50:04     page: 175


PC     Object              I  Line    Source C:\DOCUME~1\_Enzo_\Desktop\Zapp\Debug\main.src
013058 DDBEFE              A  9017    	CP	A,(IX+-2)
01305B 38 08               A  9018    	JR	C,L_538
01305D DD7EFE              A  9019    	LD	A,(IX+-2)
013060 C6E0                A  9020    	ADD	A,-32
013062 DD77FE              A  9021    	LD	(IX+-2),A
013065                     A  9022    L_538:
013065 DD7EFE              A  9023    	LD	A,(IX+-2)
013068 C680                A  9024    	ADD	A,128
01306A 4F                  A  9025    	LD	C,A
01306B 0600                A  9026    	LD	B,0
01306D C5                  A  9027    	PUSH	BC
01306E CD 31 07 01         A  9028    	CALL	_Write_Kbd
013072 C1                  A  9029    	POP	BC
013073 01A70000            A  9030    	LD	BC,167
013077 C5                  A  9031    	PUSH	BC
013078 CD 02 07 01         A  9032    	CALL	_Write_KbdCr
01307C C1                  A  9033    	POP	BC
01307D                     A  9034    L_540:
01307D 21010000            A  9035    	LD	HL,1
013081                     A  9036    L_541:
013081 DDF9                A  9037    	LD	SP,IX
013083 DDE1                A  9038    	POP	IX
013085 C9                  A  9039    	RET	
                           A  9040    
                           A  9041    
                           A  9042    ;**************************** _Handle_Input ***
                           A  9043    ;Name                         Addr/Register   S
                           A  9044    ;_Dump_In_File                       IMPORT  --
                           A  9045    ;_Load_Basic                         IMPORT  --
                           A  9046    ;_VideoMem                           STATIC    
                           A  9047    ;_memset                             IMPORT  --
                           A  9048    ;_ReadKbd                            IMPORT  --
                           A  9049    ;Ak                                    IX-2    
                           A  9050    ;Sk                                    IX-1    
                           A  9051    
                           A  9052    
                           A  9053    ; Stack Frame Size: 8 (bytes)
                           A  9054    ;       Spill Code: 0 (instruction)
                           A  9055    
                           A  9056    
013086                     A  9057    _Load_Basic:
013086 21FBFFFF            A  9058    	LD	HL,-5
01308A CD 3A 36 01         A  9059    	CALL	__frameset
01308E DD36FE00            A  9060    	LD	(IX+-2),0
013092 DD36FF00            A  9061    	LD	(IX+-1),0
013096 2A 96 46 01         A  9062    	LD	HL,(_mem)
01309A 01001000            A  9063    	LD	BC,4096
01309E C5                  A  9064    	PUSH	BC
01309F 0100E000            A  9065    	LD	BC,57344
0130A3 09                  A  9066    	ADD	HL,BC
0130A4 E5                  A  9067    	PUSH	HL
0130A5 01 20 39 01         A  9068    	LD	BC,L__394
Zilog eZ80 Macro Assembler Version 4.1 (10060805) RELISTED19-Sep-11     11:50:04     page: 176


PC     Object              I  Line    Source C:\DOCUME~1\_Enzo_\Desktop\Zapp\Debug\main.src
0130A9 C5                  A  9069    	PUSH	BC
0130AA CD 19 2E 01         A  9070    	CALL	_Load_Bin_Data
0130AE C1                  A  9071    	POP	BC
0130AF C1                  A  9072    	POP	BC
0130B0 C1                  A  9073    	POP	BC
0130B1 DD2FFB              A  9074    	LD	(IX+-5),HL
0130B4 01010000            A  9075    	LD	BC,1
0130B8 B7                  A  9076    	OR	A,A
0130B9 ED42                A  9077    	SBC	HL,BC
0130BB 20 18               A  9078    	JR	NZ,L_543
0130BD 01 2A 39 01         A  9079    	LD	BC,L__396
0130C1 C5                  A  9080    	PUSH	BC
0130C2 01E60000            A  9081    	LD	BC,230
0130C6 C5                  A  9082    	PUSH	BC
0130C7 01000000            A  9083    	LD	BC,0
0130CB C5                  A  9084    	PUSH	BC
0130CC CD 6C 01 01         A  9085    	CALL	_Blit_String
0130D0 C1                  A  9086    	POP	BC
0130D1 C1                  A  9087    	POP	BC
0130D2 C1                  A  9088    	POP	BC
0130D3 18 24               A  9089    	JR	L_544
0130D5                     A  9090    L_543:
0130D5 01 4B 39 01         A  9091    	LD	BC,L__397
0130D9 C5                  A  9092    	PUSH	BC
0130DA 01E60000            A  9093    	LD	BC,230
0130DE C5                  A  9094    	PUSH	BC
0130DF 01000000            A  9095    	LD	BC,0
0130E3 C5                  A  9096    	PUSH	BC
0130E4 CD 6C 01 01         A  9097    	CALL	_Blit_String
0130E8 C1                  A  9098    	POP	BC
0130E9 C1                  A  9099    	POP	BC
0130EA C1                  A  9100    	POP	BC
0130EB 18 0C               A  9101    	JR	L_544
0130ED                     A  9102    L_545:
0130ED ED65FF              A  9103    	PEA	IX+-1
0130F0 ED65FE              A  9104    	PEA	IX+-2
0130F3 CD 52 2F 01         A  9105    	CALL	_ReadKbd
0130F7 C1                  A  9106    	POP	BC
0130F8 C1                  A  9107    	POP	BC
0130F9                     A  9108    L_544:
0130F9 DD7EFF              A  9109    	LD	A,(IX+-1)
0130FC B7                  A  9110    	OR	A,A
0130FD 28 EE               A  9111    	JR	Z,L_545
0130FF 01 6F 39 01         A  9112    	LD	BC,L__399
013103 C5                  A  9113    	PUSH	BC
013104 01E60000            A  9114    	LD	BC,230
013108 C5                  A  9115    	PUSH	BC
013109 01000000            A  9116    	LD	BC,0
01310D C5                  A  9117    	PUSH	BC
01310E CD 6C 01 01         A  9118    	CALL	_Blit_String
013112 C1                  A  9119    	POP	BC
013113 C1                  A  9120    	POP	BC
Zilog eZ80 Macro Assembler Version 4.1 (10060805) RELISTED19-Sep-11     11:50:04     page: 177


PC     Object              I  Line    Source C:\DOCUME~1\_Enzo_\Desktop\Zapp\Debug\main.src
013114 C1                  A  9121    	POP	BC
013115 DDF9                A  9122    	LD	SP,IX
013117 DDE1                A  9123    	POP	IX
013119 C9                  A  9124    	RET	
                           A  9125    
                           A  9126    
                           A  9127    ;**************************** _Load_Basic *****
                           A  9128    ;Name                         Addr/Register   S
                           A  9129    ;_ReadKbd                            IMPORT  --
                           A  9130    ;_mem                                STATIC    
                           A  9131    ;_Load_Bin_Data                      IMPORT  --
                           A  9132    ;r                                     IX-5    
                           A  9133    ;Ak                                    IX-2    
                           A  9134    ;Sk                                    IX-1    
                           A  9135    
                           A  9136    
                           A  9137    ; Stack Frame Size: 11 (bytes)
                           A  9138    ;       Spill Code: 0 (instruction)
                           A  9139    
                           A  9140    
                           A  9141    	SEGMENT STRSECT
013920                     A  9142    L__394:
013920 42415349 432E524F   A  9143    	DB	"BASIC.ROM"
013928 4D 
013929 00                  A  9144    	DB	0
01392A                     A  9145    L__396:
01392A 4641494C 45442054   A  9146    	DB	"FAILED TO LOAD BASIC. HIT A KEY!"
013932 4F204C4F 41442042 
01393A 41534943 2E204849 
013942 54204120 4B455921 
01394A 00                  A  9147    	DB	0
01394B                     A  9148    L__397:
01394B 54595045 20453030   A  9149    	DB	"TYPE E000R TO RUN BASIC. HIT A KEY!"
013953 30522054 4F205255 
01395B 4E204241 5349432E 
013963 20484954 2041204B 
01396B 455921 
01396E 00                  A  9150    	DB	0
01396F                     A  9151    L__399:
01396F 20202020 20202020   A  9152    	DB	"                                     "
013977 20202020 20202020 
01397F 20202020 20202020 
013987 20202020 20202020 
01398F 20202020 20 
013994 00                  A  9153    	DB	0
                           A  9154    	SEGMENT CODE
01311A                     A  9155    _uitoa:
01311A 21FAFFFF            A  9156    	LD	HL,-6
01311E CD 3A 36 01         A  9157    	CALL	__frameset
013122 DD36FF00            A  9158    	LD	(IX+-1),0
013126 DD36FE00            A  9159    	LD	(IX+-2),0
01312A                     A  9160    L_551:
Zilog eZ80 Macro Assembler Version 4.1 (10060805) RELISTED19-Sep-11     11:50:04     page: 178


PC     Object              I  Line    Source C:\DOCUME~1\_Enzo_\Desktop\Zapp\Debug\main.src
01312A DD7EFF              A  9161    	LD	A,(IX+-1)
01312D 17ED62              A  9162    	SEXT	HL
013130 DD6EFF              A  9163    	LD	L,(IX+-1)
013133 DD0709              A  9164    	LD	BC,(IX+9)
013136 09                  A  9165    	ADD	HL,BC
013137 DD2FFB              A  9166    	LD	(IX+-5),HL
01313A DD2706              A  9167    	LD	HL,(IX+6)
01313D 010A0000            A  9168    	LD	BC,10
013141 CD A7 35 01         A  9169    	CALL	__iremu
013145 7D                  A  9170    	LD	A,L
013146 C630                A  9171    	ADD	A,48
013148 DD27FB              A  9172    	LD	HL,(IX+-5)
01314B 77                  A  9173    	LD	(HL),A
01314C DD27FB              A  9174    	LD	HL,(IX+-5)
01314F 7E                  A  9175    	LD	A,(HL)
013150 47                  A  9176    	LD	B,A
013151 17ED62              A  9177    	SEXT	HL
013154 68                  A  9178    	LD	L,B
013155 E5C1                A  9179    	LD	BC,HL
013157 21390000            A  9180    	LD	HL,57
01315B B7                  A  9181    	OR	A,A
01315C ED42                A  9182    	SBC	HL,BC
01315E F2 6C 31 01         A  9183    	JP	P,L_550
013162 DD27FB              A  9184    	LD	HL,(IX+-5)
013165 7E                  A  9185    	LD	A,(HL)
013166 C607                A  9186    	ADD	A,7
013168 DD27FB              A  9187    	LD	HL,(IX+-5)
01316B 77                  A  9188    	LD	(HL),A
01316C                     A  9189    L_550:
01316C 010A0000            A  9190    	LD	BC,10
013170 DD2706              A  9191    	LD	HL,(IX+6)
013173 CD F0 35 01         A  9192    	CALL	__idivu
013177 DD2F06              A  9193    	LD	(IX+6),HL
01317A DD34FF              A  9194    	INC	(IX+-1)
01317D DD2706              A  9195    	LD	HL,(IX+6)
013180 B7                  A  9196    	OR	A,A
013181 01000000            A  9197    	LD	BC,0
013185 ED42                A  9198    	SBC	HL,BC
013187 20 A1               A  9199    	JR	NZ,L_551
013189 DD7EFF              A  9200    	LD	A,(IX+-1)
01318C 17ED62              A  9201    	SEXT	HL
01318F DD6EFF              A  9202    	LD	L,(IX+-1)
013192 DD0709              A  9203    	LD	BC,(IX+9)
013195 09                  A  9204    	ADD	HL,BC
013196 3600                A  9205    	LD	(HL),0
013198 DD35FF              A  9206    	DEC	(IX+-1)
01319B 18 49               A  9207    	JR	L_555
01319D                     A  9208    L_556:
01319D DD7EFE              A  9209    	LD	A,(IX+-2)
0131A0 17ED62              A  9210    	SEXT	HL
0131A3 DD6EFE              A  9211    	LD	L,(IX+-2)
0131A6 DD0709              A  9212    	LD	BC,(IX+9)
Zilog eZ80 Macro Assembler Version 4.1 (10060805) RELISTED19-Sep-11     11:50:04     page: 179


PC     Object              I  Line    Source C:\DOCUME~1\_Enzo_\Desktop\Zapp\Debug\main.src
0131A9 09                  A  9213    	ADD	HL,BC
0131AA 7E                  A  9214    	LD	A,(HL)
0131AB DD77FA              A  9215    	LD	(IX+-6),A
0131AE DD7EFF              A  9216    	LD	A,(IX+-1)
0131B1 17ED62              A  9217    	SEXT	HL
0131B4 DD6EFF              A  9218    	LD	L,(IX+-1)
0131B7 DD7EFE              A  9219    	LD	A,(IX+-2)
0131BA DD0709              A  9220    	LD	BC,(IX+9)
0131BD 09                  A  9221    	ADD	HL,BC
0131BE E5FDE1              A  9222    	LD	IY,HL
0131C1 17ED62              A  9223    	SEXT	HL
0131C4 DD6EFE              A  9224    	LD	L,(IX+-2)
0131C7 FD7E00              A  9225    	LD	A,(IY)
0131CA DD0709              A  9226    	LD	BC,(IX+9)
0131CD 09                  A  9227    	ADD	HL,BC
0131CE 77                  A  9228    	LD	(HL),A
0131CF DD7EFF              A  9229    	LD	A,(IX+-1)
0131D2 17ED62              A  9230    	SEXT	HL
0131D5 DD6EFF              A  9231    	LD	L,(IX+-1)
0131D8 DD7EFA              A  9232    	LD	A,(IX+-6)
0131DB DD0709              A  9233    	LD	BC,(IX+9)
0131DE 09                  A  9234    	ADD	HL,BC
0131DF 77                  A  9235    	LD	(HL),A
0131E0 DD34FE              A  9236    	INC	(IX+-2)
0131E3 DD35FF              A  9237    	DEC	(IX+-1)
0131E6                     A  9238    L_555:
0131E6 DD7EFE              A  9239    	LD	A,(IX+-2)
0131E9 DDBEFF              A  9240    	CP	A,(IX+-1)
0131EC FA F6 31 01         A  9241    	JP	M,L__404
0131F0 EA 9D 31 01         A  9242    	JP	PE,L_556
0131F4 18 04               A  9243    	JR	L__405
0131F6                     A  9244    L__404:
0131F6 E2 9D 31 01         A  9245    	JP	PO,L_556
0131FA                     A  9246    L__405:
0131FA DDF9                A  9247    	LD	SP,IX
0131FC DDE1                A  9248    	POP	IX
0131FE C9                  A  9249    	RET	
                           A  9250    
                           A  9251    
                           A  9252    ;**************************** _uitoa **********
                           A  9253    ;Name                         Addr/Register   S
                           A  9254    ;tmp                                   IX-6    
                           A  9255    ;G_3                                   IX-5    
                           A  9256    ;i                                     IX-2    
                           A  9257    ;index                                 IX-1    
                           A  9258    ;string                                IX+9    
                           A  9259    ;val                                   IX+6    
                           A  9260    
                           A  9261    
                           A  9262    ; Stack Frame Size: 18 (bytes)
                           A  9263    ;       Spill Code: 0 (instruction)
                           A  9264    
Zilog eZ80 Macro Assembler Version 4.1 (10060805) RELISTED19-Sep-11     11:50:04     page: 180


PC     Object              I  Line    Source C:\DOCUME~1\_Enzo_\Desktop\Zapp\Debug\main.src
                           A  9265    
0131FF                     A  9266    _Dump_Memory:
0131FF 21FDFFFF            A  9267    	LD	HL,-3
013203 CD 3A 36 01         A  9268    	CALL	__frameset
013207 DD0706              A  9269    	LD	BC,(IX+6)
01320A ED43 E4 39 01       A  9270    	LD	(_MainFile),BC
01320F DDE5                A  9271    push ix
013211 2A E4 39 01         A  9272    ld hl, (_MainFile)
013215 ED5B 96 46 01       A  9273    ld de, (_mem)
01321A 01FFFF00            A  9274    ld bc, FFFFh
01321E 3E12                A  9275    ld a, kr_write_file
013220 5BCD200A 00         A  9276    call.lil prose_kernal
013225 DDE1                A  9277    pop ix
013227 20 09               A  9278    jr nz, DumpMemoryError
013229 01000000            A  9279    	LD	BC,0
01322D DD0FFD              A  9280    	LD	(IX+-3),BC
013230 18 07               A  9281    jr DM_Quit
013232                     A  9282    DumpMemoryError:
013232 01010000            A  9283    	LD	BC,1
013236 DD0FFD              A  9284    	LD	(IX+-3),BC
013239                     A  9285    DM_Quit:
013239 C5E1                A  9286    	LD	HL,BC
01323B DDF9                A  9287    	LD	SP,IX
01323D DDE1                A  9288    	POP	IX
01323F C9                  A  9289    	RET	
                           A  9290    
                           A  9291    
                           A  9292    ;**************************** _Dump_Memory ****
                           A  9293    ;Name                         Addr/Register   S
                           A  9294    ;_MainFile                           STATIC    
                           A  9295    ;ret                                   IX-3    
                           A  9296    ;FName                                 IX+6    
                           A  9297    
                           A  9298    
                           A  9299    ; Stack Frame Size: 12 (bytes)
                           A  9300    ;       Spill Code: 0 (instruction)
                           A  9301    
                           A  9302    
013240                     A  9303    _Dump_In_File:
013240 21E9FFFF            A  9304    	LD	HL,-23
013244 CD 3A 36 01         A  9305    	CALL	__frameset
013248 DD36FB00            A  9306    	LD	(IX+-5),0
01324C DD36FC00            A  9307    	LD	(IX+-4),0
013250 01000000            A  9308    	LD	BC,0
013254 DD0FFD              A  9309    	LD	(IX+-3),BC
013257 18 61               A  9310    	JR	L_563
013259                     A  9311    L_561:
013259 010E0000            A  9312    	LD	BC,14
01325D C5                  A  9313    	PUSH	BC
01325E 01000000            A  9314    	LD	BC,0
013262 C5                  A  9315    	PUSH	BC
013263 ED65E9              A  9316    	PEA	IX+-23
Zilog eZ80 Macro Assembler Version 4.1 (10060805) RELISTED19-Sep-11     11:50:04     page: 181


PC     Object              I  Line    Source C:\DOCUME~1\_Enzo_\Desktop\Zapp\Debug\main.src
013266 CD EC 36 01         A  9317    	CALL	_memset
01326A C1                  A  9318    	POP	BC
01326B C1                  A  9319    	POP	BC
01326C C1                  A  9320    	POP	BC
01326D ED65F7              A  9321    	PEA	IX+-9
013270 DD07FD              A  9322    	LD	BC,(IX+-3)
013273 C5                  A  9323    	PUSH	BC
013274 CD 1A 31 01         A  9324    	CALL	_uitoa
013278 C1                  A  9325    	POP	BC
013279 C1                  A  9326    	POP	BC
01327A 01 95 39 01         A  9327    	LD	BC,L__408
01327E C5                  A  9328    	PUSH	BC
01327F ED65E9              A  9329    	PEA	IX+-23
013282 CD 1F 37 01         A  9330    	CALL	_strcat
013286 C1                  A  9331    	POP	BC
013287 C1                  A  9332    	POP	BC
013288 ED65F7              A  9333    	PEA	IX+-9
01328B ED65E9              A  9334    	PEA	IX+-23
01328E CD 1F 37 01         A  9335    	CALL	_strcat
013292 C1                  A  9336    	POP	BC
013293 C1                  A  9337    	POP	BC
013294 01 9A 39 01         A  9338    	LD	BC,L__409
013298 C5                  A  9339    	PUSH	BC
013299 ED65E9              A  9340    	PEA	IX+-23
01329C CD 1F 37 01         A  9341    	CALL	_strcat
0132A0 C1                  A  9342    	POP	BC
0132A1 C1                  A  9343    	POP	BC
0132A2 ED65E9              A  9344    	PEA	IX+-23
0132A5 CD 82 2E 01         A  9345    	CALL	_File_Exists
0132A9 C1                  A  9346    	POP	BC
0132AA 01010000            A  9347    	LD	BC,1
0132AE B7                  A  9348    	OR	A,A
0132AF ED42                A  9349    	SBC	HL,BC
0132B1 28 1F               A  9350    	JR	Z,L_569
0132B3 DD07FD              A  9351    	LD	BC,(IX+-3)
0132B6 03                  A  9352    	INC	BC
0132B7 DD0FFD              A  9353    	LD	(IX+-3),BC
0132BA                     A  9354    L_563:
0132BA DD07FD              A  9355    	LD	BC,(IX+-3)
0132BD 21102700            A  9356    	LD	HL,10000
0132C1 B7                  A  9357    	OR	A,A
0132C2 ED42                A  9358    	SBC	HL,BC
0132C4 F2 CE 32 01         A  9359    	JP	P,L__418
0132C8 EA 59 32 01         A  9360    	JP	PE,L_561
0132CC 18 04               A  9361    	JR	L__419
0132CE                     A  9362    L__418:
0132CE E2 59 32 01         A  9363    	JP	PO,L_561
0132D2                     A  9364    L__419:
0132D2                     A  9365    L_569:
0132D2 ED65E9              A  9366    	PEA	IX+-23
0132D5 CD BA 2E 01         A  9367    	CALL	_Create_File
0132D9 C1                  A  9368    	POP	BC
Zilog eZ80 Macro Assembler Version 4.1 (10060805) RELISTED19-Sep-11     11:50:04     page: 182


PC     Object              I  Line    Source C:\DOCUME~1\_Enzo_\Desktop\Zapp\Debug\main.src
0132DA 01000000            A  9369    	LD	BC,0
0132DE B7                  A  9370    	OR	A,A
0132DF ED42                A  9371    	SBC	HL,BC
0132E1 20 7B               A  9372    	JR	NZ,L_570
0132E3 ED65E9              A  9373    	PEA	IX+-23
0132E6 CD FF 31 01         A  9374    	CALL	_Dump_Memory
0132EA C1                  A  9375    	POP	BC
0132EB 01000000            A  9376    	LD	BC,0
0132EF B7                  A  9377    	OR	A,A
0132F0 ED42                A  9378    	SBC	HL,BC
0132F2 20 6A               A  9379    	JR	NZ,L_570
0132F4 01 9F 39 01         A  9380    	LD	BC,L__414
0132F8 C5                  A  9381    	PUSH	BC
0132F9 01E60000            A  9382    	LD	BC,230
0132FD C5                  A  9383    	PUSH	BC
0132FE 01000000            A  9384    	LD	BC,0
013302 C5                  A  9385    	PUSH	BC
013303 CD 6C 01 01         A  9386    	CALL	_Blit_String
013307 C1                  A  9387    	POP	BC
013308 C1                  A  9388    	POP	BC
013309 C1                  A  9389    	POP	BC
01330A ED65E9              A  9390    	PEA	IX+-23
01330D 01E60000            A  9391    	LD	BC,230
013311 C5                  A  9392    	PUSH	BC
013312 01780000            A  9393    	LD	BC,120
013316 C5                  A  9394    	PUSH	BC
013317 CD 6C 01 01         A  9395    	CALL	_Blit_String
01331B C1                  A  9396    	POP	BC
01331C C1                  A  9397    	POP	BC
01331D C1                  A  9398    	POP	BC
01331E 01 AF 39 01         A  9399    	LD	BC,L__415
013322 C5                  A  9400    	PUSH	BC
013323 01E60000            A  9401    	LD	BC,230
013327 C5                  A  9402    	PUSH	BC
013328 01E80000            A  9403    	LD	BC,232
01332C C5                  A  9404    	PUSH	BC
01332D CD 6C 01 01         A  9405    	CALL	_Blit_String
013331 C1                  A  9406    	POP	BC
013332 C1                  A  9407    	POP	BC
013333 C1                  A  9408    	POP	BC
013334 18 0C               A  9409    	JR	L_564
013336                     A  9410    L_565:
013336 ED65FC              A  9411    	PEA	IX+-4
013339 ED65FB              A  9412    	PEA	IX+-5
01333C CD 52 2F 01         A  9413    	CALL	_ReadKbd
013340 C1                  A  9414    	POP	BC
013341 C1                  A  9415    	POP	BC
013342                     A  9416    L_564:
013342 DD7EFC              A  9417    	LD	A,(IX+-4)
013345 B7                  A  9418    	OR	A,A
013346 28 EE               A  9419    	JR	Z,L_565
013348 01 BA 39 01         A  9420    	LD	BC,L__417
Zilog eZ80 Macro Assembler Version 4.1 (10060805) RELISTED19-Sep-11     11:50:04     page: 183


PC     Object              I  Line    Source C:\DOCUME~1\_Enzo_\Desktop\Zapp\Debug\main.src
01334C C5                  A  9421    	PUSH	BC
01334D 01E60000            A  9422    	LD	BC,230
013351 C5                  A  9423    	PUSH	BC
013352 01000000            A  9424    	LD	BC,0
013356 C5                  A  9425    	PUSH	BC
013357 CD 6C 01 01         A  9426    	CALL	_Blit_String
01335B C1                  A  9427    	POP	BC
01335C C1                  A  9428    	POP	BC
01335D C1                  A  9429    	POP	BC
01335E                     A  9430    L_570:
01335E DDF9                A  9431    	LD	SP,IX
013360 DDE1                A  9432    	POP	IX
013362 C9                  A  9433    	RET	
                           A  9434    
                           A  9435    
                           A  9436    ;**************************** _Dump_In_File ***
                           A  9437    ;Name                         Addr/Register   S
                           A  9438    ;_ReadKbd                            IMPORT  --
                           A  9439    ;_Dump_Memory                        IMPORT  --
                           A  9440    ;_Create_File                        IMPORT  --
                           A  9441    ;_File_Exists                        IMPORT  --
                           A  9442    ;_strcat                             IMPORT  --
                           A  9443    ;_uitoa                              IMPORT  --
                           A  9444    ;_memset                             IMPORT  --
                           A  9445    ;FileName                             IX-23    
                           A  9446    ;buf                                   IX-9    
                           A  9447    ;Ak                                    IX-5    
                           A  9448    ;Sk                                    IX-4    
                           A  9449    ;i                                     IX-3    
                           A  9450    
                           A  9451    
                           A  9452    ; Stack Frame Size: 29 (bytes)
                           A  9453    ;       Spill Code: 0 (instruction)
                           A  9454    
                           A  9455    
                           A  9456    	SEGMENT STRSECT
013995                     A  9457    L__408:
013995 44554D50            A  9458    	DB	"DUMP"
013999 00                  A  9459    	DB	0
01399A                     A  9460    L__409:
01399A 2E42494E            A  9461    	DB	".BIN"
01399E 00                  A  9462    	DB	0
01399F                     A  9463    L__414:
01399F 4D454D4F 52592044   A  9464    	DB	"MEMORY DUMP AT:"
0139A7 554D5020 41543A 
0139AE 00                  A  9465    	DB	0
0139AF                     A  9466    L__415:
0139AF 48495420 41204B45   A  9467    	DB	"HIT A KEY!"
0139B7 5921 
0139B9 00                  A  9468    	DB	0
0139BA                     A  9469    L__417:
0139BA 20202020 20202020   A  9470    	DB	"                                      
Zilog eZ80 Macro Assembler Version 4.1 (10060805) RELISTED19-Sep-11     11:50:04     page: 184


PC     Object              I  Line    Source C:\DOCUME~1\_Enzo_\Desktop\Zapp\Debug\main.src
0139C2 20202020 20202020 
0139CA 20202020 20202020 
0139D2 20202020 20202020 
0139DA 20202020 2020 
0139E0 00                  A  9471    	DB	0
                           A  9472    	SEGMENT CODE
013363                     A  9473    _Load_Dump:
013363 21FDFFFF            A  9474    	LD	HL,-3
013367 CD 3A 36 01         A  9475    	CALL	__frameset
01336B 01000000            A  9476    	LD	BC,0
01336F DD0FFD              A  9477    	LD	(IX+-3),BC
013372 2A E7 39 01         A  9478    	LD	HL,(_Param)
013376 B7                  A  9479    	OR	A,A
013377 ED42                A  9480    	SBC	HL,BC
013379 28 2F               A  9481    	JR	Z,L_573
01337B ED4B E7 39 01       A  9482    	LD	BC,(_Param)
013380 C5                  A  9483    	PUSH	BC
013381 CD 82 2E 01         A  9484    	CALL	_File_Exists
013385 C1                  A  9485    	POP	BC
013386 01000000            A  9486    	LD	BC,0
01338A B7                  A  9487    	OR	A,A
01338B ED42                A  9488    	SBC	HL,BC
01338D 20 1B               A  9489    	JR	NZ,L_573
01338F 01FFFF00            A  9490    	LD	BC,65535
013393 C5                  A  9491    	PUSH	BC
013394 ED4B 96 46 01       A  9492    	LD	BC,(_mem)
013399 C5                  A  9493    	PUSH	BC
01339A ED4B E7 39 01       A  9494    	LD	BC,(_Param)
01339F C5                  A  9495    	PUSH	BC
0133A0 CD 19 2E 01         A  9496    	CALL	_Load_Bin_Data
0133A4 C1                  A  9497    	POP	BC
0133A5 C1                  A  9498    	POP	BC
0133A6 C1                  A  9499    	POP	BC
0133A7 DD2FFD              A  9500    	LD	(IX+-3),HL
0133AA                     A  9501    L_573:
0133AA DD27FD              A  9502    	LD	HL,(IX+-3)
0133AD DDF9                A  9503    	LD	SP,IX
0133AF DDE1                A  9504    	POP	IX
0133B1 C9                  A  9505    	RET	
                           A  9506    
                           A  9507    
                           A  9508    ;**************************** _Load_Dump ******
                           A  9509    ;Name                         Addr/Register   S
                           A  9510    ;_mem                                STATIC    
                           A  9511    ;_Load_Bin_Data                      IMPORT  --
                           A  9512    ;_File_Exists                        IMPORT  --
                           A  9513    ;_Param                              STATIC    
                           A  9514    ;ret                                   IX-3    
                           A  9515    
                           A  9516    
                           A  9517    ; Stack Frame Size: 9 (bytes)
                           A  9518    ;       Spill Code: 0 (instruction)
Zilog eZ80 Macro Assembler Version 4.1 (10060805) RELISTED19-Sep-11     11:50:04     page: 185


PC     Object              I  Line    Source C:\DOCUME~1\_Enzo_\Desktop\Zapp\Debug\main.src
                           A  9519    
                           A  9520    
                           A  9521    	XREF _strlen:ROM
                           A  9522    	XREF _strcat:ROM
                           A  9523    	XREF _memset:ROM
                           A  9524    	XREF _memcpy:ROM
                           A  9525    	XREF _malloc:ROM
                           A  9526    	XREF _free:ROM
                           A  9527    	XREF __indcall:ROM
                           A  9528    	XREF __ladd:ROM
                           A  9529    	XREF __idivs:ROM
                           A  9530    	XREF __idivu:ROM
                           A  9531    	XREF __lmulu:ROM
                           A  9532    	XREF __inot:ROM
                           A  9533    	XREF __sor:ROM
                           A  9534    	XREF __ior:ROM
                           A  9535    	XREF __iand:ROM
                           A  9536    	XREF __iremu:ROM
                           A  9537    	XREF __ixor:ROM
                           A  9538    	XREF __stoi:ROM
                           A  9539    	XREF __stoiu:ROM
                           A  9540    	XREF __frameset0:ROM
                           A  9541    	XREF __frameset:ROM
                           A  9542    	XREF __ishl_b:ROM
                           A  9543    	XREF __ishrs_b:ROM
                           A  9544    	XDEF _Load_Dump
                           A  9545    	XDEF _Dump_In_File
                           A  9546    	XDEF _Dump_Memory
                           A  9547    	XDEF _uitoa
                           A  9548    	XDEF _Load_Basic
                           A  9549    	XDEF _Handle_Input
                           A  9550    	XDEF _ReadKbd
                           A  9551    	XDEF _Get_Key
                           A  9552    	XDEF _mDelay
                           A  9553    	XDEF _Create_File
                           A  9554    	XDEF _File_Exists
                           A  9555    	XDEF _Load_Bin_Data
                           A  9556    	XDEF _print
                           A  9557    	XDEF _Read_MSec_Counter
                           A  9558    	XDEF _MSec_Counter
                           A  9559    	XDEF _MyMain
                           A  9560    	XDEF _setNMI
                           A  9561    	XDEF _Set_IRQ
                           A  9562    	XDEF _Reset_M6502
                           A  9563    	XDEF _Init_Opcode_Table
                           A  9564    	XDEF _Opcode_0xFE
                           A  9565    	XDEF _Opcode_0xFD
                           A  9566    	XDEF _Opcode_0xF9
                           A  9567    	XDEF _Opcode_0xF6
                           A  9568    	XDEF _Opcode_0xF5
                           A  9569    	XDEF _Opcode_0xF1
                           A  9570    	XDEF _Opcode_0xF0
Zilog eZ80 Macro Assembler Version 4.1 (10060805) RELISTED19-Sep-11     11:50:04     page: 186


PC     Object              I  Line    Source C:\DOCUME~1\_Enzo_\Desktop\Zapp\Debug\main.src
                           A  9571    	XDEF _Opcode_0xEE
                           A  9572    	XDEF _Opcode_0xED
                           A  9573    	XDEF _Opcode_0xEC
                           A  9574    	XDEF _Opcode_0xEB
                           A  9575    	XDEF _Opcode_0xE9
                           A  9576    	XDEF _Opcode_0xE6
                           A  9577    	XDEF _Opcode_0xE5
                           A  9578    	XDEF _Opcode_0xE4
                           A  9579    	XDEF _Opcode_0xE1
                           A  9580    	XDEF _Opcode_0xE0
                           A  9581    	XDEF _Opcode_0xDE
                           A  9582    	XDEF _Opcode_0xDD
                           A  9583    	XDEF _Opcode_0xD9
                           A  9584    	XDEF _Opcode_0xD6
                           A  9585    	XDEF _Opcode_0xD5
                           A  9586    	XDEF _Opcode_0xD1
                           A  9587    	XDEF _Opcode_0xD0
                           A  9588    	XDEF _Opcode_0xCE
                           A  9589    	XDEF _Opcode_0xCD
                           A  9590    	XDEF _Opcode_0xCC
                           A  9591    	XDEF _Opcode_0xC9
                           A  9592    	XDEF _Opcode_0xC6
                           A  9593    	XDEF _Opcode_0xC5
                           A  9594    	XDEF _Opcode_0xC4
                           A  9595    	XDEF _Opcode_0xC1
                           A  9596    	XDEF _Opcode_0xC0
                           A  9597    	XDEF _Opcode_0xBE
                           A  9598    	XDEF _Opcode_0xBD
                           A  9599    	XDEF _Opcode_0xBC
                           A  9600    	XDEF _Opcode_0xB9
                           A  9601    	XDEF _Opcode_0xB6
                           A  9602    	XDEF _Opcode_0xB5
                           A  9603    	XDEF _Opcode_0xB4
                           A  9604    	XDEF _Opcode_0xB1
                           A  9605    	XDEF _Opcode_0xB0
                           A  9606    	XDEF _Opcode_0xAE
                           A  9607    	XDEF _Opcode_0xAD
                           A  9608    	XDEF _Opcode_0xAC
                           A  9609    	XDEF _Opcode_0xA9
                           A  9610    	XDEF _Opcode_0xA6
                           A  9611    	XDEF _Opcode_0xA5
                           A  9612    	XDEF _Opcode_0xA4
                           A  9613    	XDEF _Opcode_0xA2
                           A  9614    	XDEF _Opcode_0xA1
                           A  9615    	XDEF _Opcode_0xA0
                           A  9616    	XDEF _Opcode_0x9D
                           A  9617    	XDEF _Opcode_0x99
                           A  9618    	XDEF _Opcode_0x96
                           A  9619    	XDEF _Opcode_0x95
                           A  9620    	XDEF _Opcode_0x94
                           A  9621    	XDEF _Opcode_0x91
                           A  9622    	XDEF _Opcode_0x90
Zilog eZ80 Macro Assembler Version 4.1 (10060805) RELISTED19-Sep-11     11:50:04     page: 187


PC     Object              I  Line    Source C:\DOCUME~1\_Enzo_\Desktop\Zapp\Debug\main.src
                           A  9623    	XDEF _Opcode_0x8E
                           A  9624    	XDEF _Opcode_0x8D
                           A  9625    	XDEF _Opcode_0x8C
                           A  9626    	XDEF _Opcode_0x86
                           A  9627    	XDEF _Opcode_0x85
                           A  9628    	XDEF _Opcode_0x84
                           A  9629    	XDEF _Opcode_0x81
                           A  9630    	XDEF _Opcode_0x7E
                           A  9631    	XDEF _Opcode_0x7D
                           A  9632    	XDEF _Opcode_0x79
                           A  9633    	XDEF _Opcode_0x76
                           A  9634    	XDEF _Opcode_0x75
                           A  9635    	XDEF _Opcode_0x71
                           A  9636    	XDEF _Opcode_0x70
                           A  9637    	XDEF _Opcode_0x6E
                           A  9638    	XDEF _Opcode_0x6D
                           A  9639    	XDEF _Opcode_0x6C
                           A  9640    	XDEF _Opcode_0x69
                           A  9641    	XDEF _Opcode_0x66
                           A  9642    	XDEF _Opcode_0x65
                           A  9643    	XDEF _Opcode_0x61
                           A  9644    	XDEF _Opcode_0x5E
                           A  9645    	XDEF _Opcode_0x5D
                           A  9646    	XDEF _Opcode_0x59
                           A  9647    	XDEF _Opcode_0x56
                           A  9648    	XDEF _Opcode_0x55
                           A  9649    	XDEF _Opcode_0x51
                           A  9650    	XDEF _Opcode_0x50
                           A  9651    	XDEF _Opcode_0x4E
                           A  9652    	XDEF _Opcode_0x4D
                           A  9653    	XDEF _Opcode_0x4C
                           A  9654    	XDEF _Opcode_0x49
                           A  9655    	XDEF _Opcode_0x46
                           A  9656    	XDEF _Opcode_0x45
                           A  9657    	XDEF _Opcode_0x41
                           A  9658    	XDEF _Opcode_0x3F
                           A  9659    	XDEF _Opcode_0x3E
                           A  9660    	XDEF _Opcode_0x3D
                           A  9661    	XDEF _Opcode_0x39
                           A  9662    	XDEF _Opcode_0x36
                           A  9663    	XDEF _Opcode_0x35
                           A  9664    	XDEF _Opcode_0x31
                           A  9665    	XDEF _Opcode_0x30
                           A  9666    	XDEF _Opcode_0x2E
                           A  9667    	XDEF _Opcode_0x2D
                           A  9668    	XDEF _Opcode_0x2C
                           A  9669    	XDEF _Opcode_0x29
                           A  9670    	XDEF _Opcode_0x26
                           A  9671    	XDEF _Opcode_0x25
                           A  9672    	XDEF _Opcode_0x24
                           A  9673    	XDEF _Opcode_0x21
                           A  9674    	XDEF _Opcode_0x1E
Zilog eZ80 Macro Assembler Version 4.1 (10060805) RELISTED19-Sep-11     11:50:04     page: 188


PC     Object              I  Line    Source C:\DOCUME~1\_Enzo_\Desktop\Zapp\Debug\main.src
                           A  9675    	XDEF _Opcode_0x1D
                           A  9676    	XDEF _Opcode_0x19
                           A  9677    	XDEF _Opcode_0x16
                           A  9678    	XDEF _Opcode_0x15
                           A  9679    	XDEF _Opcode_0x11
                           A  9680    	XDEF _Opcode_0x10
                           A  9681    	XDEF _Opcode_0x0E
                           A  9682    	XDEF _Opcode_0x0D
                           A  9683    	XDEF _Opcode_0x0B
                           A  9684    	XDEF _Opcode_0x09
                           A  9685    	XDEF _Opcode_0x06
                           A  9686    	XDEF _Opcode_0x05
                           A  9687    	XDEF _Multi_UnDoc3
                           A  9688    	XDEF _Multi_UnDoc2
                           A  9689    	XDEF _Multi_UnDoc1
                           A  9690    	XDEF _Opcode_0x01
                           A  9691    	XDEF _Opcode_0x00
                           A  9692    	XDEF _tmp
                           A  9693    	XDEF _ptrL
                           A  9694    	XDEF _ptrH
                           A  9695    	XDEF _ptr
                           A  9696    	XDEF _opL
                           A  9697    	XDEF _opH
                           A  9698    	XDEF _op
                           A  9699    	XDEF _programCounter
                           A  9700    	XDEF _Mem_Write
                           A  9701    	XDEF _Mem_Read
                           A  9702    	XDEF _Reset_Memory
                           A  9703    	XDEF _Load_Monitor
                           A  9704    	XDEF _Mem_Mode
                           A  9705    	XDEF _Flip_Mode
                           A  9706    	XDEF _mem
                           A  9707    	XDEF _Read_Kbd
                           A  9708    	XDEF _Read_KbdCr
                           A  9709    	XDEF _Read_Dsp
                           A  9710    	XDEF _Read_DspCr
                           A  9711    	XDEF _Write_Kbd
                           A  9712    	XDEF _Write_KbdCr
                           A  9713    	XDEF _Write_Dsp
                           A  9714    	XDEF _Write_DspCr
                           A  9715    	XDEF _Get_DspOutput
                           A  9716    	XDEF _Get_KdbInterrups
                           A  9717    	XDEF _Set_KdbInterrups
                           A  9718    	XDEF _Reset_Pia6820
                           A  9719    	XDEF _Output_Dsp
                           A  9720    	XDEF _New_Line
                           A  9721    	XDEF _Reset_Screen
                           A  9722    	XDEF _Update_Screen
                           A  9723    	XDEF _Close_Screen
                           A  9724    	XDEF _Set_Screen
                           A  9725    	XDEF _Show_Mode
                           A  9726    	XDEF _Blit_String
Zilog eZ80 Macro Assembler Version 4.1 (10060805) RELISTED19-Sep-11     11:50:04     page: 189


PC     Object              I  Line    Source C:\DOCUME~1\_Enzo_\Desktop\Zapp\Debug\main.src
                           A  9727    	XDEF _Blit_Char
                           A  9728    	XDEF _LoadCharMap
                           A  9729    	XDEF _Set_320_240_Mode
                           A  9730    	XDEF _Palette
                           A  9731    	XDEF _Characters
                           A  9732    	XDEF _PaletteMem
                           A  9733    	XDEF _VideoMemScroll
                           A  9734    	XDEF _VideoMem
                           A  9735    	XDEF _main
                           A  9736    	XDEF _K_xHL
                           A  9737    	XDEF _MainFileSize
                           A  9738    	XDEF _MainDest
                           A  9739    	XDEF _Param
                           A  9740    	XDEF _MainFile
                           A  9741    	XDEF _mlMSec
                           A  9742    	XDEF _mlSec
                           A  9743    	END


Errors: 0
Warnings: 0
Lines Assembled: 9744
